
mcf_enclave:     file format elf64-x86-64


Disassembly of section .text:

0000000040000000 <enclave_start>:
    40000000:	49 83 f9 00          	cmp    $0x0,%r9
    40000004:	75 35                	jne    4000003b <entry>
    40000006:	48 89 e0             	mov    %rsp,%rax
    40000009:	48 c7 c4 00 10 80 40 	mov    $0x40801000,%rsp
    40000010:	50                   	push   %rax
    40000011:	53                   	push   %rbx
    40000012:	51                   	push   %rcx
    40000013:	52                   	push   %rdx
    40000014:	55                   	push   %rbp
    40000015:	56                   	push   %rsi
    40000016:	57                   	push   %rdi
    40000017:	41 50                	push   %r8
    40000019:	41 51                	push   %r9
    4000001b:	41 52                	push   %r10
    4000001d:	41 53                	push   %r11
    4000001f:	41 54                	push   %r12
    40000021:	41 55                	push   %r13
    40000023:	41 56                	push   %r14
    40000025:	41 57                	push   %r15
    40000027:	9c                   	pushfq 
    40000028:	48 8d 05 59 00 00 00 	lea    0x59(%rip),%rax        # 40000088 <exit>
    4000002f:	50                   	push   %rax
    40000030:	4c 89 cf             	mov    %r9,%rdi
    40000033:	4c 89 d6             	mov    %r10,%rsi
    40000036:	e9 03 01 00 00       	jmpq   4000013e <trampoline>

000000004000003b <entry>:
    4000003b:	49 81 f9 86 00 01 00 	cmp    $0x10086,%r9
    40000042:	0f 84 ca 00 00 00    	je     40000112 <ocall_return>
    40000048:	48 89 e0             	mov    %rsp,%rax
    4000004b:	64 48 89 04 25 20 00 	mov    %rax,%fs:0x20
    40000052:	00 00 
    40000054:	64 48 8b 24 25 30 00 	mov    %fs:0x30,%rsp
    4000005b:	00 00 
    4000005d:	50                   	push   %rax
    4000005e:	53                   	push   %rbx
    4000005f:	51                   	push   %rcx
    40000060:	52                   	push   %rdx
    40000061:	55                   	push   %rbp
    40000062:	56                   	push   %rsi
    40000063:	57                   	push   %rdi
    40000064:	41 50                	push   %r8
    40000066:	41 51                	push   %r9
    40000068:	41 52                	push   %r10
    4000006a:	41 53                	push   %r11
    4000006c:	41 54                	push   %r12
    4000006e:	41 55                	push   %r13
    40000070:	41 56                	push   %r14
    40000072:	41 57                	push   %r15
    40000074:	9c                   	pushfq 
    40000075:	48 8d 05 0c 00 00 00 	lea    0xc(%rip),%rax        # 40000088 <exit>
    4000007c:	50                   	push   %rax
    4000007d:	4c 89 cf             	mov    %r9,%rdi
    40000080:	4c 89 d6             	mov    %r10,%rsi
    40000083:	e9 b6 00 00 00       	jmpq   4000013e <trampoline>

0000000040000088 <exit>:
    40000088:	9d                   	popfq  
    40000089:	41 5f                	pop    %r15
    4000008b:	41 5e                	pop    %r14
    4000008d:	41 5d                	pop    %r13
    4000008f:	41 5c                	pop    %r12
    40000091:	41 5b                	pop    %r11
    40000093:	41 5a                	pop    %r10
    40000095:	41 59                	pop    %r9
    40000097:	41 58                	pop    %r8
    40000099:	5f                   	pop    %rdi
    4000009a:	5e                   	pop    %rsi
    4000009b:	5d                   	pop    %rbp
    4000009c:	5a                   	pop    %rdx
    4000009d:	59                   	pop    %rcx
    4000009e:	5b                   	pop    %rbx
    4000009f:	5c                   	pop    %rsp
    400000a0:	48 89 cb             	mov    %rcx,%rbx
    400000a3:	48 c7 c1 00 50 40 00 	mov    $0x405000,%rcx
    400000aa:	48 c7 c0 04 00 00 00 	mov    $0x4,%rax

00000000400000b1 <eexit_tag>:
    400000b1:	0f 01 d7             	enclu  
    400000b4:	90                   	nop
    400000b5:	90                   	nop
    400000b6:	90                   	nop
    400000b7:	90                   	nop
    400000b8:	90                   	nop
    400000b9:	90                   	nop
    400000ba:	90                   	nop
    400000bb:	90                   	nop
    400000bc:	90                   	nop
    400000bd:	90                   	nop
    400000be:	90                   	nop
    400000bf:	90                   	nop
    400000c0:	90                   	nop
    400000c1:	90                   	nop

00000000400000c2 <ocall_syscall>:
    400000c2:	48 8d 44 24 08       	lea    0x8(%rsp),%rax
    400000c7:	64 48 89 04 25 30 00 	mov    %rax,%fs:0x30
    400000ce:	00 00 
    400000d0:	48 8b 04 24          	mov    (%rsp),%rax
    400000d4:	64 48 8b 24 25 10 00 	mov    %fs:0x10,%rsp
    400000db:	00 00 
    400000dd:	50                   	push   %rax
    400000de:	53                   	push   %rbx
    400000df:	51                   	push   %rcx
    400000e0:	52                   	push   %rdx
    400000e1:	55                   	push   %rbp
    400000e2:	56                   	push   %rsi
    400000e3:	57                   	push   %rdi
    400000e4:	41 50                	push   %r8
    400000e6:	41 51                	push   %r9
    400000e8:	41 52                	push   %r10
    400000ea:	41 53                	push   %r11
    400000ec:	41 54                	push   %r12
    400000ee:	41 55                	push   %r13
    400000f0:	41 56                	push   %r14
    400000f2:	41 57                	push   %r15
    400000f4:	9c                   	pushfq 
    400000f5:	64 48 8b 24 25 20 00 	mov    %fs:0x20,%rsp
    400000fc:	00 00 
    400000fe:	48 8b 1c 25 70 58 40 	mov    0x40405870,%rbx
    40000105:	40 
    40000106:	48 c7 c0 04 00 00 00 	mov    $0x4,%rax
    4000010d:	e9 9f ff ff ff       	jmpq   400000b1 <eexit_tag>

0000000040000112 <ocall_return>:
    40000112:	64 48 8b 24 25 18 00 	mov    %fs:0x18,%rsp
    40000119:	00 00 
    4000011b:	9d                   	popfq  
    4000011c:	41 5f                	pop    %r15
    4000011e:	41 5e                	pop    %r14
    40000120:	41 5d                	pop    %r13
    40000122:	41 5c                	pop    %r12
    40000124:	41 5b                	pop    %r11
    40000126:	41 5a                	pop    %r10
    40000128:	41 59                	pop    %r9
    4000012a:	41 58                	pop    %r8
    4000012c:	5f                   	pop    %rdi
    4000012d:	5e                   	pop    %rsi
    4000012e:	5d                   	pop    %rbp
    4000012f:	5a                   	pop    %rdx
    40000130:	59                   	pop    %rcx
    40000131:	5b                   	pop    %rbx
    40000132:	58                   	pop    %rax
    40000133:	64 48 8b 24 25 30 00 	mov    %fs:0x30,%rsp
    4000013a:	00 00 
    4000013c:	ff e0                	jmpq   *%rax

000000004000013e <trampoline>:
    4000013e:	55                   	push   %rbp
    4000013f:	48 89 e5             	mov    %rsp,%rbp
    40000142:	48 83 ec 40          	sub    $0x40,%rsp
    40000146:	48 89 7d c8          	mov    %rdi,-0x38(%rbp)
    4000014a:	48 89 75 c0          	mov    %rsi,-0x40(%rbp)
    4000014e:	48 8b 45 c8          	mov    -0x38(%rbp),%rax
    40000152:	48 83 f8 01          	cmp    $0x1,%rax
    40000156:	74 1e                	je     40000176 <trampoline+0x38>
    40000158:	48 3d 87 00 01 00    	cmp    $0x10087,%rax
    4000015e:	74 5d                	je     400001bd <trampoline+0x7f>
    40000160:	48 85 c0             	test   %rax,%rax
    40000163:	75 66                	jne    400001cb <trampoline+0x8d>
    40000165:	48 8b 45 c0          	mov    -0x40(%rbp),%rax
    40000169:	48 89 c7             	mov    %rax,%rdi
    4000016c:	e8 3a 20 00 00       	callq  400021ab <init_syscall>
    40000171:	e9 93 00 00 00       	jmpq   40000209 <trampoline+0xcb>
    40000176:	e8 98 22 00 00       	callq  40002413 <__tls_outside_buffer>
    4000017b:	48 8b 00             	mov    (%rax),%rax
    4000017e:	48 05 00 10 00 00    	add    $0x1000,%rax
    40000184:	48 89 45 f8          	mov    %rax,-0x8(%rbp)
    40000188:	48 8b 45 f8          	mov    -0x8(%rbp),%rax
    4000018c:	48 8b 00             	mov    (%rax),%rax
    4000018f:	89 45 f4             	mov    %eax,-0xc(%rbp)
    40000192:	83 6d f4 01          	subl   $0x1,-0xc(%rbp)
    40000196:	48 8b 45 f8          	mov    -0x8(%rbp),%rax
    4000019a:	48 83 c0 08          	add    $0x8,%rax
    4000019e:	48 8b 00             	mov    (%rax),%rax
    400001a1:	48 89 45 e8          	mov    %rax,-0x18(%rbp)
    400001a5:	48 83 45 e8 08       	addq   $0x8,-0x18(%rbp)
    400001aa:	48 8b 55 e8          	mov    -0x18(%rbp),%rdx
    400001ae:	8b 45 f4             	mov    -0xc(%rbp),%eax
    400001b1:	48 89 d6             	mov    %rdx,%rsi
    400001b4:	89 c7                	mov    %eax,%edi
    400001b6:	e8 55 01 00 00       	callq  40000310 <main>
    400001bb:	eb 4c                	jmp    40000209 <trampoline+0xcb>
    400001bd:	48 8b 45 c0          	mov    -0x40(%rbp),%rax
    400001c1:	48 89 c7             	mov    %rax,%rdi
    400001c4:	e8 b7 b1 00 00       	callq  4000b380 <dump_out>
    400001c9:	eb 3e                	jmp    40000209 <trampoline+0xcb>
    400001cb:	48 8d 3d 2e fe 3f 00 	lea    0x3ffe2e(%rip),%rdi        # 40400000 <data_start>
    400001d2:	e8 d1 3e 00 00       	callq  400040a8 <puts>
    400001d7:	48 8b 45 c8          	mov    -0x38(%rbp),%rax
    400001db:	48 89 45 e0          	mov    %rax,-0x20(%rbp)
    400001df:	48 8b 55 c0          	mov    -0x40(%rbp),%rdx
    400001e3:	48 8b 45 e0          	mov    -0x20(%rbp),%rax
    400001e7:	48 89 d7             	mov    %rdx,%rdi
    400001ea:	ff d0                	callq  *%rax
    400001ec:	48 89 45 d8          	mov    %rax,-0x28(%rbp)
    400001f0:	48 8b 45 d8          	mov    -0x28(%rbp),%rax
    400001f4:	48 89 c6             	mov    %rax,%rsi
    400001f7:	48 8d 3d 2a fe 3f 00 	lea    0x3ffe2a(%rip),%rdi        # 40400028 <data_start+0x28>
    400001fe:	b8 00 00 00 00       	mov    $0x0,%eax
    40000203:	e8 f6 3d 00 00       	callq  40003ffe <printf>
    40000208:	90                   	nop
    40000209:	90                   	nop
    4000020a:	c9                   	leaveq 
    4000020b:	c3                   	retq   
    4000020c:	0f 1f 40 00          	nopl   0x0(%rax)

0000000040000210 <global_opt>:
    40000210:	41 54                	push   %r12
    40000212:	55                   	push   %rbp
    40000213:	bd 06 00 00 00       	mov    $0x6,%ebp
    40000218:	53                   	push   %rbx
    40000219:	48 8d 1d e0 53 40 00 	lea    0x4053e0(%rip),%rbx        # 40405600 <net>
    40000220:	48 8b b3 a8 01 00 00 	mov    0x1a8(%rbx),%rsi
    40000227:	48 8d 3d 32 fe 3f 00 	lea    0x3ffe32(%rip),%rdi        # 40400060 <data_start+0x60>
    4000022e:	31 c0                	xor    %eax,%eax
    40000230:	e8 c9 3d 00 00       	callq  40003ffe <printf>
    40000235:	48 89 df             	mov    %rbx,%rdi
    40000238:	e8 c3 19 00 00       	callq  40001c00 <primal_net_simplex>
    4000023d:	48 8b b3 58 02 00 00 	mov    0x258(%rbx),%rsi
    40000244:	48 8d 3d 3d fe 3f 00 	lea    0x3ffe3d(%rip),%rdi        # 40400088 <data_start+0x88>
    4000024b:	31 c0                	xor    %eax,%eax
    4000024d:	e8 ac 3d 00 00       	callq  40003ffe <printf>
    40000252:	48 89 df             	mov    %rbx,%rdi
    40000255:	e8 f6 02 00 00       	callq  40000550 <flow_cost>
    4000025a:	48 8d 3d 4f fe 3f 00 	lea    0x3ffe4f(%rip),%rdi        # 404000b0 <data_start+0xb0>
    40000261:	b8 01 00 00 00       	mov    $0x1,%eax
    40000266:	e8 93 3d 00 00       	callq  40003ffe <printf>
    4000026b:	48 83 ed 01          	sub    $0x1,%rbp
    4000026f:	74 1a                	je     4000028b <global_opt+0x7b>
    40000271:	48 83 bb b8 01 00 00 	cmpq   $0x0,0x1b8(%rbx)
    40000278:	00 
    40000279:	75 65                	jne    400002e0 <global_opt+0xd0>
    4000027b:	48 89 df             	mov    %rbx,%rdi
    4000027e:	e8 ed 0e 00 00       	callq  40001170 <price_out_impl>
    40000283:	48 85 c0             	test   %rax,%rax
    40000286:	49 89 c4             	mov    %rax,%r12
    40000289:	75 25                	jne    400002b0 <global_opt+0xa0>
    4000028b:	48 8b b3 68 02 00 00 	mov    0x268(%rbx),%rsi
    40000292:	48 8d 3d 8f fe 3f 00 	lea    0x3ffe8f(%rip),%rdi        # 40400128 <data_start+0x128>
    40000299:	31 c0                	xor    %eax,%eax
    4000029b:	e8 5e 3d 00 00       	callq  40003ffe <printf>
    400002a0:	5b                   	pop    %rbx
    400002a1:	31 c0                	xor    %eax,%eax
    400002a3:	5d                   	pop    %rbp
    400002a4:	41 5c                	pop    %r12
    400002a6:	c3                   	retq   
    400002a7:	66 0f 1f 84 00 00 00 	nopw   0x0(%rax,%rax,1)
    400002ae:	00 00 
    400002b0:	48 8d 3d 49 fe 3f 00 	lea    0x3ffe49(%rip),%rdi        # 40400100 <data_start+0x100>
    400002b7:	48 89 c6             	mov    %rax,%rsi
    400002ba:	31 c0                	xor    %eax,%eax
    400002bc:	e8 3d 3d 00 00       	callq  40003ffe <printf>
    400002c1:	4d 85 e4             	test   %r12,%r12
    400002c4:	0f 89 56 ff ff ff    	jns    40000220 <global_opt+0x10>
    400002ca:	48 8d 3d 51 ff 3f 00 	lea    0x3fff51(%rip),%rdi        # 40400222 <data_start+0x222>
    400002d1:	e8 d2 3d 00 00       	callq  400040a8 <puts>
    400002d6:	bf ff ff ff ff       	mov    $0xffffffff,%edi
    400002db:	e8 91 21 00 00       	callq  40002471 <exit>
    400002e0:	31 d2                	xor    %edx,%edx
    400002e2:	48 c7 c6 ff ff ff ff 	mov    $0xffffffffffffffff,%rsi
    400002e9:	48 89 df             	mov    %rbx,%rdi
    400002ec:	e8 af 11 00 00       	callq  400014a0 <suspend_impl>
    400002f1:	48 85 c0             	test   %rax,%rax
    400002f4:	74 85                	je     4000027b <global_opt+0x6b>
    400002f6:	48 8d 3d db fd 3f 00 	lea    0x3ffddb(%rip),%rdi        # 404000d8 <data_start+0xd8>
    400002fd:	48 89 c6             	mov    %rax,%rsi
    40000300:	31 c0                	xor    %eax,%eax
    40000302:	e8 f7 3c 00 00       	callq  40003ffe <printf>
    40000307:	e9 6f ff ff ff       	jmpq   4000027b <global_opt+0x6b>
    4000030c:	0f 1f 40 00          	nopl   0x0(%rax)

0000000040000310 <main>:
    40000310:	83 ff 01             	cmp    $0x1,%edi
    40000313:	0f 8e f1 00 00 00    	jle    4000040a <main+0xfa>
    40000319:	55                   	push   %rbp
    4000031a:	53                   	push   %rbx
    4000031b:	48 8d 3d 2e fe 3f 00 	lea    0x3ffe2e(%rip),%rdi        # 40400150 <data_start+0x150>
    40000322:	48 89 f5             	mov    %rsi,%rbp
    40000325:	48 83 ec 08          	sub    $0x8,%rsp
    40000329:	e8 7a 3d 00 00       	callq  400040a8 <puts>
    4000032e:	48 8d 3d 3b fe 3f 00 	lea    0x3ffe3b(%rip),%rdi        # 40400170 <data_start+0x170>
    40000335:	e8 6e 3d 00 00       	callq  400040a8 <puts>
    4000033a:	48 8d 3d 67 fe 3f 00 	lea    0x3ffe67(%rip),%rdi        # 404001a8 <data_start+0x1a8>
    40000341:	e8 62 3d 00 00       	callq  400040a8 <puts>
    40000346:	48 8d 3d 8b fe 3f 00 	lea    0x3ffe8b(%rip),%rdi        # 404001d8 <data_start+0x1d8>
    4000034d:	e8 56 3d 00 00       	callq  400040a8 <puts>
    40000352:	bf 0a 00 00 00       	mov    $0xa,%edi
    40000357:	e8 40 3d 00 00       	callq  4000409c <putchar>
    4000035c:	48 8d 1d 9d 52 40 00 	lea    0x40529d(%rip),%rbx        # 40405600 <net>
    40000363:	31 c0                	xor    %eax,%eax
    40000365:	b9 4e 00 00 00       	mov    $0x4e,%ecx
    4000036a:	48 89 df             	mov    %rbx,%rdi
    4000036d:	f3 48 ab             	rep stos %rax,%es:(%rdi)
    40000370:	48 89 df             	mov    %rbx,%rdi
    40000373:	48 c7 83 10 02 00 00 	movq   $0x989680,0x210(%rbx)
    4000037a:	80 96 98 00 
    4000037e:	48 8b 75 08          	mov    0x8(%rbp),%rsi
    40000382:	e8 29 5b 00 00       	callq  40005eb0 <strcpy>
    40000387:	48 89 df             	mov    %rbx,%rdi
    4000038a:	e8 71 06 00 00       	callq  40000a00 <read_min>
    4000038f:	48 85 c0             	test   %rax,%rax
    40000392:	75 53                	jne    400003e7 <main+0xd7>
    40000394:	48 8b b3 98 01 00 00 	mov    0x198(%rbx),%rsi
    4000039b:	48 8d 3d 5e fe 3f 00 	lea    0x3ffe5e(%rip),%rdi        # 40400200 <data_start+0x200>
    400003a2:	31 c0                	xor    %eax,%eax
    400003a4:	e8 55 3c 00 00       	callq  40003ffe <printf>
    400003a9:	48 89 df             	mov    %rbx,%rdi
    400003ac:	e8 ff 11 00 00       	callq  400015b0 <primal_start_artificial>
    400003b1:	e8 5a fe ff ff       	callq  40000210 <global_opt>
    400003b6:	48 8d 3d 92 fe 3f 00 	lea    0x3ffe92(%rip),%rdi        # 4040024f <data_start+0x24f>
    400003bd:	e8 e6 3c 00 00       	callq  400040a8 <puts>
    400003c2:	48 8d 3d 8b fe 3f 00 	lea    0x3ffe8b(%rip),%rdi        # 40400254 <data_start+0x254>
    400003c9:	48 89 de             	mov    %rbx,%rsi
    400003cc:	e8 3f 13 00 00       	callq  40001710 <write_circulations>
    400003d1:	48 85 c0             	test   %rax,%rax
    400003d4:	48 89 df             	mov    %rbx,%rdi
    400003d7:	75 27                	jne    40000400 <main+0xf0>
    400003d9:	e8 a2 05 00 00       	callq  40000980 <getfree>
    400003de:	31 c0                	xor    %eax,%eax
    400003e0:	48 83 c4 08          	add    $0x8,%rsp
    400003e4:	5b                   	pop    %rbx
    400003e5:	5d                   	pop    %rbp
    400003e6:	c3                   	retq   
    400003e7:	48 8d 3d 50 fe 3f 00 	lea    0x3ffe50(%rip),%rdi        # 4040023e <data_start+0x23e>
    400003ee:	e8 b5 3c 00 00       	callq  400040a8 <puts>
    400003f3:	48 89 df             	mov    %rbx,%rdi
    400003f6:	e8 85 05 00 00       	callq  40000980 <getfree>
    400003fb:	83 c8 ff             	or     $0xffffffff,%eax
    400003fe:	eb e0                	jmp    400003e0 <main+0xd0>
    40000400:	e8 7b 05 00 00       	callq  40000980 <getfree>
    40000405:	83 c8 ff             	or     $0xffffffff,%eax
    40000408:	eb d6                	jmp    400003e0 <main+0xd0>
    4000040a:	83 c8 ff             	or     $0xffffffff,%eax
    4000040d:	c3                   	retq   
    4000040e:	66 90                	xchg   %ax,%ax

0000000040000410 <refresh_neighbour_lists>:
    40000410:	48 8b 87 28 02 00 00 	mov    0x228(%rdi),%rax
    40000417:	48 8b 97 30 02 00 00 	mov    0x230(%rdi),%rdx
    4000041e:	48 39 d0             	cmp    %rdx,%rax
    40000421:	73 1e                	jae    40000441 <refresh_neighbour_lists+0x31>
    40000423:	0f 1f 44 00 00       	nopl   0x0(%rax,%rax,1)
    40000428:	48 c7 40 40 00 00 00 	movq   $0x0,0x40(%rax)
    4000042f:	00 
    40000430:	48 c7 40 38 00 00 00 	movq   $0x0,0x38(%rax)
    40000437:	00 
    40000438:	48 83 c0 68          	add    $0x68,%rax
    4000043c:	48 39 c2             	cmp    %rax,%rdx
    4000043f:	77 e7                	ja     40000428 <refresh_neighbour_lists+0x18>
    40000441:	48 8b 87 38 02 00 00 	mov    0x238(%rdi),%rax
    40000448:	48 8b b7 40 02 00 00 	mov    0x240(%rdi),%rsi
    4000044f:	48 39 f0             	cmp    %rsi,%rax
    40000452:	73 2f                	jae    40000483 <refresh_neighbour_lists+0x73>
    40000454:	0f 1f 40 00          	nopl   0x0(%rax)
    40000458:	48 8b 50 08          	mov    0x8(%rax),%rdx
    4000045c:	48 8b 4a 38          	mov    0x38(%rdx),%rcx
    40000460:	48 89 48 20          	mov    %rcx,0x20(%rax)
    40000464:	48 89 42 38          	mov    %rax,0x38(%rdx)
    40000468:	48 8b 50 10          	mov    0x10(%rax),%rdx
    4000046c:	48 8b 4a 40          	mov    0x40(%rdx),%rcx
    40000470:	48 89 48 28          	mov    %rcx,0x28(%rax)
    40000474:	48 89 42 40          	mov    %rax,0x40(%rdx)
    40000478:	48 83 c0 40          	add    $0x40,%rax
    4000047c:	48 39 c6             	cmp    %rax,%rsi
    4000047f:	77 d7                	ja     40000458 <refresh_neighbour_lists+0x48>
    40000481:	f3 c3                	repz retq 
    40000483:	f3 c3                	repz retq 
    40000485:	90                   	nop
    40000486:	66 2e 0f 1f 84 00 00 	nopw   %cs:0x0(%rax,%rax,1)
    4000048d:	00 00 00 

0000000040000490 <refresh_potential>:
    40000490:	48 8b bf 28 02 00 00 	mov    0x228(%rdi),%rdi
    40000497:	31 c0                	xor    %eax,%eax
    40000499:	48 8b 57 10          	mov    0x10(%rdi),%rdx
    4000049d:	48 c7 07 00 1f 0a fa 	movq   $0xfffffffffa0a1f00,(%rdi)
    400004a4:	48 39 d7             	cmp    %rdx,%rdi
    400004a7:	48 89 d6             	mov    %rdx,%rsi
    400004aa:	0f 84 93 00 00 00    	je     40000543 <refresh_potential+0xb3>
    400004b0:	48 85 d2             	test   %rdx,%rdx
    400004b3:	75 2c                	jne    400004e1 <refresh_potential+0x51>
    400004b5:	e9 84 00 00 00       	jmpq   4000053e <refresh_potential+0xae>
    400004ba:	66 0f 1f 44 00 00    	nopw   0x0(%rax,%rax,1)
    400004c0:	48 8b 4a 18          	mov    0x18(%rdx),%rcx
    400004c4:	48 8b 72 30          	mov    0x30(%rdx),%rsi
    400004c8:	48 83 c0 01          	add    $0x1,%rax
    400004cc:	48 8b 09             	mov    (%rcx),%rcx
    400004cf:	48 2b 0e             	sub    (%rsi),%rcx
    400004d2:	48 89 0a             	mov    %rcx,(%rdx)
    400004d5:	48 8b 4a 10          	mov    0x10(%rdx),%rcx
    400004d9:	48 85 c9             	test   %rcx,%rcx
    400004dc:	74 23                	je     40000501 <refresh_potential+0x71>
    400004de:	48 89 ca             	mov    %rcx,%rdx
    400004e1:	83 7a 08 01          	cmpl   $0x1,0x8(%rdx)
    400004e5:	75 d9                	jne    400004c0 <refresh_potential+0x30>
    400004e7:	48 8b 72 30          	mov    0x30(%rdx),%rsi
    400004eb:	48 8b 4a 18          	mov    0x18(%rdx),%rcx
    400004ef:	48 8b 09             	mov    (%rcx),%rcx
    400004f2:	48 03 0e             	add    (%rsi),%rcx
    400004f5:	48 89 0a             	mov    %rcx,(%rdx)
    400004f8:	48 8b 4a 10          	mov    0x10(%rdx),%rcx
    400004fc:	48 85 c9             	test   %rcx,%rcx
    400004ff:	75 dd                	jne    400004de <refresh_potential+0x4e>
    40000501:	48 89 d6             	mov    %rdx,%rsi
    40000504:	eb 16                	jmp    4000051c <refresh_potential+0x8c>
    40000506:	66 2e 0f 1f 84 00 00 	nopw   %cs:0x0(%rax,%rax,1)
    4000050d:	00 00 00 
    40000510:	48 8b 72 20          	mov    0x20(%rdx),%rsi
    40000514:	48 89 ca             	mov    %rcx,%rdx
    40000517:	48 85 f6             	test   %rsi,%rsi
    4000051a:	75 14                	jne    40000530 <refresh_potential+0xa0>
    4000051c:	48 8b 4a 18          	mov    0x18(%rdx),%rcx
    40000520:	48 85 c9             	test   %rcx,%rcx
    40000523:	75 eb                	jne    40000510 <refresh_potential+0x80>
    40000525:	48 39 d7             	cmp    %rdx,%rdi
    40000528:	75 86                	jne    400004b0 <refresh_potential+0x20>
    4000052a:	f3 c3                	repz retq 
    4000052c:	0f 1f 40 00          	nopl   0x0(%rax)
    40000530:	48 89 f2             	mov    %rsi,%rdx
    40000533:	48 39 d7             	cmp    %rdx,%rdi
    40000536:	0f 85 74 ff ff ff    	jne    400004b0 <refresh_potential+0x20>
    4000053c:	eb ec                	jmp    4000052a <refresh_potential+0x9a>
    4000053e:	48 89 f2             	mov    %rsi,%rdx
    40000541:	eb be                	jmp    40000501 <refresh_potential+0x71>
    40000543:	f3 c3                	repz retq 
    40000545:	90                   	nop
    40000546:	66 2e 0f 1f 84 00 00 	nopw   %cs:0x0(%rax,%rax,1)
    4000054d:	00 00 00 

0000000040000550 <flow_cost>:
    40000550:	48 8b 8f 40 02 00 00 	mov    0x240(%rdi),%rcx
    40000557:	48 8b 87 38 02 00 00 	mov    0x238(%rdi),%rax
    4000055e:	48 39 c1             	cmp    %rax,%rcx
    40000561:	0f 84 d9 00 00 00    	je     40000640 <flow_cost+0xf0>
    40000567:	48 89 c2             	mov    %rax,%rdx
    4000056a:	66 0f 1f 44 00 00    	nopw   0x0(%rax,%rax,1)
    40000570:	31 f6                	xor    %esi,%esi
    40000572:	83 7a 18 02          	cmpl   $0x2,0x18(%rdx)
    40000576:	40 0f 94 c6          	sete   %sil
    4000057a:	48 83 c2 40          	add    $0x40,%rdx
    4000057e:	48 89 72 f0          	mov    %rsi,-0x10(%rdx)
    40000582:	48 39 d1             	cmp    %rdx,%rcx
    40000585:	75 e9                	jne    40000570 <flow_cost+0x20>
    40000587:	48 8b b7 28 02 00 00 	mov    0x228(%rdi),%rsi
    4000058e:	4c 8b 8f 30 02 00 00 	mov    0x230(%rdi),%r9
    40000595:	48 8d 56 68          	lea    0x68(%rsi),%rdx
    40000599:	49 39 d1             	cmp    %rdx,%r9
    4000059c:	74 20                	je     400005be <flow_cost+0x6e>
    4000059e:	66 90                	xchg   %ax,%ax
    400005a0:	4c 8b 42 50          	mov    0x50(%rdx),%r8
    400005a4:	48 8b 72 30          	mov    0x30(%rdx),%rsi
    400005a8:	48 83 c2 68          	add    $0x68,%rdx
    400005ac:	4c 39 ca             	cmp    %r9,%rdx
    400005af:	4c 89 46 30          	mov    %r8,0x30(%rsi)
    400005b3:	75 eb                	jne    400005a0 <flow_cost+0x50>
    400005b5:	48 39 c1             	cmp    %rax,%rcx
    400005b8:	0f 84 9d 00 00 00    	je     4000065b <flow_cost+0x10b>
    400005be:	4c 8b 87 10 02 00 00 	mov    0x210(%rdi),%r8
    400005c5:	31 d2                	xor    %edx,%edx
    400005c7:	31 ff                	xor    %edi,%edi
    400005c9:	eb 18                	jmp    400005e3 <flow_cost+0x93>
    400005cb:	0f 1f 44 00 00       	nopl   0x0(%rax,%rax,1)
    400005d0:	4c 29 c2             	sub    %r8,%rdx
    400005d3:	48 03 10             	add    (%rax),%rdx
    400005d6:	48 83 c7 01          	add    $0x1,%rdi
    400005da:	48 83 c0 40          	add    $0x40,%rax
    400005de:	48 39 c1             	cmp    %rax,%rcx
    400005e1:	74 22                	je     40000605 <flow_cost+0xb5>
    400005e3:	48 83 78 30 00       	cmpq   $0x0,0x30(%rax)
    400005e8:	74 f0                	je     400005da <flow_cost+0x8a>
    400005ea:	48 8b 70 08          	mov    0x8(%rax),%rsi
    400005ee:	44 8b 4e 60          	mov    0x60(%rsi),%r9d
    400005f2:	45 85 c9             	test   %r9d,%r9d
    400005f5:	78 39                	js     40000630 <flow_cost+0xe0>
    400005f7:	74 d7                	je     400005d0 <flow_cost+0x80>
    400005f9:	48 03 10             	add    (%rax),%rdx
    400005fc:	48 83 c0 40          	add    $0x40,%rax
    40000600:	48 39 c1             	cmp    %rax,%rcx
    40000603:	75 de                	jne    400005e3 <flow_cost+0x93>
    40000605:	66 0f ef c0          	pxor   %xmm0,%xmm0
    40000609:	66 0f ef c9          	pxor   %xmm1,%xmm1
    4000060d:	f2 48 0f 2a c7       	cvtsi2sd %rdi,%xmm0
    40000612:	f2 48 0f 2a ca       	cvtsi2sd %rdx,%xmm1
    40000617:	66 0f ef d2          	pxor   %xmm2,%xmm2
    4000061b:	f2 49 0f 2a d0       	cvtsi2sd %r8,%xmm2
    40000620:	f2 0f 59 c2          	mulsd  %xmm2,%xmm0
    40000624:	f2 0f 58 c1          	addsd  %xmm1,%xmm0
    40000628:	c3                   	retq   
    40000629:	0f 1f 80 00 00 00 00 	nopl   0x0(%rax)
    40000630:	48 8b 70 10          	mov    0x10(%rax),%rsi
    40000634:	8b 76 60             	mov    0x60(%rsi),%esi
    40000637:	85 f6                	test   %esi,%esi
    40000639:	7f 9f                	jg     400005da <flow_cost+0x8a>
    4000063b:	48 03 10             	add    (%rax),%rdx
    4000063e:	eb bc                	jmp    400005fc <flow_cost+0xac>
    40000640:	48 8b b7 28 02 00 00 	mov    0x228(%rdi),%rsi
    40000647:	4c 8b 8f 30 02 00 00 	mov    0x230(%rdi),%r9
    4000064e:	48 8d 56 68          	lea    0x68(%rsi),%rdx
    40000652:	49 39 d1             	cmp    %rdx,%r9
    40000655:	0f 85 45 ff ff ff    	jne    400005a0 <flow_cost+0x50>
    4000065b:	66 0f ef c9          	pxor   %xmm1,%xmm1
    4000065f:	4c 8b 87 10 02 00 00 	mov    0x210(%rdi),%r8
    40000666:	66 0f 28 c1          	movapd %xmm1,%xmm0
    4000066a:	eb ab                	jmp    40000617 <flow_cost+0xc7>
    4000066c:	0f 1f 40 00          	nopl   0x0(%rax)

0000000040000670 <flow_org_cost>:
    40000670:	48 8b 8f 40 02 00 00 	mov    0x240(%rdi),%rcx
    40000677:	48 8b 87 38 02 00 00 	mov    0x238(%rdi),%rax
    4000067e:	48 39 c1             	cmp    %rax,%rcx
    40000681:	0f 84 da 00 00 00    	je     40000761 <flow_org_cost+0xf1>
    40000687:	48 89 c2             	mov    %rax,%rdx
    4000068a:	66 0f 1f 44 00 00    	nopw   0x0(%rax,%rax,1)
    40000690:	31 f6                	xor    %esi,%esi
    40000692:	83 7a 18 02          	cmpl   $0x2,0x18(%rdx)
    40000696:	40 0f 94 c6          	sete   %sil
    4000069a:	48 83 c2 40          	add    $0x40,%rdx
    4000069e:	48 89 72 f0          	mov    %rsi,-0x10(%rdx)
    400006a2:	48 39 d1             	cmp    %rdx,%rcx
    400006a5:	75 e9                	jne    40000690 <flow_org_cost+0x20>
    400006a7:	48 8b b7 28 02 00 00 	mov    0x228(%rdi),%rsi
    400006ae:	4c 8b 8f 30 02 00 00 	mov    0x230(%rdi),%r9
    400006b5:	48 8d 56 68          	lea    0x68(%rsi),%rdx
    400006b9:	49 39 d1             	cmp    %rdx,%r9
    400006bc:	74 20                	je     400006de <flow_org_cost+0x6e>
    400006be:	66 90                	xchg   %ax,%ax
    400006c0:	4c 8b 42 50          	mov    0x50(%rdx),%r8
    400006c4:	48 8b 72 30          	mov    0x30(%rdx),%rsi
    400006c8:	48 83 c2 68          	add    $0x68,%rdx
    400006cc:	4c 39 ca             	cmp    %r9,%rdx
    400006cf:	4c 89 46 30          	mov    %r8,0x30(%rsi)
    400006d3:	75 eb                	jne    400006c0 <flow_org_cost+0x50>
    400006d5:	48 39 c1             	cmp    %rax,%rcx
    400006d8:	0f 84 9e 00 00 00    	je     4000077c <flow_org_cost+0x10c>
    400006de:	4c 8b 87 10 02 00 00 	mov    0x210(%rdi),%r8
    400006e5:	31 d2                	xor    %edx,%edx
    400006e7:	31 ff                	xor    %edi,%edi
    400006e9:	eb 19                	jmp    40000704 <flow_org_cost+0x94>
    400006eb:	0f 1f 44 00 00       	nopl   0x0(%rax,%rax,1)
    400006f0:	4c 29 c2             	sub    %r8,%rdx
    400006f3:	48 03 50 38          	add    0x38(%rax),%rdx
    400006f7:	48 83 c7 01          	add    $0x1,%rdi
    400006fb:	48 83 c0 40          	add    $0x40,%rax
    400006ff:	48 39 c1             	cmp    %rax,%rcx
    40000702:	74 23                	je     40000727 <flow_org_cost+0xb7>
    40000704:	48 83 78 30 00       	cmpq   $0x0,0x30(%rax)
    40000709:	74 f0                	je     400006fb <flow_org_cost+0x8b>
    4000070b:	48 8b 70 08          	mov    0x8(%rax),%rsi
    4000070f:	44 8b 4e 60          	mov    0x60(%rsi),%r9d
    40000713:	45 85 c9             	test   %r9d,%r9d
    40000716:	78 38                	js     40000750 <flow_org_cost+0xe0>
    40000718:	74 d6                	je     400006f0 <flow_org_cost+0x80>
    4000071a:	48 03 50 38          	add    0x38(%rax),%rdx
    4000071e:	48 83 c0 40          	add    $0x40,%rax
    40000722:	48 39 c1             	cmp    %rax,%rcx
    40000725:	75 dd                	jne    40000704 <flow_org_cost+0x94>
    40000727:	66 0f ef c0          	pxor   %xmm0,%xmm0
    4000072b:	66 0f ef c9          	pxor   %xmm1,%xmm1
    4000072f:	f2 48 0f 2a c7       	cvtsi2sd %rdi,%xmm0
    40000734:	f2 48 0f 2a ca       	cvtsi2sd %rdx,%xmm1
    40000739:	66 0f ef d2          	pxor   %xmm2,%xmm2
    4000073d:	f2 49 0f 2a d0       	cvtsi2sd %r8,%xmm2
    40000742:	f2 0f 59 c2          	mulsd  %xmm2,%xmm0
    40000746:	f2 0f 58 c1          	addsd  %xmm1,%xmm0
    4000074a:	c3                   	retq   
    4000074b:	0f 1f 44 00 00       	nopl   0x0(%rax,%rax,1)
    40000750:	48 8b 70 10          	mov    0x10(%rax),%rsi
    40000754:	8b 76 60             	mov    0x60(%rsi),%esi
    40000757:	85 f6                	test   %esi,%esi
    40000759:	7f a0                	jg     400006fb <flow_org_cost+0x8b>
    4000075b:	48 03 50 38          	add    0x38(%rax),%rdx
    4000075f:	eb bd                	jmp    4000071e <flow_org_cost+0xae>
    40000761:	48 8b b7 28 02 00 00 	mov    0x228(%rdi),%rsi
    40000768:	4c 8b 8f 30 02 00 00 	mov    0x230(%rdi),%r9
    4000076f:	48 8d 56 68          	lea    0x68(%rsi),%rdx
    40000773:	49 39 d1             	cmp    %rdx,%r9
    40000776:	0f 85 44 ff ff ff    	jne    400006c0 <flow_org_cost+0x50>
    4000077c:	66 0f ef c9          	pxor   %xmm1,%xmm1
    40000780:	4c 8b 87 10 02 00 00 	mov    0x210(%rdi),%r8
    40000787:	66 0f 28 c1          	movapd %xmm1,%xmm0
    4000078b:	eb ac                	jmp    40000739 <flow_org_cost+0xc9>
    4000078d:	0f 1f 00             	nopl   (%rax)

0000000040000790 <primal_feasible>:
    40000790:	41 57                	push   %r15
    40000792:	41 56                	push   %r14
    40000794:	41 55                	push   %r13
    40000796:	41 54                	push   %r12
    40000798:	49 89 fc             	mov    %rdi,%r12
    4000079b:	55                   	push   %rbp
    4000079c:	53                   	push   %rbx
    4000079d:	48 83 ec 08          	sub    $0x8,%rsp
    400007a1:	48 8b 87 28 02 00 00 	mov    0x228(%rdi),%rax
    400007a8:	4c 8b af 30 02 00 00 	mov    0x230(%rdi),%r13
    400007af:	4c 8b b7 48 02 00 00 	mov    0x248(%rdi),%r14
    400007b6:	4c 8b bf 50 02 00 00 	mov    0x250(%rdi),%r15
    400007bd:	48 8d 58 68          	lea    0x68(%rax),%rbx
    400007c1:	49 39 dd             	cmp    %rbx,%r13
    400007c4:	77 36                	ja     400007fc <primal_feasible+0x6c>
    400007c6:	e9 cc 00 00 00       	jmpq   40000897 <primal_feasible+0x107>
    400007cb:	0f 1f 44 00 00       	nopl   0x0(%rax,%rax,1)
    400007d0:	49 39 c7             	cmp    %rax,%r15
    400007d3:	76 34                	jbe    40000809 <primal_feasible+0x79>
    400007d5:	48 89 ea             	mov    %rbp,%rdx
    400007d8:	48 c1 fa 3f          	sar    $0x3f,%rdx
    400007dc:	48 89 d0             	mov    %rdx,%rax
    400007df:	48 31 e8             	xor    %rbp,%rax
    400007e2:	48 29 d0             	sub    %rdx,%rax
    400007e5:	49 3b 84 24 00 02 00 	cmp    0x200(%r12),%rax
    400007ec:	00 
    400007ed:	7f 79                	jg     40000868 <primal_feasible+0xd8>
    400007ef:	48 83 c3 68          	add    $0x68,%rbx
    400007f3:	49 39 dd             	cmp    %rbx,%r13
    400007f6:	0f 86 9b 00 00 00    	jbe    40000897 <primal_feasible+0x107>
    400007fc:	48 8b 43 30          	mov    0x30(%rbx),%rax
    40000800:	48 8b 6b 50          	mov    0x50(%rbx),%rbp
    40000804:	49 39 c6             	cmp    %rax,%r14
    40000807:	76 c7                	jbe    400007d0 <primal_feasible+0x40>
    40000809:	49 8b 84 24 00 02 00 	mov    0x200(%r12),%rax
    40000810:	00 
    40000811:	48 89 c2             	mov    %rax,%rdx
    40000814:	48 f7 da             	neg    %rdx
    40000817:	48 39 d5             	cmp    %rdx,%rbp
    4000081a:	7c 09                	jl     40000825 <primal_feasible+0x95>
    4000081c:	48 8d 55 ff          	lea    -0x1(%rbp),%rdx
    40000820:	48 39 d0             	cmp    %rdx,%rax
    40000823:	7d ca                	jge    400007ef <primal_feasible+0x5f>
    40000825:	48 8d 3d 30 fa 3f 00 	lea    0x3ffa30(%rip),%rdi        # 4040025c <data_start+0x25c>
    4000082c:	31 c0                	xor    %eax,%eax
    4000082e:	e8 cb 37 00 00       	callq  40003ffe <printf>
    40000833:	48 8d 3d a6 fa 3f 00 	lea    0x3ffaa6(%rip),%rdi        # 404002e0 <data_start+0x2e0>
    4000083a:	48 89 ee             	mov    %rbp,%rsi
    4000083d:	31 c0                	xor    %eax,%eax
    4000083f:	e8 ba 37 00 00       	callq  40003ffe <printf>
    40000844:	49 c7 84 24 e8 01 00 	movq   $0x0,0x1e8(%r12)
    4000084b:	00 00 00 00 00 
    40000850:	48 83 c4 08          	add    $0x8,%rsp
    40000854:	b8 01 00 00 00       	mov    $0x1,%eax
    40000859:	5b                   	pop    %rbx
    4000085a:	5d                   	pop    %rbp
    4000085b:	41 5c                	pop    %r12
    4000085d:	41 5d                	pop    %r13
    4000085f:	41 5e                	pop    %r14
    40000861:	41 5f                	pop    %r15
    40000863:	c3                   	retq   
    40000864:	0f 1f 40 00          	nopl   0x0(%rax)
    40000868:	48 8d 3d ed f9 3f 00 	lea    0x3ff9ed(%rip),%rdi        # 4040025c <data_start+0x25c>
    4000086f:	31 c0                	xor    %eax,%eax
    40000871:	48 83 c3 68          	add    $0x68,%rbx
    40000875:	e8 84 37 00 00       	callq  40003ffe <printf>
    4000087a:	8b 73 f8             	mov    -0x8(%rbx),%esi
    4000087d:	48 8d 3d 24 fa 3f 00 	lea    0x3ffa24(%rip),%rdi        # 404002a8 <data_start+0x2a8>
    40000884:	31 c0                	xor    %eax,%eax
    40000886:	48 89 ea             	mov    %rbp,%rdx
    40000889:	e8 70 37 00 00       	callq  40003ffe <printf>
    4000088e:	49 39 dd             	cmp    %rbx,%r13
    40000891:	0f 87 65 ff ff ff    	ja     400007fc <primal_feasible+0x6c>
    40000897:	49 c7 84 24 e8 01 00 	movq   $0x1,0x1e8(%r12)
    4000089e:	00 01 00 00 00 
    400008a3:	48 83 c4 08          	add    $0x8,%rsp
    400008a7:	31 c0                	xor    %eax,%eax
    400008a9:	5b                   	pop    %rbx
    400008aa:	5d                   	pop    %rbp
    400008ab:	41 5c                	pop    %r12
    400008ad:	41 5d                	pop    %r13
    400008af:	41 5e                	pop    %r14
    400008b1:	41 5f                	pop    %r15
    400008b3:	c3                   	retq   
    400008b4:	66 90                	xchg   %ax,%ax
    400008b6:	66 2e 0f 1f 84 00 00 	nopw   %cs:0x0(%rax,%rax,1)
    400008bd:	00 00 00 

00000000400008c0 <dual_feasible>:
    400008c0:	53                   	push   %rbx
    400008c1:	48 8b b7 40 02 00 00 	mov    0x240(%rdi),%rsi
    400008c8:	48 8b 87 38 02 00 00 	mov    0x238(%rdi),%rax
    400008cf:	48 39 c6             	cmp    %rax,%rsi
    400008d2:	77 23                	ja     400008f7 <dual_feasible+0x37>
    400008d4:	e9 97 00 00 00       	jmpq   40000970 <dual_feasible+0xb0>
    400008d9:	0f 1f 80 00 00 00 00 	nopl   0x0(%rax)
    400008e0:	83 f9 02             	cmp    $0x2,%ecx
    400008e3:	75 09                	jne    400008ee <dual_feasible+0x2e>
    400008e5:	48 3b 97 00 02 00 00 	cmp    0x200(%rdi),%rdx
    400008ec:	7f 35                	jg     40000923 <dual_feasible+0x63>
    400008ee:	48 83 c0 40          	add    $0x40,%rax
    400008f2:	48 39 c6             	cmp    %rax,%rsi
    400008f5:	76 79                	jbe    40000970 <dual_feasible+0xb0>
    400008f7:	48 8b 48 08          	mov    0x8(%rax),%rcx
    400008fb:	48 8b 10             	mov    (%rax),%rdx
    400008fe:	48 2b 11             	sub    (%rcx),%rdx
    40000901:	48 8b 48 10          	mov    0x10(%rax),%rcx
    40000905:	48 03 11             	add    (%rcx),%rdx
    40000908:	8b 48 18             	mov    0x18(%rax),%ecx
    4000090b:	85 c9                	test   %ecx,%ecx
    4000090d:	78 df                	js     400008ee <dual_feasible+0x2e>
    4000090f:	83 f9 01             	cmp    $0x1,%ecx
    40000912:	7f cc                	jg     400008e0 <dual_feasible+0x20>
    40000914:	48 8b 8f 00 02 00 00 	mov    0x200(%rdi),%rcx
    4000091b:	48 f7 d9             	neg    %rcx
    4000091e:	48 39 ca             	cmp    %rcx,%rdx
    40000921:	7d cb                	jge    400008ee <dual_feasible+0x2e>
    40000923:	48 8d 05 76 fa 3f 00 	lea    0x3ffa76(%rip),%rax        # 404003a0 <stderr>
    4000092a:	48 8d 3d 44 f9 3f 00 	lea    0x3ff944(%rip),%rdi        # 40400275 <data_start+0x275>
    40000931:	ba 16 00 00 00       	mov    $0x16,%edx
    40000936:	be 01 00 00 00       	mov    $0x1,%esi
    4000093b:	48 8b 18             	mov    (%rax),%rbx
    4000093e:	48 89 d9             	mov    %rbx,%rcx
    40000941:	e8 14 36 00 00       	callq  40003f5a <fwrite>
    40000946:	48 8d 3d 3f f9 3f 00 	lea    0x3ff93f(%rip),%rdi        # 4040028c <data_start+0x28c>
    4000094d:	48 89 d9             	mov    %rbx,%rcx
    40000950:	ba 16 00 00 00       	mov    $0x16,%edx
    40000955:	be 01 00 00 00       	mov    $0x1,%esi
    4000095a:	e8 fb 35 00 00       	callq  40003f5a <fwrite>
    4000095f:	b8 01 00 00 00       	mov    $0x1,%eax
    40000964:	5b                   	pop    %rbx
    40000965:	c3                   	retq   
    40000966:	66 2e 0f 1f 84 00 00 	nopw   %cs:0x0(%rax,%rax,1)
    4000096d:	00 00 00 
    40000970:	31 c0                	xor    %eax,%eax
    40000972:	5b                   	pop    %rbx
    40000973:	c3                   	retq   
    40000974:	66 90                	xchg   %ax,%ax
    40000976:	66 2e 0f 1f 84 00 00 	nopw   %cs:0x0(%rax,%rax,1)
    4000097d:	00 00 00 

0000000040000980 <getfree>:
    40000980:	53                   	push   %rbx
    40000981:	48 89 fb             	mov    %rdi,%rbx
    40000984:	48 8b bf 28 02 00 00 	mov    0x228(%rdi),%rdi
    4000098b:	48 85 ff             	test   %rdi,%rdi
    4000098e:	74 05                	je     40000995 <getfree+0x15>
    40000990:	e8 6b 21 00 00       	callq  40002b00 <free>
    40000995:	48 8b bb 38 02 00 00 	mov    0x238(%rbx),%rdi
    4000099c:	48 85 ff             	test   %rdi,%rdi
    4000099f:	74 05                	je     400009a6 <getfree+0x26>
    400009a1:	e8 5a 21 00 00       	callq  40002b00 <free>
    400009a6:	48 8b bb 48 02 00 00 	mov    0x248(%rbx),%rdi
    400009ad:	48 85 ff             	test   %rdi,%rdi
    400009b0:	74 05                	je     400009b7 <getfree+0x37>
    400009b2:	e8 49 21 00 00       	callq  40002b00 <free>
    400009b7:	48 c7 83 30 02 00 00 	movq   $0x0,0x230(%rbx)
    400009be:	00 00 00 00 
    400009c2:	48 c7 83 28 02 00 00 	movq   $0x0,0x228(%rbx)
    400009c9:	00 00 00 00 
    400009cd:	31 c0                	xor    %eax,%eax
    400009cf:	48 c7 83 40 02 00 00 	movq   $0x0,0x240(%rbx)
    400009d6:	00 00 00 00 
    400009da:	48 c7 83 38 02 00 00 	movq   $0x0,0x238(%rbx)
    400009e1:	00 00 00 00 
    400009e5:	48 c7 83 50 02 00 00 	movq   $0x0,0x250(%rbx)
    400009ec:	00 00 00 00 
    400009f0:	48 c7 83 48 02 00 00 	movq   $0x0,0x248(%rbx)
    400009f7:	00 00 00 00 
    400009fb:	5b                   	pop    %rbx
    400009fc:	c3                   	retq   
    400009fd:	0f 1f 00             	nopl   (%rax)

0000000040000a00 <read_min>:
    40000a00:	41 57                	push   %r15
    40000a02:	41 56                	push   %r14
    40000a04:	48 8d 35 f4 f8 3f 00 	lea    0x3ff8f4(%rip),%rsi        # 404002ff <data_start+0x2ff>
    40000a0b:	41 55                	push   %r13
    40000a0d:	41 54                	push   %r12
    40000a0f:	49 89 fd             	mov    %rdi,%r13
    40000a12:	55                   	push   %rbp
    40000a13:	53                   	push   %rbx
    40000a14:	48 81 ec 18 01 00 00 	sub    $0x118,%rsp
    40000a1b:	e8 5e 33 00 00       	callq  40003d7e <fopen>
    40000a20:	48 85 c0             	test   %rax,%rax
    40000a23:	48 89 04 24          	mov    %rax,(%rsp)
    40000a27:	0f 84 fa 02 00 00    	je     40000d27 <read_min+0x327>
    40000a2d:	48 8d 6c 24 40       	lea    0x40(%rsp),%rbp
    40000a32:	48 8b 14 24          	mov    (%rsp),%rdx
    40000a36:	be c8 00 00 00       	mov    $0xc8,%esi
    40000a3b:	48 89 ef             	mov    %rbp,%rdi
    40000a3e:	e8 ed 31 00 00       	callq  40003c30 <fgets>
    40000a43:	48 8d 44 24 30       	lea    0x30(%rsp),%rax
    40000a48:	48 8d 7c 24 28       	lea    0x28(%rsp),%rdi
    40000a4d:	48 8d 35 cf f8 3f 00 	lea    0x3ff8cf(%rip),%rsi        # 40400323 <data_start+0x323>
    40000a54:	48 89 44 24 10       	mov    %rax,0x10(%rsp)
    40000a59:	48 89 7c 24 08       	mov    %rdi,0x8(%rsp)
    40000a5e:	48 89 c1             	mov    %rax,%rcx
    40000a61:	48 89 fa             	mov    %rdi,%rdx
    40000a64:	31 c0                	xor    %eax,%eax
    40000a66:	48 89 ef             	mov    %rbp,%rdi
    40000a69:	e8 bf 36 00 00       	callq  4000412d <sscanf>
    40000a6e:	83 f8 02             	cmp    $0x2,%eax
    40000a71:	0f 85 b0 02 00 00    	jne    40000d27 <read_min+0x327>
    40000a77:	48 8b 44 24 28       	mov    0x28(%rsp),%rax
    40000a7c:	48 8b 54 24 30       	mov    0x30(%rsp),%rdx
    40000a81:	48 8d 3c 00          	lea    (%rax,%rax,1),%rdi
    40000a85:	49 89 85 98 01 00 00 	mov    %rax,0x198(%r13)
    40000a8c:	49 89 95 b0 01 00 00 	mov    %rdx,0x1b0(%r13)
    40000a93:	4c 8d 3c 38          	lea    (%rax,%rdi,1),%r15
    40000a97:	4c 8d 67 01          	lea    0x1(%rdi),%r12
    40000a9b:	49 01 d7             	add    %rdx,%r15
    40000a9e:	48 3d 98 3a 00 00    	cmp    $0x3a98,%rax
    40000aa4:	4d 89 a5 90 01 00 00 	mov    %r12,0x190(%r13)
    40000aab:	4d 89 bd a8 01 00 00 	mov    %r15,0x1a8(%r13)
    40000ab2:	0f 8e 88 02 00 00    	jle    40000d40 <read_min+0x340>
    40000ab8:	b8 00 00 a1 01       	mov    $0x1a10000,%eax
    40000abd:	49 c7 85 a0 01 00 00 	movq   $0x1a10000,0x1a0(%r13)
    40000ac4:	00 00 a1 01 
    40000ac8:	49 c7 85 c8 01 00 00 	movq   $0x1b8faa0,0x1c8(%r13)
    40000acf:	a0 fa b8 01 
    40000ad3:	4c 29 f8             	sub    %r15,%rax
    40000ad6:	bb 00 00 a1 01       	mov    $0x1a10000,%ebx
    40000adb:	48 83 c7 02          	add    $0x2,%rdi
    40000adf:	be 68 00 00 00       	mov    $0x68,%esi
    40000ae4:	49 89 85 c0 01 00 00 	mov    %rax,0x1c0(%r13)
    40000aeb:	e8 b0 19 00 00       	callq  400024a0 <calloc>
    40000af0:	be 40 00 00 00       	mov    $0x40,%esi
    40000af5:	4c 89 e7             	mov    %r12,%rdi
    40000af8:	49 89 85 28 02 00 00 	mov    %rax,0x228(%r13)
    40000aff:	49 89 c6             	mov    %rax,%r14
    40000b02:	e8 99 19 00 00       	callq  400024a0 <calloc>
    40000b07:	be 40 00 00 00       	mov    $0x40,%esi
    40000b0c:	48 89 df             	mov    %rbx,%rdi
    40000b0f:	49 89 85 48 02 00 00 	mov    %rax,0x248(%r13)
    40000b16:	48 89 44 24 18       	mov    %rax,0x18(%rsp)
    40000b1b:	e8 80 19 00 00       	callq  400024a0 <calloc>
    40000b20:	48 85 c0             	test   %rax,%rax
    40000b23:	48 89 c3             	mov    %rax,%rbx
    40000b26:	49 89 85 38 02 00 00 	mov    %rax,0x238(%r13)
    40000b2d:	40 0f 94 c6          	sete   %sil
    40000b31:	4d 85 f6             	test   %r14,%r14
    40000b34:	0f 94 c0             	sete   %al
    40000b37:	40 08 c6             	or     %al,%sil
    40000b3a:	0f 85 bb 03 00 00    	jne    40000efb <read_min+0x4fb>
    40000b40:	48 8b 54 24 18       	mov    0x18(%rsp),%rdx
    40000b45:	48 85 d2             	test   %rdx,%rdx
    40000b48:	0f 84 ad 03 00 00    	je     40000efb <read_min+0x4fb>
    40000b4e:	49 8d 44 24 01       	lea    0x1(%r12),%rax
    40000b53:	49 8b bd 98 01 00 00 	mov    0x198(%r13),%rdi
    40000b5a:	49 c1 e7 06          	shl    $0x6,%r15
    40000b5e:	49 01 df             	add    %rbx,%r15
    40000b61:	48 8d 34 40          	lea    (%rax,%rax,2),%rsi
    40000b65:	4d 89 bd 40 02 00 00 	mov    %r15,0x240(%r13)
    40000b6c:	48 8d 04 b0          	lea    (%rax,%rsi,4),%rax
    40000b70:	49 8d 04 c6          	lea    (%r14,%rax,8),%rax
    40000b74:	49 89 85 30 02 00 00 	mov    %rax,0x230(%r13)
    40000b7b:	4c 89 e0             	mov    %r12,%rax
    40000b7e:	48 c1 e0 06          	shl    $0x6,%rax
    40000b82:	48 01 d0             	add    %rdx,%rax
    40000b85:	48 85 ff             	test   %rdi,%rdi
    40000b88:	49 89 85 50 02 00 00 	mov    %rax,0x250(%r13)
    40000b8f:	0f 8e 5b 03 00 00    	jle    40000ef0 <read_min+0x4f0>
    40000b95:	4c 89 e8             	mov    %r13,%rax
    40000b98:	41 bc 01 00 00 00    	mov    $0x1,%r12d
    40000b9e:	4d 89 f5             	mov    %r14,%r13
    40000ba1:	49 89 c7             	mov    %rax,%r15
    40000ba4:	e9 49 01 00 00       	jmpq   40000cf2 <read_min+0x2f2>
    40000ba9:	0f 1f 80 00 00 00 00 	nopl   0x0(%rax)
    40000bb0:	48 8b 4c 24 28       	mov    0x28(%rsp),%rcx
    40000bb5:	48 8b 54 24 30       	mov    0x30(%rsp),%rdx
    40000bba:	48 39 d1             	cmp    %rdx,%rcx
    40000bbd:	0f 8f 64 01 00 00    	jg     40000d27 <read_min+0x327>
    40000bc3:	49 8b bf 98 01 00 00 	mov    0x198(%r15),%rdi
    40000bca:	44 89 e0             	mov    %r12d,%eax
    40000bcd:	49 c7 85 b8 00 00 00 	movq   $0xffffffffffffffff,0xb8(%r13)
    40000bd4:	ff ff ff ff 
    40000bd8:	f7 d8                	neg    %eax
    40000bda:	41 b8 80 96 98 00    	mov    $0x989680,%r8d
    40000be0:	49 8d 75 68          	lea    0x68(%r13),%rsi
    40000be4:	41 89 85 c8 00 00 00 	mov    %eax,0xc8(%r13)
    40000beb:	48 c7 43 40 0f 00 00 	movq   $0xf,0x40(%rbx)
    40000bf2:	00 
    40000bf3:	4a 8d 04 27          	lea    (%rdi,%r12,1),%rax
    40000bf7:	48 89 73 10          	mov    %rsi,0x10(%rbx)
    40000bfb:	48 c7 43 78 0f 00 00 	movq   $0xf,0x78(%rbx)
    40000c02:	00 
    40000c03:	48 89 b3 88 00 00 00 	mov    %rsi,0x88(%rbx)
    40000c0a:	4c 8d 1c 40          	lea    (%rax,%rax,2),%r11
    40000c0e:	4a 8d 04 98          	lea    (%rax,%r11,4),%rax
    40000c12:	49 8d 04 c6          	lea    (%r14,%rax,8),%rax
    40000c16:	44 89 60 60          	mov    %r12d,0x60(%rax)
    40000c1a:	48 c7 40 50 01 00 00 	movq   $0x1,0x50(%rax)
    40000c21:	00 
    40000c22:	41 89 8d cc 00 00 00 	mov    %ecx,0xcc(%r13)
    40000c29:	89 50 64             	mov    %edx,0x64(%rax)
    40000c2c:	49 8b 97 90 01 00 00 	mov    0x190(%r15),%rdx
    40000c33:	48 89 43 48          	mov    %rax,0x48(%rbx)
    40000c37:	48 89 83 90 00 00 00 	mov    %rax,0x90(%rbx)
    40000c3e:	48 8d 0c 52          	lea    (%rdx,%rdx,2),%rcx
    40000c42:	48 8d 14 8a          	lea    (%rdx,%rcx,4),%rdx
    40000c46:	49 8d 0c d6          	lea    (%r14,%rdx,8),%rcx
    40000c4a:	49 8b 97 10 02 00 00 	mov    0x210(%r15),%rdx
    40000c51:	48 89 4b 08          	mov    %rcx,0x8(%rbx)
    40000c55:	48 89 4b 50          	mov    %rcx,0x50(%rbx)
    40000c59:	4c 8d 5a 0f          	lea    0xf(%rdx),%r11
    40000c5d:	48 81 fa 80 96 98 00 	cmp    $0x989680,%rdx
    40000c64:	49 0f 4c d0          	cmovl  %r8,%rdx
    40000c68:	49 83 c4 01          	add    $0x1,%r12
    40000c6c:	4c 89 1b             	mov    %r11,(%rbx)
    40000c6f:	4c 89 5b 38          	mov    %r11,0x38(%rbx)
    40000c73:	48 01 d2             	add    %rdx,%rdx
    40000c76:	4c 8b 59 38          	mov    0x38(%rcx),%r11
    40000c7a:	48 89 59 38          	mov    %rbx,0x38(%rcx)
    40000c7e:	48 89 93 80 00 00 00 	mov    %rdx,0x80(%rbx)
    40000c85:	4c 89 5b 20          	mov    %r11,0x20(%rbx)
    40000c89:	4d 8b 9d a8 00 00 00 	mov    0xa8(%r13),%r11
    40000c90:	49 89 9d a8 00 00 00 	mov    %rbx,0xa8(%r13)
    40000c97:	4c 8b 48 38          	mov    0x38(%rax),%r9
    40000c9b:	4c 8b 51 40          	mov    0x40(%rcx),%r10
    40000c9f:	4c 89 5b 28          	mov    %r11,0x28(%rbx)
    40000ca3:	4c 8d 5b 40          	lea    0x40(%rbx),%r11
    40000ca7:	4c 89 4b 60          	mov    %r9,0x60(%rbx)
    40000cab:	4c 89 53 68          	mov    %r10,0x68(%rbx)
    40000caf:	4c 89 58 38          	mov    %r11,0x38(%rax)
    40000cb3:	4c 89 59 40          	mov    %r11,0x40(%rcx)
    40000cb7:	48 89 93 b8 00 00 00 	mov    %rdx,0xb8(%rbx)
    40000cbe:	48 8d 8b 80 00 00 00 	lea    0x80(%rbx),%rcx
    40000cc5:	49 8b 95 a0 00 00 00 	mov    0xa0(%r13),%rdx
    40000ccc:	48 81 c3 c0 00 00 00 	add    $0xc0,%rbx
    40000cd3:	49 89 8d a0 00 00 00 	mov    %rcx,0xa0(%r13)
    40000cda:	49 89 f5             	mov    %rsi,%r13
    40000cdd:	48 89 53 e0          	mov    %rdx,-0x20(%rbx)
    40000ce1:	48 8b 50 40          	mov    0x40(%rax),%rdx
    40000ce5:	48 89 48 40          	mov    %rcx,0x40(%rax)
    40000ce9:	48 89 53 e8          	mov    %rdx,-0x18(%rbx)
    40000ced:	4c 39 e7             	cmp    %r12,%rdi
    40000cf0:	7c 6e                	jl     40000d60 <read_min+0x360>
    40000cf2:	48 8b 14 24          	mov    (%rsp),%rdx
    40000cf6:	be c8 00 00 00       	mov    $0xc8,%esi
    40000cfb:	48 89 ef             	mov    %rbp,%rdi
    40000cfe:	e8 2d 2f 00 00       	callq  40003c30 <fgets>
    40000d03:	48 8b 4c 24 10       	mov    0x10(%rsp),%rcx
    40000d08:	48 8b 54 24 08       	mov    0x8(%rsp),%rdx
    40000d0d:	48 8d 35 0f f6 3f 00 	lea    0x3ff60f(%rip),%rsi        # 40400323 <data_start+0x323>
    40000d14:	31 c0                	xor    %eax,%eax
    40000d16:	48 89 ef             	mov    %rbp,%rdi
    40000d19:	e8 0f 34 00 00       	callq  4000412d <sscanf>
    40000d1e:	83 f8 02             	cmp    $0x2,%eax
    40000d21:	0f 84 89 fe ff ff    	je     40000bb0 <read_min+0x1b0>
    40000d27:	48 c7 c0 ff ff ff ff 	mov    $0xffffffffffffffff,%rax
    40000d2e:	48 81 c4 18 01 00 00 	add    $0x118,%rsp
    40000d35:	5b                   	pop    %rbx
    40000d36:	5d                   	pop    %rbp
    40000d37:	41 5c                	pop    %r12
    40000d39:	41 5d                	pop    %r13
    40000d3b:	41 5e                	pop    %r14
    40000d3d:	41 5f                	pop    %r15
    40000d3f:	c3                   	retq   
    40000d40:	4d 89 bd a0 01 00 00 	mov    %r15,0x1a0(%r13)
    40000d47:	49 c7 85 c8 01 00 00 	movq   $0x2dc6c0,0x1c8(%r13)
    40000d4e:	c0 c6 2d 00 
    40000d52:	4c 89 fb             	mov    %r15,%rbx
    40000d55:	31 c0                	xor    %eax,%eax
    40000d57:	e9 7f fd ff ff       	jmpq   40000adb <read_min+0xdb>
    40000d5c:	0f 1f 40 00          	nopl   0x0(%rax)
    40000d60:	4d 89 fd             	mov    %r15,%r13
    40000d63:	48 83 c7 01          	add    $0x1,%rdi
    40000d67:	4c 39 e7             	cmp    %r12,%rdi
    40000d6a:	75 bb                	jne    40000d27 <read_min+0x327>
    40000d6c:	49 83 bd b0 01 00 00 	cmpq   $0x0,0x1b0(%r13)
    40000d73:	00 
    40000d74:	0f 8e c1 00 00 00    	jle    40000e3b <read_min+0x43b>
    40000d7a:	4c 8d 64 24 38       	lea    0x38(%rsp),%r12
    40000d7f:	45 31 ff             	xor    %r15d,%r15d
    40000d82:	4c 89 e0             	mov    %r12,%rax
    40000d85:	4d 89 fc             	mov    %r15,%r12
    40000d88:	4d 89 ef             	mov    %r13,%r15
    40000d8b:	49 89 c5             	mov    %rax,%r13
    40000d8e:	eb 66                	jmp    40000df6 <read_min+0x3f6>
    40000d90:	48 8b 44 24 28       	mov    0x28(%rsp),%rax
    40000d95:	49 03 87 98 01 00 00 	add    0x198(%r15),%rax
    40000d9c:	49 83 c4 01          	add    $0x1,%r12
    40000da0:	48 8d 14 40          	lea    (%rax,%rax,2),%rdx
    40000da4:	48 8d 04 90          	lea    (%rax,%rdx,4),%rax
    40000da8:	49 8d 14 c6          	lea    (%r14,%rax,8),%rdx
    40000dac:	48 8b 44 24 30       	mov    0x30(%rsp),%rax
    40000db1:	48 89 53 08          	mov    %rdx,0x8(%rbx)
    40000db5:	48 8d 0c 40          	lea    (%rax,%rax,2),%rcx
    40000db9:	48 8d 04 88          	lea    (%rax,%rcx,4),%rax
    40000dbd:	48 8b 4c 24 38       	mov    0x38(%rsp),%rcx
    40000dc2:	49 8d 04 c6          	lea    (%r14,%rax,8),%rax
    40000dc6:	48 89 4b 38          	mov    %rcx,0x38(%rbx)
    40000dca:	48 89 0b             	mov    %rcx,(%rbx)
    40000dcd:	48 8b 4a 38          	mov    0x38(%rdx),%rcx
    40000dd1:	48 89 5a 38          	mov    %rbx,0x38(%rdx)
    40000dd5:	48 8b 50 40          	mov    0x40(%rax),%rdx
    40000dd9:	48 89 43 10          	mov    %rax,0x10(%rbx)
    40000ddd:	48 89 58 40          	mov    %rbx,0x40(%rax)
    40000de1:	48 83 c3 40          	add    $0x40,%rbx
    40000de5:	48 89 4b e0          	mov    %rcx,-0x20(%rbx)
    40000de9:	48 89 53 e8          	mov    %rdx,-0x18(%rbx)
    40000ded:	4d 39 a7 b0 01 00 00 	cmp    %r12,0x1b0(%r15)
    40000df4:	7e 42                	jle    40000e38 <read_min+0x438>
    40000df6:	48 8b 14 24          	mov    (%rsp),%rdx
    40000dfa:	be c8 00 00 00       	mov    $0xc8,%esi
    40000dff:	48 89 ef             	mov    %rbp,%rdi
    40000e02:	e8 29 2e 00 00       	callq  40003c30 <fgets>
    40000e07:	48 8b 4c 24 10       	mov    0x10(%rsp),%rcx
    40000e0c:	48 8b 54 24 08       	mov    0x8(%rsp),%rdx
    40000e11:	48 8d 35 07 f5 3f 00 	lea    0x3ff507(%rip),%rsi        # 4040031f <data_start+0x31f>
    40000e18:	31 c0                	xor    %eax,%eax
    40000e1a:	4d 89 e8             	mov    %r13,%r8
    40000e1d:	48 89 ef             	mov    %rbp,%rdi
    40000e20:	e8 08 33 00 00       	callq  4000412d <sscanf>
    40000e25:	83 f8 03             	cmp    $0x3,%eax
    40000e28:	0f 84 62 ff ff ff    	je     40000d90 <read_min+0x390>
    40000e2e:	e9 f4 fe ff ff       	jmpq   40000d27 <read_min+0x327>
    40000e33:	0f 1f 44 00 00       	nopl   0x0(%rax,%rax,1)
    40000e38:	4d 89 fd             	mov    %r15,%r13
    40000e3b:	49 39 9d 40 02 00 00 	cmp    %rbx,0x240(%r13)
    40000e42:	74 3e                	je     40000e82 <read_min+0x482>
    40000e44:	49 8b 85 38 02 00 00 	mov    0x238(%r13),%rax
    40000e4b:	49 89 9d 40 02 00 00 	mov    %rbx,0x240(%r13)
    40000e52:	49 c7 85 a8 01 00 00 	movq   $0x0,0x1a8(%r13)
    40000e59:	00 00 00 00 
    40000e5d:	48 39 d8             	cmp    %rbx,%rax
    40000e60:	0f 83 ae 00 00 00    	jae    40000f14 <read_min+0x514>
    40000e66:	48 f7 d0             	not    %rax
    40000e69:	48 01 c3             	add    %rax,%rbx
    40000e6c:	48 c1 eb 06          	shr    $0x6,%rbx
    40000e70:	48 8d 43 01          	lea    0x1(%rbx),%rax
    40000e74:	49 89 85 a8 01 00 00 	mov    %rax,0x1a8(%r13)
    40000e7b:	49 89 85 b0 01 00 00 	mov    %rax,0x1b0(%r13)
    40000e82:	48 8b 3c 24          	mov    (%rsp),%rdi
    40000e86:	e8 0f 2c 00 00       	callq  40003a9a <fclose>
    40000e8b:	49 8b 8d 98 01 00 00 	mov    0x198(%r13),%rcx
    40000e92:	41 c6 85 c8 00 00 00 	movb   $0x0,0xc8(%r13)
    40000e99:	00 
    40000e9a:	48 85 c9             	test   %rcx,%rcx
    40000e9d:	7e 4a                	jle    40000ee9 <read_min+0x4e9>
    40000e9f:	49 81 bd 10 02 00 00 	cmpq   $0x989680,0x210(%r13)
    40000ea6:	80 96 98 00 
    40000eaa:	ba 80 96 98 00       	mov    $0x989680,%edx
    40000eaf:	49 8b 85 38 02 00 00 	mov    0x238(%r13),%rax
    40000eb6:	49 0f 4d 95 10 02 00 	cmovge 0x210(%r13),%rdx
    40000ebd:	00 
    40000ebe:	48 8d 0c 49          	lea    (%rcx,%rcx,2),%rcx
    40000ec2:	48 c1 e1 06          	shl    $0x6,%rcx
    40000ec6:	48 01 c1             	add    %rax,%rcx
    40000ec9:	48 f7 da             	neg    %rdx
    40000ecc:	48 01 d2             	add    %rdx,%rdx
    40000ecf:	90                   	nop
    40000ed0:	48 89 90 80 00 00 00 	mov    %rdx,0x80(%rax)
    40000ed7:	48 89 90 b8 00 00 00 	mov    %rdx,0xb8(%rax)
    40000ede:	48 05 c0 00 00 00    	add    $0xc0,%rax
    40000ee4:	48 39 c8             	cmp    %rcx,%rax
    40000ee7:	75 e7                	jne    40000ed0 <read_min+0x4d0>
    40000ee9:	31 c0                	xor    %eax,%eax
    40000eeb:	e9 3e fe ff ff       	jmpq   40000d2e <read_min+0x32e>
    40000ef0:	41 bc 01 00 00 00    	mov    $0x1,%r12d
    40000ef6:	e9 68 fe ff ff       	jmpq   40000d63 <read_min+0x363>
    40000efb:	48 8d 3d ff f3 3f 00 	lea    0x3ff3ff(%rip),%rdi        # 40400301 <data_start+0x301>
    40000f02:	e8 a1 31 00 00       	callq  400040a8 <puts>
    40000f07:	4c 89 ef             	mov    %r13,%rdi
    40000f0a:	e8 71 fa ff ff       	callq  40000980 <getfree>
    40000f0f:	e9 13 fe ff ff       	jmpq   40000d27 <read_min+0x327>
    40000f14:	31 c0                	xor    %eax,%eax
    40000f16:	e9 60 ff ff ff       	jmpq   40000e7b <read_min+0x47b>
    40000f1b:	0f 1f 44 00 00       	nopl   0x0(%rax,%rax,1)

0000000040000f20 <resize_prob>:
    40000f20:	53                   	push   %rbx
    40000f21:	48 8b 87 c8 01 00 00 	mov    0x1c8(%rdi),%rax
    40000f28:	48 89 fb             	mov    %rdi,%rbx
    40000f2b:	48 01 87 c0 01 00 00 	add    %rax,0x1c0(%rdi)
    40000f32:	48 89 c6             	mov    %rax,%rsi
    40000f35:	48 03 b7 a0 01 00 00 	add    0x1a0(%rdi),%rsi
    40000f3c:	48 89 b7 a0 01 00 00 	mov    %rsi,0x1a0(%rdi)
    40000f43:	48 8b bf 38 02 00 00 	mov    0x238(%rdi),%rdi
    40000f4a:	48 c1 e6 06          	shl    $0x6,%rsi
    40000f4e:	e8 4d 27 00 00       	callq  400036a0 <realloc>
    40000f53:	48 85 c0             	test   %rax,%rax
    40000f56:	74 57                	je     40000faf <resize_prob+0x8f>
    40000f58:	48 8b 93 a8 01 00 00 	mov    0x1a8(%rbx),%rdx
    40000f5f:	48 8b 8b 28 02 00 00 	mov    0x228(%rbx),%rcx
    40000f66:	48 89 c6             	mov    %rax,%rsi
    40000f69:	48 2b b3 38 02 00 00 	sub    0x238(%rbx),%rsi
    40000f70:	48 89 83 38 02 00 00 	mov    %rax,0x238(%rbx)
    40000f77:	48 c1 e2 06          	shl    $0x6,%rdx
    40000f7b:	48 01 d0             	add    %rdx,%rax
    40000f7e:	48 8b 93 30 02 00 00 	mov    0x230(%rbx),%rdx
    40000f85:	48 89 83 40 02 00 00 	mov    %rax,0x240(%rbx)
    40000f8c:	48 8d 41 68          	lea    0x68(%rcx),%rax
    40000f90:	48 39 d0             	cmp    %rdx,%rax
    40000f93:	73 16                	jae    40000fab <resize_prob+0x8b>
    40000f95:	0f 1f 00             	nopl   (%rax)
    40000f98:	48 3b 48 18          	cmp    0x18(%rax),%rcx
    40000f9c:	74 04                	je     40000fa2 <resize_prob+0x82>
    40000f9e:	48 01 70 30          	add    %rsi,0x30(%rax)
    40000fa2:	48 83 c0 68          	add    $0x68,%rax
    40000fa6:	48 39 c2             	cmp    %rax,%rdx
    40000fa9:	77 ed                	ja     40000f98 <resize_prob+0x78>
    40000fab:	31 c0                	xor    %eax,%eax
    40000fad:	5b                   	pop    %rbx
    40000fae:	c3                   	retq   
    40000faf:	48 8d 3d 7a f3 3f 00 	lea    0x3ff37a(%rip),%rdi        # 40400330 <data_start+0x330>
    40000fb6:	48 89 de             	mov    %rbx,%rsi
    40000fb9:	e8 40 30 00 00       	callq  40003ffe <printf>
    40000fbe:	48 8d 05 e3 f3 3f 00 	lea    0x3ff3e3(%rip),%rax        # 404003a8 <stdout>
    40000fc5:	48 8b 38             	mov    (%rax),%rdi
    40000fc8:	e8 7c 2b 00 00       	callq  40003b49 <fflush>
    40000fcd:	48 c7 c0 ff ff ff ff 	mov    $0xffffffffffffffff,%rax
    40000fd4:	5b                   	pop    %rbx
    40000fd5:	c3                   	retq   
    40000fd6:	66 2e 0f 1f 84 00 00 	nopw   %cs:0x0(%rax,%rax,1)
    40000fdd:	00 00 00 

0000000040000fe0 <insert_new_arc>:
    40000fe0:	48 89 f0             	mov    %rsi,%rax
    40000fe3:	48 83 c6 01          	add    $0x1,%rsi
    40000fe7:	48 c1 e0 06          	shl    $0x6,%rax
    40000feb:	48 01 f8             	add    %rdi,%rax
    40000fee:	48 83 fe 01          	cmp    $0x1,%rsi
    40000ff2:	48 89 50 08          	mov    %rdx,0x8(%rax)
    40000ff6:	48 89 48 10          	mov    %rcx,0x10(%rax)
    40000ffa:	4c 89 40 38          	mov    %r8,0x38(%rax)
    40000ffe:	4c 89 00             	mov    %r8,(%rax)
    40001001:	4c 89 48 30          	mov    %r9,0x30(%rax)
    40001005:	0f 84 91 00 00 00    	je     4000109c <insert_new_arc+0xbc>
    4000100b:	49 89 f3             	mov    %rsi,%r11
    4000100e:	53                   	push   %rbx
    4000100f:	49 c1 eb 3f          	shr    $0x3f,%r11
    40001013:	49 01 f3             	add    %rsi,%r11
    40001016:	49 d1 fb             	sar    %r11
    40001019:	4c 89 d8             	mov    %r11,%rax
    4000101c:	48 c1 e0 06          	shl    $0x6,%rax
    40001020:	48 8d 44 07 c0       	lea    -0x40(%rdi,%rax,1),%rax
    40001025:	48 8b 58 30          	mov    0x30(%rax),%rbx
    40001029:	49 39 d9             	cmp    %rbx,%r9
    4000102c:	7f 2a                	jg     40001058 <insert_new_arc+0x78>
    4000102e:	eb 6b                	jmp    4000109b <insert_new_arc+0xbb>
    40001030:	4d 89 da             	mov    %r11,%r10
    40001033:	4c 89 de             	mov    %r11,%rsi
    40001036:	49 c1 ea 3f          	shr    $0x3f,%r10
    4000103a:	4d 01 da             	add    %r11,%r10
    4000103d:	49 d1 fa             	sar    %r10
    40001040:	4c 89 d0             	mov    %r10,%rax
    40001043:	48 c1 e0 06          	shl    $0x6,%rax
    40001047:	48 8d 44 07 c0       	lea    -0x40(%rdi,%rax,1),%rax
    4000104c:	48 8b 58 30          	mov    0x30(%rax),%rbx
    40001050:	49 39 d9             	cmp    %rbx,%r9
    40001053:	7e 46                	jle    4000109b <insert_new_arc+0xbb>
    40001055:	4d 89 d3             	mov    %r10,%r11
    40001058:	4c 8b 50 08          	mov    0x8(%rax),%r10
    4000105c:	48 c1 e6 06          	shl    $0x6,%rsi
    40001060:	49 83 fb 01          	cmp    $0x1,%r11
    40001064:	48 8d 74 37 c0       	lea    -0x40(%rdi,%rsi,1),%rsi
    40001069:	4c 89 56 08          	mov    %r10,0x8(%rsi)
    4000106d:	4c 8b 50 10          	mov    0x10(%rax),%r10
    40001071:	4c 89 56 10          	mov    %r10,0x10(%rsi)
    40001075:	4c 8b 10             	mov    (%rax),%r10
    40001078:	4c 89 16             	mov    %r10,(%rsi)
    4000107b:	4c 8b 10             	mov    (%rax),%r10
    4000107e:	48 89 5e 30          	mov    %rbx,0x30(%rsi)
    40001082:	4c 89 56 38          	mov    %r10,0x38(%rsi)
    40001086:	48 89 50 08          	mov    %rdx,0x8(%rax)
    4000108a:	48 89 48 10          	mov    %rcx,0x10(%rax)
    4000108e:	4c 89 00             	mov    %r8,(%rax)
    40001091:	4c 89 40 38          	mov    %r8,0x38(%rax)
    40001095:	4c 89 48 30          	mov    %r9,0x30(%rax)
    40001099:	75 95                	jne    40001030 <insert_new_arc+0x50>
    4000109b:	5b                   	pop    %rbx
    4000109c:	f3 c3                	repz retq 
    4000109e:	66 90                	xchg   %ax,%ax

00000000400010a0 <replace_weaker_arc>:
    400010a0:	45 31 d2             	xor    %r10d,%r10d
    400010a3:	48 8b 86 b0 00 00 00 	mov    0xb0(%rsi),%rax
    400010aa:	48 39 46 70          	cmp    %rax,0x70(%rsi)
    400010ae:	41 56                	push   %r14
    400010b0:	48 89 56 08          	mov    %rdx,0x8(%rsi)
    400010b4:	53                   	push   %rbx
    400010b5:	48 89 4e 10          	mov    %rcx,0x10(%rsi)
    400010b9:	48 8b 9f c0 01 00 00 	mov    0x1c0(%rdi),%rbx
    400010c0:	4c 89 46 38          	mov    %r8,0x38(%rsi)
    400010c4:	bf 01 00 00 00       	mov    $0x1,%edi
    400010c9:	41 0f 9e c2          	setle  %r10b
    400010cd:	4c 89 06             	mov    %r8,(%rsi)
    400010d0:	4c 89 4e 30          	mov    %r9,0x30(%rsi)
    400010d4:	49 83 c2 02          	add    $0x2,%r10
    400010d8:	e9 80 00 00 00       	jmpq   4000115d <replace_weaker_arc+0xbd>
    400010dd:	0f 1f 00             	nopl   (%rax)
    400010e0:	4c 89 d0             	mov    %r10,%rax
    400010e3:	48 c1 e0 06          	shl    $0x6,%rax
    400010e7:	48 8d 44 06 c0       	lea    -0x40(%rsi,%rax,1),%rax
    400010ec:	4c 8b 58 30          	mov    0x30(%rax),%r11
    400010f0:	4d 39 d9             	cmp    %r11,%r9
    400010f3:	7d 71                	jge    40001166 <replace_weaker_arc+0xc6>
    400010f5:	4c 8b 70 08          	mov    0x8(%rax),%r14
    400010f9:	48 c1 e7 06          	shl    $0x6,%rdi
    400010fd:	48 8d 7c 3e c0       	lea    -0x40(%rsi,%rdi,1),%rdi
    40001102:	4c 89 77 08          	mov    %r14,0x8(%rdi)
    40001106:	4c 8b 70 10          	mov    0x10(%rax),%r14
    4000110a:	4c 89 77 10          	mov    %r14,0x10(%rdi)
    4000110e:	4c 8b 30             	mov    (%rax),%r14
    40001111:	4c 89 37             	mov    %r14,(%rdi)
    40001114:	4c 8b 30             	mov    (%rax),%r14
    40001117:	4c 89 5f 30          	mov    %r11,0x30(%rdi)
    4000111b:	4c 89 77 38          	mov    %r14,0x38(%rdi)
    4000111f:	48 89 50 08          	mov    %rdx,0x8(%rax)
    40001123:	48 89 48 10          	mov    %rcx,0x10(%rax)
    40001127:	4c 89 00             	mov    %r8,(%rax)
    4000112a:	4c 89 40 38          	mov    %r8,0x38(%rax)
    4000112e:	4c 89 48 30          	mov    %r9,0x30(%rax)
    40001132:	4b 8d 04 12          	lea    (%r10,%r10,1),%rax
    40001136:	48 39 c3             	cmp    %rax,%rbx
    40001139:	7e 1c                	jle    40001157 <replace_weaker_arc+0xb7>
    4000113b:	4c 89 d7             	mov    %r10,%rdi
    4000113e:	48 c1 e7 07          	shl    $0x7,%rdi
    40001142:	4c 8b 5c 3e 30       	mov    0x30(%rsi,%rdi,1),%r11
    40001147:	4c 39 5c 3e f0       	cmp    %r11,-0x10(%rsi,%rdi,1)
    4000114c:	40 0f 9c c7          	setl   %dil
    40001150:	40 0f b6 ff          	movzbl %dil,%edi
    40001154:	48 01 f8             	add    %rdi,%rax
    40001157:	4c 89 d7             	mov    %r10,%rdi
    4000115a:	49 89 c2             	mov    %rax,%r10
    4000115d:	49 39 da             	cmp    %rbx,%r10
    40001160:	0f 8e 7a ff ff ff    	jle    400010e0 <replace_weaker_arc+0x40>
    40001166:	5b                   	pop    %rbx
    40001167:	41 5e                	pop    %r14
    40001169:	c3                   	retq   
    4000116a:	66 0f 1f 44 00 00    	nopw   0x0(%rax,%rax,1)

0000000040001170 <price_out_impl>:
    40001170:	41 57                	push   %r15
    40001172:	41 56                	push   %r14
    40001174:	49 89 fa             	mov    %rdi,%r10
    40001177:	41 55                	push   %r13
    40001179:	41 54                	push   %r12
    4000117b:	55                   	push   %rbp
    4000117c:	53                   	push   %rbx
    4000117d:	48 83 ec 48          	sub    $0x48,%rsp
    40001181:	48 8b 87 10 02 00 00 	mov    0x210(%rdi),%rax
    40001188:	48 83 e8 0f          	sub    $0xf,%rax
    4000118c:	48 89 44 24 18       	mov    %rax,0x18(%rsp)
    40001191:	48 8b 87 98 01 00 00 	mov    0x198(%rdi),%rax
    40001198:	48 3d 98 3a 00 00    	cmp    $0x3a98,%rax
    4000119e:	48 89 44 24 10       	mov    %rax,0x10(%rsp)
    400011a3:	7f 59                	jg     400011fe <price_out_impl+0x8e>
    400011a5:	48 89 c6             	mov    %rax,%rsi
    400011a8:	48 8b 87 a8 01 00 00 	mov    0x1a8(%rdi),%rax
    400011af:	48 8b 97 a0 01 00 00 	mov    0x1a0(%rdi),%rdx
    400011b6:	48 89 c1             	mov    %rax,%rcx
    400011b9:	48 03 8f c8 01 00 00 	add    0x1c8(%rdi),%rcx
    400011c0:	48 39 d1             	cmp    %rdx,%rcx
    400011c3:	0f 8f 69 02 00 00    	jg     40001432 <price_out_impl+0x2c2>
    400011c9:	48 c7 44 24 38 00 00 	movq   $0x0,0x38(%rsp)
    400011d0:	00 00 
    400011d2:	48 83 7c 24 10 00    	cmpq   $0x0,0x10(%rsp)
    400011d8:	49 8b 82 40 02 00 00 	mov    0x240(%r10),%rax
    400011df:	4d 8b a2 38 02 00 00 	mov    0x238(%r10),%r12
    400011e6:	48 89 44 24 08       	mov    %rax,0x8(%rsp)
    400011eb:	7f 2d                	jg     4000121a <price_out_impl+0xaa>
    400011ed:	31 c0                	xor    %eax,%eax
    400011ef:	48 83 c4 48          	add    $0x48,%rsp
    400011f3:	5b                   	pop    %rbx
    400011f4:	5d                   	pop    %rbp
    400011f5:	41 5c                	pop    %r12
    400011f7:	41 5d                	pop    %r13
    400011f9:	41 5e                	pop    %r14
    400011fb:	41 5f                	pop    %r15
    400011fd:	c3                   	retq   
    400011fe:	48 8b 87 40 02 00 00 	mov    0x240(%rdi),%rax
    40001205:	4c 8b a7 38 02 00 00 	mov    0x238(%rdi),%r12
    4000120c:	48 c7 44 24 38 00 00 	movq   $0x0,0x38(%rsp)
    40001213:	00 00 
    40001215:	48 89 44 24 08       	mov    %rax,0x8(%rsp)
    4000121a:	41 8b 54 24 58       	mov    0x58(%r12),%edx
    4000121f:	45 31 f6             	xor    %r14d,%r14d
    40001222:	83 fa ff             	cmp    $0xffffffff,%edx
    40001225:	75 25                	jne    4000124c <price_out_impl+0xdc>
    40001227:	48 8b 44 24 10       	mov    0x10(%rsp),%rax
    4000122c:	eb 0c                	jmp    4000123a <price_out_impl+0xca>
    4000122e:	66 90                	xchg   %ax,%ax
    40001230:	41 8b 54 24 58       	mov    0x58(%r12),%edx
    40001235:	83 fa ff             	cmp    $0xffffffff,%edx
    40001238:	75 12                	jne    4000124c <price_out_impl+0xdc>
    4000123a:	49 83 c6 01          	add    $0x1,%r14
    4000123e:	49 81 c4 c0 00 00 00 	add    $0xc0,%r12
    40001245:	49 39 c6             	cmp    %rax,%r14
    40001248:	75 e6                	jne    40001230 <price_out_impl+0xc0>
    4000124a:	eb a1                	jmp    400011ed <price_out_impl+0x7d>
    4000124c:	49 83 c4 40          	add    $0x40,%r12
    40001250:	45 31 db             	xor    %r11d,%r11d
    40001253:	31 c0                	xor    %eax,%eax
    40001255:	41 bf 1e 00 00 00    	mov    $0x1e,%r15d
    4000125b:	0f 1f 44 00 00       	nopl   0x0(%rax,%rax,1)
    40001260:	83 fa ff             	cmp    $0xffffffff,%edx
    40001263:	74 14                	je     40001279 <price_out_impl+0x109>
    40001265:	49 8b 54 24 d0       	mov    -0x30(%r12),%rdx
    4000126a:	48 8b 52 38          	mov    0x38(%rdx),%rdx
    4000126e:	48 8b 52 10          	mov    0x10(%rdx),%rdx
    40001272:	4c 89 5a 48          	mov    %r11,0x48(%rdx)
    40001276:	4d 89 e3             	mov    %r12,%r11
    40001279:	41 83 7c 24 d8 ff    	cmpl   $0xffffffff,-0x28(%r12)
    4000127f:	0f 84 9b 00 00 00    	je     40001320 <price_out_impl+0x1b0>
    40001285:	4d 8b 6c 24 d0       	mov    -0x30(%r12),%r13
    4000128a:	49 8b 53 08          	mov    0x8(%r11),%rdx
    4000128e:	49 63 6d 64          	movslq 0x64(%r13),%rbp
    40001292:	48 8b 52 48          	mov    0x48(%rdx),%rdx
    40001296:	49 2b 6c 24 f8       	sub    -0x8(%r12),%rbp
    4000129b:	48 03 6c 24 18       	add    0x18(%rsp),%rbp
    400012a0:	eb 0a                	jmp    400012ac <price_out_impl+0x13c>
    400012a2:	66 0f 1f 44 00 00    	nopw   0x0(%rax,%rax,1)
    400012a8:	48 8b 53 48          	mov    0x48(%rbx),%rdx
    400012ac:	48 85 d2             	test   %rdx,%rdx
    400012af:	74 6f                	je     40001320 <price_out_impl+0x1b0>
    400012b1:	48 8b 5a 08          	mov    0x8(%rdx),%rbx
    400012b5:	48 63 4b 64          	movslq 0x64(%rbx),%rcx
    400012b9:	48 03 4a 38          	add    0x38(%rdx),%rcx
    400012bd:	48 39 cd             	cmp    %rcx,%rbp
    400012c0:	7c e6                	jl     400012a8 <price_out_impl+0x138>
    400012c2:	4d 89 f9             	mov    %r15,%r9
    400012c5:	4c 2b 0b             	sub    (%rbx),%r9
    400012c8:	4d 03 4d 00          	add    0x0(%r13),%r9
    400012cc:	79 da                	jns    400012a8 <price_out_impl+0x138>
    400012ce:	49 39 82 c0 01 00 00 	cmp    %rax,0x1c0(%r10)
    400012d5:	7f 69                	jg     40001340 <price_out_impl+0x1d0>
    400012d7:	48 8b 7c 24 08       	mov    0x8(%rsp),%rdi
    400012dc:	4c 3b 4f 30          	cmp    0x30(%rdi),%r9
    400012e0:	7d c6                	jge    400012a8 <price_out_impl+0x138>
    400012e2:	48 89 fe             	mov    %rdi,%rsi
    400012e5:	41 b8 1e 00 00 00    	mov    $0x1e,%r8d
    400012eb:	4c 89 d7             	mov    %r10,%rdi
    400012ee:	4c 89 e9             	mov    %r13,%rcx
    400012f1:	48 89 da             	mov    %rbx,%rdx
    400012f4:	48 89 44 24 30       	mov    %rax,0x30(%rsp)
    400012f9:	4c 89 5c 24 28       	mov    %r11,0x28(%rsp)
    400012fe:	4c 89 54 24 20       	mov    %r10,0x20(%rsp)
    40001303:	e8 98 fd ff ff       	callq  400010a0 <replace_weaker_arc>
    40001308:	48 8b 44 24 30       	mov    0x30(%rsp),%rax
    4000130d:	4c 8b 5c 24 28       	mov    0x28(%rsp),%r11
    40001312:	4c 8b 54 24 20       	mov    0x20(%rsp),%r10
    40001317:	eb 8f                	jmp    400012a8 <price_out_impl+0x138>
    40001319:	0f 1f 80 00 00 00 00 	nopl   0x0(%rax)
    40001320:	49 83 c6 01          	add    $0x1,%r14
    40001324:	49 81 c4 c0 00 00 00 	add    $0xc0,%r12
    4000132b:	4c 3b 74 24 10       	cmp    0x10(%rsp),%r14
    40001330:	7d 4e                	jge    40001380 <price_out_impl+0x210>
    40001332:	41 8b 54 24 18       	mov    0x18(%r12),%edx
    40001337:	e9 24 ff ff ff       	jmpq   40001260 <price_out_impl+0xf0>
    4000133c:	0f 1f 40 00          	nopl   0x0(%rax)
    40001340:	48 8b 7c 24 08       	mov    0x8(%rsp),%rdi
    40001345:	48 89 c6             	mov    %rax,%rsi
    40001348:	41 b8 1e 00 00 00    	mov    $0x1e,%r8d
    4000134e:	4c 89 e9             	mov    %r13,%rcx
    40001351:	48 89 da             	mov    %rbx,%rdx
    40001354:	4c 89 54 24 30       	mov    %r10,0x30(%rsp)
    40001359:	4c 89 5c 24 28       	mov    %r11,0x28(%rsp)
    4000135e:	48 89 44 24 20       	mov    %rax,0x20(%rsp)
    40001363:	e8 78 fc ff ff       	callq  40000fe0 <insert_new_arc>
    40001368:	48 8b 44 24 20       	mov    0x20(%rsp),%rax
    4000136d:	4c 8b 5c 24 28       	mov    0x28(%rsp),%r11
    40001372:	4c 8b 54 24 30       	mov    0x30(%rsp),%r10
    40001377:	48 83 c0 01          	add    $0x1,%rax
    4000137b:	e9 28 ff ff ff       	jmpq   400012a8 <price_out_impl+0x138>
    40001380:	48 85 c0             	test   %rax,%rax
    40001383:	0f 84 64 fe ff ff    	je     400011ed <price_out_impl+0x7d>
    40001389:	49 8b 92 40 02 00 00 	mov    0x240(%r10),%rdx
    40001390:	48 89 c6             	mov    %rax,%rsi
    40001393:	48 c1 e6 06          	shl    $0x6,%rsi
    40001397:	48 01 d6             	add    %rdx,%rsi
    4000139a:	48 83 7c 24 38 00    	cmpq   $0x0,0x38(%rsp)
    400013a0:	49 89 b2 40 02 00 00 	mov    %rsi,0x240(%r10)
    400013a7:	74 43                	je     400013ec <price_out_impl+0x27c>
    400013a9:	48 39 f2             	cmp    %rsi,%rdx
    400013ac:	74 1a                	je     400013c8 <price_out_impl+0x258>
    400013ae:	66 90                	xchg   %ax,%ax
    400013b0:	48 c7 42 30 00 00 00 	movq   $0x0,0x30(%rdx)
    400013b7:	00 
    400013b8:	c7 42 18 01 00 00 00 	movl   $0x1,0x18(%rdx)
    400013bf:	48 83 c2 40          	add    $0x40,%rdx
    400013c3:	48 39 d6             	cmp    %rdx,%rsi
    400013c6:	75 e8                	jne    400013b0 <price_out_impl+0x240>
    400013c8:	49 01 82 a8 01 00 00 	add    %rax,0x1a8(%r10)
    400013cf:	49 01 82 b8 01 00 00 	add    %rax,0x1b8(%r10)
    400013d6:	49 29 82 c0 01 00 00 	sub    %rax,0x1c0(%r10)
    400013dd:	48 83 c4 48          	add    $0x48,%rsp
    400013e1:	5b                   	pop    %rbx
    400013e2:	5d                   	pop    %rbp
    400013e3:	41 5c                	pop    %r12
    400013e5:	41 5d                	pop    %r13
    400013e7:	41 5e                	pop    %r14
    400013e9:	41 5f                	pop    %r15
    400013eb:	c3                   	retq   
    400013ec:	48 39 f2             	cmp    %rsi,%rdx
    400013ef:	74 d7                	je     400013c8 <price_out_impl+0x258>
    400013f1:	0f 1f 80 00 00 00 00 	nopl   0x0(%rax)
    400013f8:	48 8b 4a 08          	mov    0x8(%rdx),%rcx
    400013fc:	48 c7 42 30 00 00 00 	movq   $0x0,0x30(%rdx)
    40001403:	00 
    40001404:	c7 42 18 01 00 00 00 	movl   $0x1,0x18(%rdx)
    4000140b:	48 8b 79 38          	mov    0x38(%rcx),%rdi
    4000140f:	48 89 7a 20          	mov    %rdi,0x20(%rdx)
    40001413:	48 89 51 38          	mov    %rdx,0x38(%rcx)
    40001417:	48 8b 4a 10          	mov    0x10(%rdx),%rcx
    4000141b:	48 8b 79 40          	mov    0x40(%rcx),%rdi
    4000141f:	48 89 7a 28          	mov    %rdi,0x28(%rdx)
    40001423:	48 89 51 40          	mov    %rdx,0x40(%rcx)
    40001427:	48 83 c2 40          	add    $0x40,%rdx
    4000142b:	48 39 d6             	cmp    %rdx,%rsi
    4000142e:	75 c8                	jne    400013f8 <price_out_impl+0x288>
    40001430:	eb 96                	jmp    400013c8 <price_out_impl+0x258>
    40001432:	48 89 f1             	mov    %rsi,%rcx
    40001435:	48 c7 44 24 38 00 00 	movq   $0x0,0x38(%rsp)
    4000143c:	00 00 
    4000143e:	48 0f af ce          	imul   %rsi,%rcx
    40001442:	48 d1 f9             	sar    %rcx
    40001445:	48 01 c8             	add    %rcx,%rax
    40001448:	48 39 c2             	cmp    %rax,%rdx
    4000144b:	0f 8d 81 fd ff ff    	jge    400011d2 <price_out_impl+0x62>
    40001451:	48 89 7c 24 08       	mov    %rdi,0x8(%rsp)
    40001456:	e8 c5 fa ff ff       	callq  40000f20 <resize_prob>
    4000145b:	48 89 c2             	mov    %rax,%rdx
    4000145e:	48 c7 c0 ff ff ff ff 	mov    $0xffffffffffffffff,%rax
    40001465:	48 85 d2             	test   %rdx,%rdx
    40001468:	0f 85 81 fd ff ff    	jne    400011ef <price_out_impl+0x7f>
    4000146e:	4c 8b 54 24 08       	mov    0x8(%rsp),%r10
    40001473:	4c 89 d7             	mov    %r10,%rdi
    40001476:	e8 95 ef ff ff       	callq  40000410 <refresh_neighbour_lists>
    4000147b:	4c 8b 54 24 08       	mov    0x8(%rsp),%r10
    40001480:	48 c7 44 24 38 01 00 	movq   $0x1,0x38(%rsp)
    40001487:	00 00 
    40001489:	49 8b 82 98 01 00 00 	mov    0x198(%r10),%rax
    40001490:	48 89 44 24 10       	mov    %rax,0x10(%rsp)
    40001495:	e9 38 fd ff ff       	jmpq   400011d2 <price_out_impl+0x62>
    4000149a:	66 0f 1f 44 00 00    	nopw   0x0(%rax,%rax,1)

00000000400014a0 <suspend_impl>:
    400014a0:	48 85 d2             	test   %rdx,%rdx
    400014a3:	53                   	push   %rbx
    400014a4:	74 3a                	je     400014e0 <suspend_impl+0x40>
    400014a6:	48 8b 9f b8 01 00 00 	mov    0x1b8(%rdi),%rbx
    400014ad:	48 85 db             	test   %rbx,%rbx
    400014b0:	74 28                	je     400014da <suspend_impl+0x3a>
    400014b2:	48 89 d8             	mov    %rbx,%rax
    400014b5:	48 29 9f a8 01 00 00 	sub    %rbx,0x1a8(%rdi)
    400014bc:	48 29 9f b8 01 00 00 	sub    %rbx,0x1b8(%rdi)
    400014c3:	48 c1 e0 06          	shl    $0x6,%rax
    400014c7:	48 01 9f c0 01 00 00 	add    %rbx,0x1c0(%rdi)
    400014ce:	48 29 87 40 02 00 00 	sub    %rax,0x240(%rdi)
    400014d5:	e8 36 ef ff ff       	callq  40000410 <refresh_neighbour_lists>
    400014da:	48 89 d8             	mov    %rbx,%rax
    400014dd:	5b                   	pop    %rbx
    400014de:	c3                   	retq   
    400014df:	90                   	nop
    400014e0:	48 8b 8f a8 01 00 00 	mov    0x1a8(%rdi),%rcx
    400014e7:	48 2b 8f b8 01 00 00 	sub    0x1b8(%rdi),%rcx
    400014ee:	48 8b 87 40 02 00 00 	mov    0x240(%rdi),%rax
    400014f5:	48 c1 e1 06          	shl    $0x6,%rcx
    400014f9:	48 03 8f 38 02 00 00 	add    0x238(%rdi),%rcx
    40001500:	48 39 c8             	cmp    %rcx,%rax
    40001503:	0f 86 9a 00 00 00    	jbe    400015a3 <suspend_impl+0x103>
    40001509:	48 89 ca             	mov    %rcx,%rdx
    4000150c:	31 db                	xor    %ebx,%ebx
    4000150e:	eb 0d                	jmp    4000151d <suspend_impl+0x7d>
    40001510:	48 83 c3 01          	add    $0x1,%rbx
    40001514:	48 83 c2 40          	add    $0x40,%rdx
    40001518:	48 39 d0             	cmp    %rdx,%rax
    4000151b:	76 90                	jbe    400014ad <suspend_impl+0xd>
    4000151d:	44 8b 4a 18          	mov    0x18(%rdx),%r9d
    40001521:	41 83 f9 01          	cmp    $0x1,%r9d
    40001525:	74 69                	je     40001590 <suspend_impl+0xf0>
    40001527:	45 85 c9             	test   %r9d,%r9d
    4000152a:	49 c7 c0 fe ff ff ff 	mov    $0xfffffffffffffffe,%r8
    40001531:	75 12                	jne    40001545 <suspend_impl+0xa5>
    40001533:	4c 8b 4a 08          	mov    0x8(%rdx),%r9
    40001537:	49 39 51 30          	cmp    %rdx,0x30(%r9)
    4000153b:	74 04                	je     40001541 <suspend_impl+0xa1>
    4000153d:	4c 8b 4a 10          	mov    0x10(%rdx),%r9
    40001541:	49 89 49 30          	mov    %rcx,0x30(%r9)
    40001545:	49 39 f0             	cmp    %rsi,%r8
    40001548:	7f c6                	jg     40001510 <suspend_impl+0x70>
    4000154a:	4c 8b 02             	mov    (%rdx),%r8
    4000154d:	48 83 c1 40          	add    $0x40,%rcx
    40001551:	4c 89 41 c0          	mov    %r8,-0x40(%rcx)
    40001555:	4c 8b 42 08          	mov    0x8(%rdx),%r8
    40001559:	4c 89 41 c8          	mov    %r8,-0x38(%rcx)
    4000155d:	4c 8b 42 10          	mov    0x10(%rdx),%r8
    40001561:	4c 89 41 d0          	mov    %r8,-0x30(%rcx)
    40001565:	4c 8b 42 18          	mov    0x18(%rdx),%r8
    40001569:	4c 89 41 d8          	mov    %r8,-0x28(%rcx)
    4000156d:	4c 8b 42 20          	mov    0x20(%rdx),%r8
    40001571:	4c 89 41 e0          	mov    %r8,-0x20(%rcx)
    40001575:	4c 8b 42 28          	mov    0x28(%rdx),%r8
    40001579:	4c 89 41 e8          	mov    %r8,-0x18(%rcx)
    4000157d:	4c 8b 42 30          	mov    0x30(%rdx),%r8
    40001581:	4c 89 41 f0          	mov    %r8,-0x10(%rcx)
    40001585:	4c 8b 42 38          	mov    0x38(%rdx),%r8
    40001589:	4c 89 41 f8          	mov    %r8,-0x8(%rcx)
    4000158d:	eb 85                	jmp    40001514 <suspend_impl+0x74>
    4000158f:	90                   	nop
    40001590:	4c 8b 4a 08          	mov    0x8(%rdx),%r9
    40001594:	4c 8b 02             	mov    (%rdx),%r8
    40001597:	4d 2b 01             	sub    (%r9),%r8
    4000159a:	4c 8b 4a 10          	mov    0x10(%rdx),%r9
    4000159e:	4d 03 01             	add    (%r9),%r8
    400015a1:	eb a2                	jmp    40001545 <suspend_impl+0xa5>
    400015a3:	31 db                	xor    %ebx,%ebx
    400015a5:	e9 30 ff ff ff       	jmpq   400014da <suspend_impl+0x3a>
    400015aa:	66 0f 1f 44 00 00    	nopw   0x0(%rax,%rax,1)

00000000400015b0 <primal_start_artificial>:
    400015b0:	48 8b 87 90 01 00 00 	mov    0x190(%rdi),%rax
    400015b7:	48 8b b7 28 02 00 00 	mov    0x228(%rdi),%rsi
    400015be:	48 8b 97 40 02 00 00 	mov    0x240(%rdi),%rdx
    400015c5:	48 83 c0 01          	add    $0x1,%rax
    400015c9:	4c 8d 4e 68          	lea    0x68(%rsi),%r9
    400015cd:	48 c7 46 30 00 00 00 	movq   $0x0,0x30(%rsi)
    400015d4:	00 
    400015d5:	48 89 46 58          	mov    %rax,0x58(%rsi)
    400015d9:	48 8b 87 38 02 00 00 	mov    0x238(%rdi),%rax
    400015e0:	48 c7 46 18 00 00 00 	movq   $0x0,0x18(%rsi)
    400015e7:	00 
    400015e8:	4c 89 4e 10          	mov    %r9,0x10(%rsi)
    400015ec:	48 c7 46 20 00 00 00 	movq   $0x0,0x20(%rsi)
    400015f3:	00 
    400015f4:	48 c7 46 28 00 00 00 	movq   $0x0,0x28(%rsi)
    400015fb:	00 
    400015fc:	48 39 c2             	cmp    %rax,%rdx
    400015ff:	c7 46 08 00 00 00 00 	movl   $0x0,0x8(%rsi)
    40001606:	48 c7 06 00 1f 0a fa 	movq   $0xfffffffffa0a1f00,(%rsi)
    4000160d:	48 c7 46 50 00 00 00 	movq   $0x0,0x50(%rsi)
    40001614:	00 
    40001615:	74 1f                	je     40001636 <primal_start_artificial+0x86>
    40001617:	66 0f 1f 84 00 00 00 	nopw   0x0(%rax,%rax,1)
    4000161e:	00 00 
    40001620:	83 78 18 ff          	cmpl   $0xffffffff,0x18(%rax)
    40001624:	74 07                	je     4000162d <primal_start_artificial+0x7d>
    40001626:	c7 40 18 01 00 00 00 	movl   $0x1,0x18(%rax)
    4000162d:	48 83 c0 40          	add    $0x40,%rax
    40001631:	48 39 c2             	cmp    %rax,%rdx
    40001634:	75 ea                	jne    40001620 <primal_start_artificial+0x70>
    40001636:	4c 8b 87 30 02 00 00 	mov    0x230(%rdi),%r8
    4000163d:	48 8b 8f 48 02 00 00 	mov    0x248(%rdi),%rcx
    40001644:	4c 89 ca             	mov    %r9,%rdx
    40001647:	4d 39 c1             	cmp    %r8,%r9
    4000164a:	0f 84 9b 00 00 00    	je     400016eb <primal_start_artificial+0x13b>
    40001650:	48 8d 42 68          	lea    0x68(%rdx),%rax
    40001654:	48 8d 7a 98          	lea    -0x68(%rdx),%rdi
    40001658:	48 89 4a 30          	mov    %rcx,0x30(%rdx)
    4000165c:	48 89 72 18          	mov    %rsi,0x18(%rdx)
    40001660:	48 c7 42 10 00 00 00 	movq   $0x0,0x10(%rdx)
    40001667:	00 
    40001668:	48 83 c1 40          	add    $0x40,%rcx
    4000166c:	48 89 40 b8          	mov    %rax,-0x48(%rax)
    40001670:	48 89 78 c0          	mov    %rdi,-0x40(%rax)
    40001674:	48 c7 40 f0 01 00 00 	movq   $0x1,-0x10(%rax)
    4000167b:	00 
    4000167c:	48 c7 41 c0 00 e1 f5 	movq   $0x5f5e100,-0x40(%rcx)
    40001683:	05 
    40001684:	c7 41 d8 00 00 00 00 	movl   $0x0,-0x28(%rcx)
    4000168b:	c7 40 a0 01 00 00 00 	movl   $0x1,-0x60(%rax)
    40001692:	48 c7 40 98 00 00 00 	movq   $0x0,-0x68(%rax)
    40001699:	00 
    4000169a:	48 89 51 c8          	mov    %rdx,-0x38(%rcx)
    4000169e:	48 89 c2             	mov    %rax,%rdx
    400016a1:	48 89 71 d0          	mov    %rsi,-0x30(%rcx)
    400016a5:	49 39 c0             	cmp    %rax,%r8
    400016a8:	48 c7 40 e8 00 00 00 	movq   $0x0,-0x18(%rax)
    400016af:	00 
    400016b0:	75 9e                	jne    40001650 <primal_start_artificial+0xa0>
    400016b2:	48 8d 86 d0 00 00 00 	lea    0xd0(%rsi),%rax
    400016b9:	49 29 c0             	sub    %rax,%r8
    400016bc:	48 b8 c5 4e ec c4 4e 	movabs $0xec4ec4ec4ec4ec5,%rax
    400016c3:	ec c4 0e 
    400016c6:	49 c1 e8 03          	shr    $0x3,%r8
    400016ca:	4c 0f af c0          	imul   %rax,%r8
    400016ce:	48 b8 ff ff ff ff ff 	movabs $0x1fffffffffffffff,%rax
    400016d5:	ff ff 1f 
    400016d8:	49 21 c0             	and    %rax,%r8
    400016db:	49 83 c0 01          	add    $0x1,%r8
    400016df:	4b 8d 04 40          	lea    (%r8,%r8,2),%rax
    400016e3:	49 8d 04 80          	lea    (%r8,%rax,4),%rax
    400016e7:	4d 8d 04 c1          	lea    (%r9,%rax,8),%r8
    400016eb:	49 c7 40 b8 00 00 00 	movq   $0x0,-0x48(%r8)
    400016f2:	00 
    400016f3:	31 c0                	xor    %eax,%eax
    400016f5:	48 c7 86 90 00 00 00 	movq   $0x0,0x90(%rsi)
    400016fc:	00 00 00 00 
    40001700:	c3                   	retq   
    40001701:	66 2e 0f 1f 84 00 00 	nopw   %cs:0x0(%rax,%rax,1)
    40001708:	00 00 00 
    4000170b:	0f 1f 44 00 00       	nopl   0x0(%rax,%rax,1)

0000000040001710 <write_circulations>:
    40001710:	41 56                	push   %r14
    40001712:	41 55                	push   %r13
    40001714:	49 89 f5             	mov    %rsi,%r13
    40001717:	41 54                	push   %r12
    40001719:	55                   	push   %rbp
    4000171a:	53                   	push   %rbx
    4000171b:	48 8b 86 b8 01 00 00 	mov    0x1b8(%rsi),%rax
    40001722:	4c 8b b6 40 02 00 00 	mov    0x240(%rsi),%r14
    40001729:	48 8d 35 20 ec 3f 00 	lea    0x3fec20(%rip),%rsi        # 40400350 <data_start+0x350>
    40001730:	48 c1 e0 06          	shl    $0x6,%rax
    40001734:	49 29 c6             	sub    %rax,%r14
    40001737:	e8 42 26 00 00       	callq  40003d7e <fopen>
    4000173c:	48 85 c0             	test   %rax,%rax
    4000173f:	0f 84 03 01 00 00    	je     40001848 <write_circulations+0x138>
    40001745:	4c 89 ef             	mov    %r13,%rdi
    40001748:	48 89 c5             	mov    %rax,%rbp
    4000174b:	e8 c0 ec ff ff       	callq  40000410 <refresh_neighbour_lists>
    40001750:	49 8b 85 90 01 00 00 	mov    0x190(%r13),%rax
    40001757:	48 8d 14 40          	lea    (%rax,%rax,2),%rdx
    4000175b:	48 8d 04 90          	lea    (%rax,%rdx,4),%rax
    4000175f:	49 8b 95 28 02 00 00 	mov    0x228(%r13),%rdx
    40001766:	48 8d 04 c2          	lea    (%rdx,%rax,8),%rax
    4000176a:	4c 8b 60 38          	mov    0x38(%rax),%r12
    4000176e:	4d 85 e4             	test   %r12,%r12
    40001771:	75 1b                	jne    4000178e <write_circulations+0x7e>
    40001773:	e9 e0 00 00 00       	jmpq   40001858 <write_circulations+0x148>
    40001778:	0f 1f 84 00 00 00 00 	nopl   0x0(%rax,%rax,1)
    4000177f:	00 
    40001780:	4d 8b 64 24 20       	mov    0x20(%r12),%r12
    40001785:	4d 85 e4             	test   %r12,%r12
    40001788:	0f 84 ca 00 00 00    	je     40001858 <write_circulations+0x148>
    4000178e:	49 83 7c 24 30 00    	cmpq   $0x0,0x30(%r12)
    40001794:	74 ea                	je     40001780 <write_circulations+0x70>
    40001796:	48 8d 3d b5 eb 3f 00 	lea    0x3febb5(%rip),%rdi        # 40400352 <data_start+0x352>
    4000179d:	48 89 e9             	mov    %rbp,%rcx
    400017a0:	ba 03 00 00 00       	mov    $0x3,%edx
    400017a5:	be 01 00 00 00       	mov    $0x1,%esi
    400017aa:	4c 89 e3             	mov    %r12,%rbx
    400017ad:	e8 a8 27 00 00       	callq  40003f5a <fwrite>
    400017b2:	49 39 de             	cmp    %rbx,%r14
    400017b5:	76 6d                	jbe    40001824 <write_circulations+0x114>
    400017b7:	66 0f 1f 84 00 00 00 	nopw   0x0(%rax,%rax,1)
    400017be:	00 00 
    400017c0:	48 8b 43 10          	mov    0x10(%rbx),%rax
    400017c4:	48 8d 35 90 eb 3f 00 	lea    0x3feb90(%rip),%rsi        # 4040035b <data_start+0x35b>
    400017cb:	48 89 ef             	mov    %rbp,%rdi
    400017ce:	8b 50 60             	mov    0x60(%rax),%edx
    400017d1:	31 c0                	xor    %eax,%eax
    400017d3:	f7 da                	neg    %edx
    400017d5:	e8 47 26 00 00       	callq  40003e21 <fprintf>
    400017da:	49 8b 85 98 01 00 00 	mov    0x198(%r13),%rax
    400017e1:	48 8d 14 40          	lea    (%rax,%rax,2),%rdx
    400017e5:	48 8d 14 90          	lea    (%rax,%rdx,4),%rdx
    400017e9:	48 8b 43 10          	mov    0x10(%rbx),%rax
    400017ed:	48 8b 5c d0 38       	mov    0x38(%rax,%rdx,8),%rbx
    400017f2:	48 85 db             	test   %rbx,%rbx
    400017f5:	75 12                	jne    40001809 <write_circulations+0xf9>
    400017f7:	eb 47                	jmp    40001840 <write_circulations+0x130>
    400017f9:	0f 1f 80 00 00 00 00 	nopl   0x0(%rax)
    40001800:	48 8b 5b 20          	mov    0x20(%rbx),%rbx
    40001804:	48 85 db             	test   %rbx,%rbx
    40001807:	74 37                	je     40001840 <write_circulations+0x130>
    40001809:	48 83 7b 30 00       	cmpq   $0x0,0x30(%rbx)
    4000180e:	74 f0                	je     40001800 <write_circulations+0xf0>
    40001810:	48 8b 43 10          	mov    0x10(%rbx),%rax
    40001814:	8b 40 60             	mov    0x60(%rax),%eax
    40001817:	85 c0                	test   %eax,%eax
    40001819:	0f 84 61 ff ff ff    	je     40001780 <write_circulations+0x70>
    4000181f:	49 39 de             	cmp    %rbx,%r14
    40001822:	77 9c                	ja     400017c0 <write_circulations+0xb0>
    40001824:	48 8d 3d 2b eb 3f 00 	lea    0x3feb2b(%rip),%rdi        # 40400356 <data_start+0x356>
    4000182b:	48 89 e9             	mov    %rbp,%rcx
    4000182e:	ba 04 00 00 00       	mov    $0x4,%edx
    40001833:	be 01 00 00 00       	mov    $0x1,%esi
    40001838:	e8 1d 27 00 00       	callq  40003f5a <fwrite>
    4000183d:	eb 81                	jmp    400017c0 <write_circulations+0xb0>
    4000183f:	90                   	nop
    40001840:	48 89 ef             	mov    %rbp,%rdi
    40001843:	e8 52 22 00 00       	callq  40003a9a <fclose>
    40001848:	5b                   	pop    %rbx
    40001849:	48 c7 c0 ff ff ff ff 	mov    $0xffffffffffffffff,%rax
    40001850:	5d                   	pop    %rbp
    40001851:	41 5c                	pop    %r12
    40001853:	41 5d                	pop    %r13
    40001855:	41 5e                	pop    %r14
    40001857:	c3                   	retq   
    40001858:	48 89 ef             	mov    %rbp,%rdi
    4000185b:	e8 3a 22 00 00       	callq  40003a9a <fclose>
    40001860:	5b                   	pop    %rbx
    40001861:	31 c0                	xor    %eax,%eax
    40001863:	5d                   	pop    %rbp
    40001864:	41 5c                	pop    %r12
    40001866:	41 5d                	pop    %r13
    40001868:	41 5e                	pop    %r14
    4000186a:	c3                   	retq   
    4000186b:	0f 1f 44 00 00       	nopl   0x0(%rax,%rax,1)

0000000040001870 <update_tree>:
    40001870:	41 57                	push   %r15
    40001872:	41 56                	push   %r14
    40001874:	41 55                	push   %r13
    40001876:	41 54                	push   %r12
    40001878:	55                   	push   %rbp
    40001879:	53                   	push   %rbx
    4000187a:	4c 8b 6c 24 50       	mov    0x50(%rsp),%r13
    4000187f:	48 8b 5c 24 38       	mov    0x38(%rsp),%rbx
    40001884:	48 8b 44 24 40       	mov    0x40(%rsp),%rax
    40001889:	4c 8b 54 24 58       	mov    0x58(%rsp),%r10
    4000188e:	4d 8b 5d 08          	mov    0x8(%r13),%r11
    40001892:	4d 39 cb             	cmp    %r9,%r11
    40001895:	75 0c                	jne    400018a3 <update_tree+0x33>
    40001897:	4c 89 d5             	mov    %r10,%rbp
    4000189a:	48 c1 ed 3f          	shr    $0x3f,%rbp
    4000189e:	40 84 ed             	test   %bpl,%bpl
    400018a1:	75 12                	jne    400018b5 <update_tree+0x45>
    400018a3:	4d 85 d2             	test   %r10,%r10
    400018a6:	0f 8e ae 01 00 00    	jle    40001a5a <update_tree+0x1ea>
    400018ac:	4d 39 c3             	cmp    %r8,%r11
    400018af:	0f 85 a5 01 00 00    	jne    40001a5a <update_tree+0x1ea>
    400018b5:	4d 89 d3             	mov    %r10,%r11
    400018b8:	49 c1 fb 3f          	sar    $0x3f,%r11
    400018bc:	4d 31 da             	xor    %r11,%r10
    400018bf:	4c 89 d5             	mov    %r10,%rbp
    400018c2:	4c 29 dd             	sub    %r11,%rbp
    400018c5:	0f 1f 00             	nopl   (%rax)
    400018c8:	48 01 2b             	add    %rbp,(%rbx)
    400018cb:	49 89 da             	mov    %rbx,%r10
    400018ce:	eb 06                	jmp    400018d6 <update_tree+0x66>
    400018d0:	49 01 2b             	add    %rbp,(%r11)
    400018d3:	4d 89 da             	mov    %r11,%r10
    400018d6:	4d 8b 5a 10          	mov    0x10(%r10),%r11
    400018da:	4d 85 db             	test   %r11,%r11
    400018dd:	75 f1                	jne    400018d0 <update_tree+0x60>
    400018df:	49 39 da             	cmp    %rbx,%r10
    400018e2:	74 16                	je     400018fa <update_tree+0x8a>
    400018e4:	0f 1f 40 00          	nopl   0x0(%rax)
    400018e8:	4d 8b 5a 20          	mov    0x20(%r10),%r11
    400018ec:	4d 85 db             	test   %r11,%r11
    400018ef:	75 df                	jne    400018d0 <update_tree+0x60>
    400018f1:	4d 8b 52 18          	mov    0x18(%r10),%r10
    400018f5:	4c 39 d3             	cmp    %r10,%rbx
    400018f8:	75 ee                	jne    400018e8 <update_tree+0x78>
    400018fa:	48 8b 6b 58          	mov    0x58(%rbx),%rbp
    400018fe:	49 39 c0             	cmp    %rax,%r8
    40001901:	4d 8b 58 18          	mov    0x18(%r8),%r11
    40001905:	4d 89 ca             	mov    %r9,%r10
    40001908:	49 89 ee             	mov    %rbp,%r14
    4000190b:	75 4f                	jne    4000195c <update_tree+0xec>
    4000190d:	e9 be 00 00 00       	jmpq   400019d0 <update_tree+0x160>
    40001912:	66 0f 1f 44 00 00    	nopw   0x0(%rax,%rax,1)
    40001918:	49 8b 58 50          	mov    0x50(%r8),%rbx
    4000191c:	48 29 d3             	sub    %rdx,%rbx
    4000191f:	4d 8b 50 58          	mov    0x58(%r8),%r10
    40001923:	4d 89 70 58          	mov    %r14,0x58(%r8)
    40001927:	49 89 ee             	mov    %rbp,%r14
    4000192a:	4d 8b 78 30          	mov    0x30(%r8),%r15
    4000192e:	49 89 48 50          	mov    %rcx,0x50(%r8)
    40001932:	41 89 70 08          	mov    %esi,0x8(%r8)
    40001936:	4d 89 68 30          	mov    %r13,0x30(%r8)
    4000193a:	4d 29 d6             	sub    %r10,%r14
    4000193d:	4c 39 d8             	cmp    %r11,%rax
    40001940:	49 8b 4b 18          	mov    0x18(%r11),%rcx
    40001944:	4d 89 c2             	mov    %r8,%r10
    40001947:	0f 84 83 00 00 00    	je     400019d0 <update_tree+0x160>
    4000194d:	4d 89 d8             	mov    %r11,%r8
    40001950:	4d 89 fd             	mov    %r15,%r13
    40001953:	49 89 cb             	mov    %rcx,%r11
    40001956:	4c 89 e6             	mov    %r12,%rsi
    40001959:	48 89 d9             	mov    %rbx,%rcx
    4000195c:	49 8b 58 20          	mov    0x20(%r8),%rbx
    40001960:	48 85 db             	test   %rbx,%rbx
    40001963:	74 08                	je     4000196d <update_tree+0xfd>
    40001965:	4d 8b 60 28          	mov    0x28(%r8),%r12
    40001969:	4c 89 63 28          	mov    %r12,0x28(%rbx)
    4000196d:	4d 8b 60 28          	mov    0x28(%r8),%r12
    40001971:	4d 85 e4             	test   %r12,%r12
    40001974:	74 4a                	je     400019c0 <update_tree+0x150>
    40001976:	49 89 5c 24 20       	mov    %rbx,0x20(%r12)
    4000197b:	49 8b 5a 10          	mov    0x10(%r10),%rbx
    4000197f:	4d 89 50 18          	mov    %r10,0x18(%r8)
    40001983:	48 85 db             	test   %rbx,%rbx
    40001986:	49 89 58 20          	mov    %rbx,0x20(%r8)
    4000198a:	74 04                	je     40001990 <update_tree+0x120>
    4000198c:	4c 89 43 28          	mov    %r8,0x28(%rbx)
    40001990:	4d 89 42 10          	mov    %r8,0x10(%r10)
    40001994:	45 8b 50 08          	mov    0x8(%r8),%r10d
    40001998:	45 31 e4             	xor    %r12d,%r12d
    4000199b:	49 c7 40 28 00 00 00 	movq   $0x0,0x28(%r8)
    400019a2:	00 
    400019a3:	45 85 d2             	test   %r10d,%r10d
    400019a6:	41 0f 94 c4          	sete   %r12b
    400019aa:	49 39 fc             	cmp    %rdi,%r12
    400019ad:	0f 85 65 ff ff ff    	jne    40001918 <update_tree+0xa8>
    400019b3:	48 89 d3             	mov    %rdx,%rbx
    400019b6:	49 03 58 50          	add    0x50(%r8),%rbx
    400019ba:	e9 60 ff ff ff       	jmpq   4000191f <update_tree+0xaf>
    400019bf:	90                   	nop
    400019c0:	49 89 5b 10          	mov    %rbx,0x10(%r11)
    400019c4:	eb b5                	jmp    4000197b <update_tree+0x10b>
    400019c6:	66 2e 0f 1f 84 00 00 	nopw   %cs:0x0(%rax,%rax,1)
    400019cd:	00 00 00 
    400019d0:	48 3b 54 24 60       	cmp    0x60(%rsp),%rdx
    400019d5:	0f 8e 95 00 00 00    	jle    40001a70 <update_tree+0x200>
    400019db:	48 3b 44 24 48       	cmp    0x48(%rsp),%rax
    400019e0:	48 8b 74 24 48       	mov    0x48(%rsp),%rsi
    400019e5:	75 16                	jne    400019fd <update_tree+0x18d>
    400019e7:	eb 2e                	jmp    40001a17 <update_tree+0x1a7>
    400019e9:	0f 1f 80 00 00 00 00 	nopl   0x0(%rax)
    400019f0:	48 01 50 50          	add    %rdx,0x50(%rax)
    400019f4:	48 8b 40 18          	mov    0x18(%rax),%rax
    400019f8:	48 39 c6             	cmp    %rax,%rsi
    400019fb:	74 1a                	je     40001a17 <update_tree+0x1a7>
    400019fd:	48 63 48 08          	movslq 0x8(%rax),%rcx
    40001a01:	48 29 68 58          	sub    %rbp,0x58(%rax)
    40001a05:	48 39 cf             	cmp    %rcx,%rdi
    40001a08:	75 e6                	jne    400019f0 <update_tree+0x180>
    40001a0a:	48 29 50 50          	sub    %rdx,0x50(%rax)
    40001a0e:	48 8b 40 18          	mov    0x18(%rax),%rax
    40001a12:	48 39 c6             	cmp    %rax,%rsi
    40001a15:	75 e6                	jne    400019fd <update_tree+0x18d>
    40001a17:	4c 3b 4c 24 48       	cmp    0x48(%rsp),%r9
    40001a1c:	48 8b 4c 24 48       	mov    0x48(%rsp),%rcx
    40001a21:	75 12                	jne    40001a35 <update_tree+0x1c5>
    40001a23:	eb 2a                	jmp    40001a4f <update_tree+0x1df>
    40001a25:	0f 1f 00             	nopl   (%rax)
    40001a28:	49 29 51 50          	sub    %rdx,0x50(%r9)
    40001a2c:	4d 8b 49 18          	mov    0x18(%r9),%r9
    40001a30:	4c 39 c9             	cmp    %r9,%rcx
    40001a33:	74 1a                	je     40001a4f <update_tree+0x1df>
    40001a35:	49 63 41 08          	movslq 0x8(%r9),%rax
    40001a39:	49 01 69 58          	add    %rbp,0x58(%r9)
    40001a3d:	48 39 c7             	cmp    %rax,%rdi
    40001a40:	75 e6                	jne    40001a28 <update_tree+0x1b8>
    40001a42:	49 01 51 50          	add    %rdx,0x50(%r9)
    40001a46:	4d 8b 49 18          	mov    0x18(%r9),%r9
    40001a4a:	4c 39 c9             	cmp    %r9,%rcx
    40001a4d:	75 e6                	jne    40001a35 <update_tree+0x1c5>
    40001a4f:	5b                   	pop    %rbx
    40001a50:	5d                   	pop    %rbp
    40001a51:	41 5c                	pop    %r12
    40001a53:	41 5d                	pop    %r13
    40001a55:	41 5e                	pop    %r14
    40001a57:	41 5f                	pop    %r15
    40001a59:	c3                   	retq   
    40001a5a:	4c 89 d5             	mov    %r10,%rbp
    40001a5d:	48 c1 fd 3f          	sar    $0x3f,%rbp
    40001a61:	49 31 ea             	xor    %rbp,%r10
    40001a64:	4c 29 d5             	sub    %r10,%rbp
    40001a67:	e9 5c fe ff ff       	jmpq   400018c8 <update_tree+0x58>
    40001a6c:	0f 1f 40 00          	nopl   0x0(%rax)
    40001a70:	48 3b 44 24 48       	cmp    0x48(%rsp),%rax
    40001a75:	48 8b 54 24 48       	mov    0x48(%rsp),%rdx
    40001a7a:	74 11                	je     40001a8d <update_tree+0x21d>
    40001a7c:	0f 1f 40 00          	nopl   0x0(%rax)
    40001a80:	48 29 68 58          	sub    %rbp,0x58(%rax)
    40001a84:	48 8b 40 18          	mov    0x18(%rax),%rax
    40001a88:	48 39 c2             	cmp    %rax,%rdx
    40001a8b:	75 f3                	jne    40001a80 <update_tree+0x210>
    40001a8d:	4c 3b 4c 24 48       	cmp    0x48(%rsp),%r9
    40001a92:	48 8b 44 24 48       	mov    0x48(%rsp),%rax
    40001a97:	74 b6                	je     40001a4f <update_tree+0x1df>
    40001a99:	0f 1f 80 00 00 00 00 	nopl   0x0(%rax)
    40001aa0:	49 01 69 58          	add    %rbp,0x58(%r9)
    40001aa4:	4d 8b 49 18          	mov    0x18(%r9),%r9
    40001aa8:	4c 39 c8             	cmp    %r9,%rax
    40001aab:	75 f3                	jne    40001aa0 <update_tree+0x230>
    40001aad:	5b                   	pop    %rbx
    40001aae:	5d                   	pop    %rbp
    40001aaf:	41 5c                	pop    %r12
    40001ab1:	41 5d                	pop    %r13
    40001ab3:	41 5e                	pop    %r14
    40001ab5:	41 5f                	pop    %r15
    40001ab7:	c3                   	retq   
    40001ab8:	0f 1f 84 00 00 00 00 	nopl   0x0(%rax,%rax,1)
    40001abf:	00 

0000000040001ac0 <primal_iminus>:
    40001ac0:	31 c0                	xor    %eax,%eax
    40001ac2:	48 39 ca             	cmp    %rcx,%rdx
    40001ac5:	74 67                	je     40001b2e <primal_iminus+0x6e>
    40001ac7:	41 bb 01 00 00 00    	mov    $0x1,%r11d
    40001acd:	eb 2d                	jmp    40001afc <primal_iminus+0x3c>
    40001acf:	90                   	nop
    40001ad0:	44 8b 52 08          	mov    0x8(%rdx),%r10d
    40001ad4:	45 85 d2             	test   %r10d,%r10d
    40001ad7:	0f 84 8b 00 00 00    	je     40001b68 <primal_iminus+0xa8>
    40001add:	4c 8b 4a 50          	mov    0x50(%rdx),%r9
    40001ae1:	4c 39 0f             	cmp    %r9,(%rdi)
    40001ae4:	7e 0d                	jle    40001af3 <primal_iminus+0x33>
    40001ae6:	4c 89 0f             	mov    %r9,(%rdi)
    40001ae9:	48 89 d0             	mov    %rdx,%rax
    40001aec:	48 c7 06 00 00 00 00 	movq   $0x0,(%rsi)
    40001af3:	48 8b 52 18          	mov    0x18(%rdx),%rdx
    40001af7:	48 39 d1             	cmp    %rdx,%rcx
    40001afa:	74 32                	je     40001b2e <primal_iminus+0x6e>
    40001afc:	4c 8b 51 58          	mov    0x58(%rcx),%r10
    40001b00:	4c 39 52 58          	cmp    %r10,0x58(%rdx)
    40001b04:	7c ca                	jl     40001ad0 <primal_iminus+0x10>
    40001b06:	44 8b 49 08          	mov    0x8(%rcx),%r9d
    40001b0a:	45 85 c9             	test   %r9d,%r9d
    40001b0d:	75 29                	jne    40001b38 <primal_iminus+0x78>
    40001b0f:	4c 8b 49 50          	mov    0x50(%rcx),%r9
    40001b13:	4c 39 0f             	cmp    %r9,(%rdi)
    40001b16:	7c 0d                	jl     40001b25 <primal_iminus+0x65>
    40001b18:	4c 89 0f             	mov    %r9,(%rdi)
    40001b1b:	48 89 c8             	mov    %rcx,%rax
    40001b1e:	48 c7 06 01 00 00 00 	movq   $0x1,(%rsi)
    40001b25:	48 8b 49 18          	mov    0x18(%rcx),%rcx
    40001b29:	48 39 d1             	cmp    %rdx,%rcx
    40001b2c:	75 ce                	jne    40001afc <primal_iminus+0x3c>
    40001b2e:	49 89 10             	mov    %rdx,(%r8)
    40001b31:	c3                   	retq   
    40001b32:	66 0f 1f 44 00 00    	nopw   0x0(%rax,%rax,1)
    40001b38:	4c 8b 49 18          	mov    0x18(%rcx),%r9
    40001b3c:	49 83 79 18 00       	cmpq   $0x0,0x18(%r9)
    40001b41:	74 55                	je     40001b98 <primal_iminus+0xd8>
    40001b43:	4d 89 da             	mov    %r11,%r10
    40001b46:	4c 2b 51 50          	sub    0x50(%rcx),%r10
    40001b4a:	4c 39 17             	cmp    %r10,(%rdi)
    40001b4d:	7c 49                	jl     40001b98 <primal_iminus+0xd8>
    40001b4f:	4c 89 17             	mov    %r10,(%rdi)
    40001b52:	48 89 c8             	mov    %rcx,%rax
    40001b55:	48 c7 06 01 00 00 00 	movq   $0x1,(%rsi)
    40001b5c:	4c 89 c9             	mov    %r9,%rcx
    40001b5f:	eb 96                	jmp    40001af7 <primal_iminus+0x37>
    40001b61:	0f 1f 80 00 00 00 00 	nopl   0x0(%rax)
    40001b68:	4c 8b 4a 18          	mov    0x18(%rdx),%r9
    40001b6c:	49 83 79 18 00       	cmpq   $0x0,0x18(%r9)
    40001b71:	74 2d                	je     40001ba0 <primal_iminus+0xe0>
    40001b73:	4d 89 da             	mov    %r11,%r10
    40001b76:	4c 2b 52 50          	sub    0x50(%rdx),%r10
    40001b7a:	4c 39 17             	cmp    %r10,(%rdi)
    40001b7d:	7e 21                	jle    40001ba0 <primal_iminus+0xe0>
    40001b7f:	4c 89 17             	mov    %r10,(%rdi)
    40001b82:	48 89 d0             	mov    %rdx,%rax
    40001b85:	48 c7 06 00 00 00 00 	movq   $0x0,(%rsi)
    40001b8c:	4c 89 ca             	mov    %r9,%rdx
    40001b8f:	e9 63 ff ff ff       	jmpq   40001af7 <primal_iminus+0x37>
    40001b94:	0f 1f 40 00          	nopl   0x0(%rax)
    40001b98:	4c 89 c9             	mov    %r9,%rcx
    40001b9b:	e9 57 ff ff ff       	jmpq   40001af7 <primal_iminus+0x37>
    40001ba0:	4c 89 ca             	mov    %r9,%rdx
    40001ba3:	e9 4f ff ff ff       	jmpq   40001af7 <primal_iminus+0x37>
    40001ba8:	0f 1f 84 00 00 00 00 	nopl   0x0(%rax,%rax,1)
    40001baf:	00 

0000000040001bb0 <primal_update_flow>:
    40001bb0:	48 39 d7             	cmp    %rdx,%rdi
    40001bb3:	74 1c                	je     40001bd1 <primal_update_flow+0x21>
    40001bb5:	0f 1f 00             	nopl   (%rax)
    40001bb8:	44 8b 47 08          	mov    0x8(%rdi),%r8d
    40001bbc:	31 c0                	xor    %eax,%eax
    40001bbe:	45 85 c0             	test   %r8d,%r8d
    40001bc1:	0f 94 c0             	sete   %al
    40001bc4:	48 89 47 50          	mov    %rax,0x50(%rdi)
    40001bc8:	48 8b 7f 18          	mov    0x18(%rdi),%rdi
    40001bcc:	48 39 fa             	cmp    %rdi,%rdx
    40001bcf:	75 e7                	jne    40001bb8 <primal_update_flow+0x8>
    40001bd1:	48 39 f2             	cmp    %rsi,%rdx
    40001bd4:	74 23                	je     40001bf9 <primal_update_flow+0x49>
    40001bd6:	66 2e 0f 1f 84 00 00 	nopw   %cs:0x0(%rax,%rax,1)
    40001bdd:	00 00 00 
    40001be0:	8b 4e 08             	mov    0x8(%rsi),%ecx
    40001be3:	31 c0                	xor    %eax,%eax
    40001be5:	85 c9                	test   %ecx,%ecx
    40001be7:	0f 95 c0             	setne  %al
    40001bea:	48 89 46 50          	mov    %rax,0x50(%rsi)
    40001bee:	48 8b 76 18          	mov    0x18(%rsi),%rsi
    40001bf2:	48 39 f2             	cmp    %rsi,%rdx
    40001bf5:	75 e9                	jne    40001be0 <primal_update_flow+0x30>
    40001bf7:	f3 c3                	repz retq 
    40001bf9:	f3 c3                	repz retq 
    40001bfb:	0f 1f 44 00 00       	nopl   0x0(%rax,%rax,1)

0000000040001c00 <primal_net_simplex>:
    40001c00:	41 57                	push   %r15
    40001c02:	41 56                	push   %r14
    40001c04:	41 55                	push   %r13
    40001c06:	41 54                	push   %r12
    40001c08:	55                   	push   %rbp
    40001c09:	53                   	push   %rbx
    40001c0a:	48 89 fd             	mov    %rdi,%rbp
    40001c0d:	48 83 ec 68          	sub    $0x68,%rsp
    40001c11:	48 8b 87 38 02 00 00 	mov    0x238(%rdi),%rax
    40001c18:	48 89 44 24 08       	mov    %rax,0x8(%rsp)
    40001c1d:	48 8b 87 40 02 00 00 	mov    0x240(%rdi),%rax
    40001c24:	48 89 44 24 10       	mov    %rax,0x10(%rsp)
    40001c29:	48 8b 87 a8 01 00 00 	mov    0x1a8(%rdi),%rax
    40001c30:	48 89 44 24 18       	mov    %rax,0x18(%rsp)
    40001c35:	48 8d 44 24 58       	lea    0x58(%rsp),%rax
    40001c3a:	48 89 44 24 20       	mov    %rax,0x20(%rsp)
    40001c3f:	48 8d 44 24 50       	lea    0x50(%rsp),%rax
    40001c44:	48 89 44 24 28       	mov    %rax,0x28(%rsp)
    40001c49:	48 8d 44 24 48       	lea    0x48(%rsp),%rax
    40001c4e:	48 89 44 24 30       	mov    %rax,0x30(%rsp)
    40001c53:	48 8d 44 24 40       	lea    0x40(%rsp),%rax
    40001c58:	48 89 44 24 38       	mov    %rax,0x38(%rsp)
    40001c5d:	0f 1f 00             	nopl   (%rax)
    40001c60:	48 8b 4c 24 20       	mov    0x20(%rsp),%rcx
    40001c65:	48 8b 54 24 10       	mov    0x10(%rsp),%rdx
    40001c6a:	48 8b 74 24 08       	mov    0x8(%rsp),%rsi
    40001c6f:	48 8b 7c 24 18       	mov    0x18(%rsp),%rdi
    40001c74:	e8 c7 02 00 00       	callq  40001f40 <primal_bea_mpp>
    40001c79:	48 85 c0             	test   %rax,%rax
    40001c7c:	48 89 c3             	mov    %rax,%rbx
    40001c7f:	0f 84 8b 01 00 00    	je     40001e10 <primal_net_simplex+0x210>
    40001c85:	48 83 85 58 02 00 00 	addq   $0x1,0x258(%rbp)
    40001c8c:	01 
    40001c8d:	48 83 7c 24 58 00    	cmpq   $0x0,0x58(%rsp)
    40001c93:	4c 8b 63 08          	mov    0x8(%rbx),%r12
    40001c97:	4c 8b 6b 10          	mov    0x10(%rbx),%r13
    40001c9b:	0f 8e 0f 01 00 00    	jle    40001db0 <primal_net_simplex+0x1b0>
    40001ca1:	4c 8b 44 24 28       	mov    0x28(%rsp),%r8
    40001ca6:	48 8b 74 24 30       	mov    0x30(%rsp),%rsi
    40001cab:	4c 89 e1             	mov    %r12,%rcx
    40001cae:	48 8b 7c 24 38       	mov    0x38(%rsp),%rdi
    40001cb3:	4c 89 ea             	mov    %r13,%rdx
    40001cb6:	48 c7 44 24 40 01 00 	movq   $0x1,0x40(%rsp)
    40001cbd:	00 00 
    40001cbf:	e8 fc fd ff ff       	callq  40001ac0 <primal_iminus>
    40001cc4:	48 85 c0             	test   %rax,%rax
    40001cc7:	0f 84 03 01 00 00    	je     40001dd0 <primal_net_simplex+0x1d0>
    40001ccd:	48 8b 7c 24 48       	mov    0x48(%rsp),%rdi
    40001cd2:	48 85 ff             	test   %rdi,%rdi
    40001cd5:	75 09                	jne    40001ce0 <primal_net_simplex+0xe0>
    40001cd7:	4c 89 e2             	mov    %r12,%rdx
    40001cda:	4d 89 ec             	mov    %r13,%r12
    40001cdd:	49 89 d5             	mov    %rdx,%r13
    40001ce0:	48 63 50 08          	movslq 0x8(%rax),%rdx
    40001ce4:	4c 8b 44 24 58       	mov    0x58(%rsp),%r8
    40001ce9:	45 31 f6             	xor    %r14d,%r14d
    40001cec:	4c 8b 48 18          	mov    0x18(%rax),%r9
    40001cf0:	4c 8b 78 30          	mov    0x30(%rax),%r15
    40001cf4:	48 39 d7             	cmp    %rdx,%rdi
    40001cf7:	41 0f 94 c6          	sete   %r14b
    40001cfb:	41 83 c6 01          	add    $0x1,%r14d
    40001cff:	4d 85 c0             	test   %r8,%r8
    40001d02:	0f 8e b8 00 00 00    	jle    40001dc0 <primal_net_simplex+0x1c0>
    40001d08:	48 8b 54 24 40       	mov    0x40(%rsp),%rdx
    40001d0d:	b9 01 00 00 00       	mov    $0x1,%ecx
    40001d12:	48 29 d1             	sub    %rdx,%rcx
    40001d15:	31 f6                	xor    %esi,%esi
    40001d17:	4c 39 63 08          	cmp    %r12,0x8(%rbx)
    40001d1b:	ff b5 00 02 00 00    	pushq  0x200(%rbp)
    40001d21:	41 50                	push   %r8
    40001d23:	53                   	push   %rbx
    40001d24:	4d 89 e0             	mov    %r12,%r8
    40001d27:	ff 74 24 68          	pushq  0x68(%rsp)
    40001d2b:	41 51                	push   %r9
    40001d2d:	4d 89 e9             	mov    %r13,%r9
    40001d30:	50                   	push   %rax
    40001d31:	40 0f 94 c6          	sete   %sil
    40001d35:	48 85 ff             	test   %rdi,%rdi
    40001d38:	40 0f 94 c7          	sete   %dil
    40001d3c:	40 0f b6 ff          	movzbl %dil,%edi
    40001d40:	e8 2b fb ff ff       	callq  40001870 <update_tree>
    40001d45:	48 8b 85 58 02 00 00 	mov    0x258(%rbp),%rax
    40001d4c:	48 83 c4 30          	add    $0x30,%rsp
    40001d50:	c7 43 18 00 00 00 00 	movl   $0x0,0x18(%rbx)
    40001d57:	45 89 77 18          	mov    %r14d,0x18(%r15)
    40001d5b:	48 8d 48 ff          	lea    -0x1(%rax),%rcx
    40001d5f:	48 b8 0b d7 a3 70 3d 	movabs $0xa3d70a3d70a3d70b,%rax
    40001d66:	0a d7 a3 
    40001d69:	48 f7 e9             	imul   %rcx
    40001d6c:	48 89 c8             	mov    %rcx,%rax
    40001d6f:	48 c1 f8 3f          	sar    $0x3f,%rax
    40001d73:	48 01 ca             	add    %rcx,%rdx
    40001d76:	48 c1 fa 07          	sar    $0x7,%rdx
    40001d7a:	48 29 c2             	sub    %rax,%rdx
    40001d7d:	48 8d 04 92          	lea    (%rdx,%rdx,4),%rax
    40001d81:	48 8d 04 80          	lea    (%rax,%rax,4),%rax
    40001d85:	48 c1 e0 03          	shl    $0x3,%rax
    40001d89:	48 39 c1             	cmp    %rax,%rcx
    40001d8c:	0f 85 ce fe ff ff    	jne    40001c60 <primal_net_simplex+0x60>
    40001d92:	48 89 ef             	mov    %rbp,%rdi
    40001d95:	e8 f6 e6 ff ff       	callq  40000490 <refresh_potential>
    40001d9a:	48 01 85 68 02 00 00 	add    %rax,0x268(%rbp)
    40001da1:	e9 ba fe ff ff       	jmpq   40001c60 <primal_net_simplex+0x60>
    40001da6:	66 2e 0f 1f 84 00 00 	nopw   %cs:0x0(%rax,%rax,1)
    40001dad:	00 00 00 
    40001db0:	4c 89 e8             	mov    %r13,%rax
    40001db3:	4d 89 e5             	mov    %r12,%r13
    40001db6:	49 89 c4             	mov    %rax,%r12
    40001db9:	e9 e3 fe ff ff       	jmpq   40001ca1 <primal_net_simplex+0xa1>
    40001dbe:	66 90                	xchg   %ax,%ax
    40001dc0:	48 8b 4c 24 40       	mov    0x40(%rsp),%rcx
    40001dc5:	48 89 ca             	mov    %rcx,%rdx
    40001dc8:	e9 48 ff ff ff       	jmpq   40001d15 <primal_net_simplex+0x115>
    40001dcd:	0f 1f 00             	nopl   (%rax)
    40001dd0:	48 83 85 60 02 00 00 	addq   $0x1,0x260(%rbp)
    40001dd7:	01 
    40001dd8:	31 c0                	xor    %eax,%eax
    40001dda:	83 7b 18 02          	cmpl   $0x2,0x18(%rbx)
    40001dde:	0f 95 c0             	setne  %al
    40001de1:	83 c0 01             	add    $0x1,%eax
    40001de4:	48 83 7c 24 40 00    	cmpq   $0x0,0x40(%rsp)
    40001dea:	89 43 18             	mov    %eax,0x18(%rbx)
    40001ded:	0f 84 6d fe ff ff    	je     40001c60 <primal_net_simplex+0x60>
    40001df3:	48 8b 54 24 50       	mov    0x50(%rsp),%rdx
    40001df8:	4c 89 e6             	mov    %r12,%rsi
    40001dfb:	4c 89 ef             	mov    %r13,%rdi
    40001dfe:	e8 ad fd ff ff       	callq  40001bb0 <primal_update_flow>
    40001e03:	e9 58 fe ff ff       	jmpq   40001c60 <primal_net_simplex+0x60>
    40001e08:	0f 1f 84 00 00 00 00 	nopl   0x0(%rax,%rax,1)
    40001e0f:	00 
    40001e10:	48 89 ef             	mov    %rbp,%rdi
    40001e13:	e8 78 e6 ff ff       	callq  40000490 <refresh_potential>
    40001e18:	48 01 85 68 02 00 00 	add    %rax,0x268(%rbp)
    40001e1f:	48 89 ef             	mov    %rbp,%rdi
    40001e22:	e8 69 e9 ff ff       	callq  40000790 <primal_feasible>
    40001e27:	48 89 ef             	mov    %rbp,%rdi
    40001e2a:	e8 91 ea ff ff       	callq  400008c0 <dual_feasible>
    40001e2f:	48 83 c4 68          	add    $0x68,%rsp
    40001e33:	31 c0                	xor    %eax,%eax
    40001e35:	5b                   	pop    %rbx
    40001e36:	5d                   	pop    %rbp
    40001e37:	41 5c                	pop    %r12
    40001e39:	41 5d                	pop    %r13
    40001e3b:	41 5e                	pop    %r14
    40001e3d:	41 5f                	pop    %r15
    40001e3f:	c3                   	retq   

0000000040001e40 <bea_is_dual_infeasible>:
    40001e40:	48 85 f6             	test   %rsi,%rsi
    40001e43:	78 13                	js     40001e58 <bea_is_dual_infeasible+0x18>
    40001e45:	74 21                	je     40001e68 <bea_is_dual_infeasible+0x28>
    40001e47:	31 c0                	xor    %eax,%eax
    40001e49:	83 7f 18 02          	cmpl   $0x2,0x18(%rdi)
    40001e4d:	0f 94 c0             	sete   %al
    40001e50:	c3                   	retq   
    40001e51:	0f 1f 80 00 00 00 00 	nopl   0x0(%rax)
    40001e58:	31 c0                	xor    %eax,%eax
    40001e5a:	83 7f 18 01          	cmpl   $0x1,0x18(%rdi)
    40001e5e:	0f 94 c0             	sete   %al
    40001e61:	c3                   	retq   
    40001e62:	66 0f 1f 44 00 00    	nopw   0x0(%rax,%rax,1)
    40001e68:	31 c0                	xor    %eax,%eax
    40001e6a:	c3                   	retq   
    40001e6b:	0f 1f 44 00 00       	nopl   0x0(%rax,%rax,1)

0000000040001e70 <sort_basket>:
    40001e70:	41 55                	push   %r13
    40001e72:	41 54                	push   %r12
    40001e74:	4c 8d 25 bd 00 40 00 	lea    0x4000bd(%rip),%r12        # 40401f38 <nr_group+0x10>
    40001e7b:	55                   	push   %rbp
    40001e7c:	53                   	push   %rbx
    40001e7d:	48 8d 1d bc 00 40 00 	lea    0x4000bc(%rip),%rbx        # 40401f40 <perm>
    40001e84:	49 89 f5             	mov    %rsi,%r13
    40001e87:	48 83 ec 08          	sub    $0x8,%rsp
    40001e8b:	4a 8d 04 2f          	lea    (%rdi,%r13,1),%rax
    40001e8f:	48 8d 4f 01          	lea    0x1(%rdi),%rcx
    40001e93:	4c 89 ee             	mov    %r13,%rsi
    40001e96:	48 89 c2             	mov    %rax,%rdx
    40001e99:	48 c1 ea 3f          	shr    $0x3f,%rdx
    40001e9d:	48 01 d0             	add    %rdx,%rax
    40001ea0:	48 d1 f8             	sar    %rax
    40001ea3:	48 8b 04 c3          	mov    (%rbx,%rax,8),%rax
    40001ea7:	48 8b 50 10          	mov    0x10(%rax),%rdx
    40001eab:	eb 07                	jmp    40001eb4 <sort_basket+0x44>
    40001ead:	0f 1f 00             	nopl   (%rax)
    40001eb0:	48 83 c1 01          	add    $0x1,%rcx
    40001eb4:	4d 8b 04 cc          	mov    (%r12,%rcx,8),%r8
    40001eb8:	48 8d 69 ff          	lea    -0x1(%rcx),%rbp
    40001ebc:	4c 8d 0c cd 00 00 00 	lea    0x0(,%rcx,8),%r9
    40001ec3:	00 
    40001ec4:	49 3b 50 10          	cmp    0x10(%r8),%rdx
    40001ec8:	7c e6                	jl     40001eb0 <sort_basket+0x40>
    40001eca:	48 8b 04 f3          	mov    (%rbx,%rsi,8),%rax
    40001ece:	48 3b 50 10          	cmp    0x10(%rax),%rdx
    40001ed2:	7e 12                	jle    40001ee6 <sort_basket+0x76>
    40001ed4:	0f 1f 40 00          	nopl   0x0(%rax)
    40001ed8:	48 83 ee 01          	sub    $0x1,%rsi
    40001edc:	48 8b 04 f3          	mov    (%rbx,%rsi,8),%rax
    40001ee0:	48 3b 50 10          	cmp    0x10(%rax),%rdx
    40001ee4:	7f f2                	jg     40001ed8 <sort_basket+0x68>
    40001ee6:	48 39 ee             	cmp    %rbp,%rsi
    40001ee9:	7e 1d                	jle    40001f08 <sort_basket+0x98>
    40001eeb:	4b 89 04 0c          	mov    %rax,(%r12,%r9,1)
    40001eef:	4c 89 04 f3          	mov    %r8,(%rbx,%rsi,8)
    40001ef3:	48 83 ee 01          	sub    $0x1,%rsi
    40001ef7:	48 89 cd             	mov    %rcx,%rbp
    40001efa:	48 39 f1             	cmp    %rsi,%rcx
    40001efd:	7e b1                	jle    40001eb0 <sort_basket+0x40>
    40001eff:	eb 09                	jmp    40001f0a <sort_basket+0x9a>
    40001f01:	0f 1f 80 00 00 00 00 	nopl   0x0(%rax)
    40001f08:	7d e9                	jge    40001ef3 <sort_basket+0x83>
    40001f0a:	48 39 f7             	cmp    %rsi,%rdi
    40001f0d:	7d 05                	jge    40001f14 <sort_basket+0xa4>
    40001f0f:	e8 5c ff ff ff       	callq  40001e70 <sort_basket>
    40001f14:	49 39 ed             	cmp    %rbp,%r13
    40001f17:	7e 0e                	jle    40001f27 <sort_basket+0xb7>
    40001f19:	48 83 fd 32          	cmp    $0x32,%rbp
    40001f1d:	7f 08                	jg     40001f27 <sort_basket+0xb7>
    40001f1f:	48 89 ef             	mov    %rbp,%rdi
    40001f22:	e9 64 ff ff ff       	jmpq   40001e8b <sort_basket+0x1b>
    40001f27:	48 83 c4 08          	add    $0x8,%rsp
    40001f2b:	5b                   	pop    %rbx
    40001f2c:	5d                   	pop    %rbp
    40001f2d:	41 5c                	pop    %r12
    40001f2f:	41 5d                	pop    %r13
    40001f31:	c3                   	retq   
    40001f32:	0f 1f 40 00          	nopl   0x0(%rax)
    40001f36:	66 2e 0f 1f 84 00 00 	nopw   %cs:0x0(%rax,%rax,1)
    40001f3d:	00 00 00 

0000000040001f40 <primal_bea_mpp>:
    40001f40:	41 57                	push   %r15
    40001f42:	41 56                	push   %r14
    40001f44:	49 89 f6             	mov    %rsi,%r14
    40001f47:	41 55                	push   %r13
    40001f49:	41 54                	push   %r12
    40001f4b:	55                   	push   %rbp
    40001f4c:	53                   	push   %rbx
    40001f4d:	48 89 d5             	mov    %rdx,%rbp
    40001f50:	48 83 ec 18          	sub    $0x18,%rsp
    40001f54:	48 83 3d c4 fd 3f 00 	cmpq   $0x0,0x3ffdc4(%rip)        # 40401d20 <initialize>
    40001f5b:	00 
    40001f5c:	48 89 4c 24 08       	mov    %rcx,0x8(%rsp)
    40001f61:	0f 85 c9 01 00 00    	jne    40002130 <primal_bea_mpp+0x1f0>
    40001f67:	4c 8b 0d ba 2b 40 00 	mov    0x402bba(%rip),%r9        # 40404b28 <basket_size>
    40001f6e:	45 31 c0             	xor    %r8d,%r8d
    40001f71:	b9 02 00 00 00       	mov    $0x2,%ecx
    40001f76:	eb 1a                	jmp    40001f92 <primal_bea_mpp+0x52>
    40001f78:	0f 1f 84 00 00 00 00 	nopl   0x0(%rax,%rax,1)
    40001f7f:	00 
    40001f80:	74 06                	je     40001f88 <primal_bea_mpp+0x48>
    40001f82:	83 7a 18 02          	cmpl   $0x2,0x18(%rdx)
    40001f86:	74 36                	je     40001fbe <primal_bea_mpp+0x7e>
    40001f88:	48 83 c1 01          	add    $0x1,%rcx
    40001f8c:	48 83 f9 33          	cmp    $0x33,%rcx
    40001f90:	74 5b                	je     40001fed <primal_bea_mpp+0xad>
    40001f92:	4c 39 c9             	cmp    %r9,%rcx
    40001f95:	7f 56                	jg     40001fed <primal_bea_mpp+0xad>
    40001f97:	48 8d 3d a2 ff 3f 00 	lea    0x3fffa2(%rip),%rdi        # 40401f40 <perm>
    40001f9e:	48 8b 04 cf          	mov    (%rdi,%rcx,8),%rax
    40001fa2:	48 8b 10             	mov    (%rax),%rdx
    40001fa5:	48 8b 72 08          	mov    0x8(%rdx),%rsi
    40001fa9:	48 8b 02             	mov    (%rdx),%rax
    40001fac:	48 2b 06             	sub    (%rsi),%rax
    40001faf:	48 8b 72 10          	mov    0x10(%rdx),%rsi
    40001fb3:	48 03 06             	add    (%rsi),%rax
    40001fb6:	79 c8                	jns    40001f80 <primal_bea_mpp+0x40>
    40001fb8:	83 7a 18 01          	cmpl   $0x1,0x18(%rdx)
    40001fbc:	75 ca                	jne    40001f88 <primal_bea_mpp+0x48>
    40001fbe:	49 83 c0 01          	add    $0x1,%r8
    40001fc2:	48 83 c1 01          	add    $0x1,%rcx
    40001fc6:	4a 8b 34 c7          	mov    (%rdi,%r8,8),%rsi
    40001fca:	48 89 16             	mov    %rdx,(%rsi)
    40001fcd:	4a 8b 14 c7          	mov    (%rdi,%r8,8),%rdx
    40001fd1:	48 89 c6             	mov    %rax,%rsi
    40001fd4:	48 c1 fe 3f          	sar    $0x3f,%rsi
    40001fd8:	48 89 42 08          	mov    %rax,0x8(%rdx)
    40001fdc:	48 31 f0             	xor    %rsi,%rax
    40001fdf:	48 89 42 10          	mov    %rax,0x10(%rdx)
    40001fe3:	48 29 72 10          	sub    %rsi,0x10(%rdx)
    40001fe7:	48 83 f9 33          	cmp    $0x33,%rcx
    40001feb:	75 a5                	jne    40001f92 <primal_bea_mpp+0x52>
    40001fed:	4c 8b 25 2c ff 3f 00 	mov    0x3fff2c(%rip),%r12        # 40401f20 <group_pos>
    40001ff4:	4c 89 05 2d 2b 40 00 	mov    %r8,0x402b2d(%rip)        # 40404b28 <basket_size>
    40001ffb:	4c 89 e2             	mov    %r12,%rdx
    40001ffe:	45 31 ed             	xor    %r13d,%r13d
    40002001:	0f 1f 80 00 00 00 00 	nopl   0x0(%rax)
    40002008:	48 89 d3             	mov    %rdx,%rbx
    4000200b:	48 8b 05 16 ff 3f 00 	mov    0x3fff16(%rip),%rax        # 40401f28 <nr_group>
    40002012:	48 c1 e3 06          	shl    $0x6,%rbx
    40002016:	4c 01 f3             	add    %r14,%rbx
    40002019:	48 39 eb             	cmp    %rbp,%rbx
    4000201c:	0f 83 8a 00 00 00    	jae    400020ac <primal_bea_mpp+0x16c>
    40002022:	66 0f 1f 44 00 00    	nopw   0x0(%rax,%rax,1)
    40002028:	8b 43 18             	mov    0x18(%rbx),%eax
    4000202b:	85 c0                	test   %eax,%eax
    4000202d:	7e 60                	jle    4000208f <primal_bea_mpp+0x14f>
    4000202f:	48 8b 43 08          	mov    0x8(%rbx),%rax
    40002033:	48 8b 13             	mov    (%rbx),%rdx
    40002036:	48 89 df             	mov    %rbx,%rdi
    40002039:	48 2b 10             	sub    (%rax),%rdx
    4000203c:	48 8b 43 10          	mov    0x10(%rbx),%rax
    40002040:	48 03 10             	add    (%rax),%rdx
    40002043:	48 89 d6             	mov    %rdx,%rsi
    40002046:	49 89 d7             	mov    %rdx,%r15
    40002049:	e8 f2 fd ff ff       	callq  40001e40 <bea_is_dual_infeasible>
    4000204e:	85 c0                	test   %eax,%eax
    40002050:	74 3d                	je     4000208f <primal_bea_mpp+0x14f>
    40002052:	48 8b 05 cf 2a 40 00 	mov    0x402acf(%rip),%rax        # 40404b28 <basket_size>
    40002059:	48 8d 0d e0 fe 3f 00 	lea    0x3ffee0(%rip),%rcx        # 40401f40 <perm>
    40002060:	4c 89 fa             	mov    %r15,%rdx
    40002063:	48 83 c0 01          	add    $0x1,%rax
    40002067:	48 8b 34 c1          	mov    (%rcx,%rax,8),%rsi
    4000206b:	48 89 05 b6 2a 40 00 	mov    %rax,0x402ab6(%rip)        # 40404b28 <basket_size>
    40002072:	48 89 1e             	mov    %rbx,(%rsi)
    40002075:	48 8b 04 c1          	mov    (%rcx,%rax,8),%rax
    40002079:	4c 89 f9             	mov    %r15,%rcx
    4000207c:	48 c1 f9 3f          	sar    $0x3f,%rcx
    40002080:	48 31 ca             	xor    %rcx,%rdx
    40002083:	48 89 50 10          	mov    %rdx,0x10(%rax)
    40002087:	48 29 48 10          	sub    %rcx,0x10(%rax)
    4000208b:	4c 89 78 08          	mov    %r15,0x8(%rax)
    4000208f:	48 8b 05 92 fe 3f 00 	mov    0x3ffe92(%rip),%rax        # 40401f28 <nr_group>
    40002096:	48 89 c2             	mov    %rax,%rdx
    40002099:	48 c1 e2 06          	shl    $0x6,%rdx
    4000209d:	48 01 d3             	add    %rdx,%rbx
    400020a0:	48 39 dd             	cmp    %rbx,%rbp
    400020a3:	77 83                	ja     40002028 <primal_bea_mpp+0xe8>
    400020a5:	48 8b 15 74 fe 3f 00 	mov    0x3ffe74(%rip),%rdx        # 40401f20 <group_pos>
    400020ac:	48 8b 35 75 2a 40 00 	mov    0x402a75(%rip),%rsi        # 40404b28 <basket_size>
    400020b3:	48 83 c2 01          	add    $0x1,%rdx
    400020b7:	48 39 c2             	cmp    %rax,%rdx
    400020ba:	49 0f 44 d5          	cmove  %r13,%rdx
    400020be:	48 83 fe 31          	cmp    $0x31,%rsi
    400020c2:	48 89 15 57 fe 3f 00 	mov    %rdx,0x3ffe57(%rip)        # 40401f20 <group_pos>
    400020c9:	7f 36                	jg     40002101 <primal_bea_mpp+0x1c1>
    400020cb:	4c 39 e2             	cmp    %r12,%rdx
    400020ce:	0f 85 34 ff ff ff    	jne    40002008 <primal_bea_mpp+0xc8>
    400020d4:	48 85 f6             	test   %rsi,%rsi
    400020d7:	75 28                	jne    40002101 <primal_bea_mpp+0x1c1>
    400020d9:	48 8b 44 24 08       	mov    0x8(%rsp),%rax
    400020de:	48 c7 05 37 fc 3f 00 	movq   $0x1,0x3ffc37(%rip)        # 40401d20 <initialize>
    400020e5:	01 00 00 00 
    400020e9:	48 c7 00 00 00 00 00 	movq   $0x0,(%rax)
    400020f0:	48 83 c4 18          	add    $0x18,%rsp
    400020f4:	31 c0                	xor    %eax,%eax
    400020f6:	5b                   	pop    %rbx
    400020f7:	5d                   	pop    %rbp
    400020f8:	41 5c                	pop    %r12
    400020fa:	41 5d                	pop    %r13
    400020fc:	41 5e                	pop    %r14
    400020fe:	41 5f                	pop    %r15
    40002100:	c3                   	retq   
    40002101:	bf 01 00 00 00       	mov    $0x1,%edi
    40002106:	e8 65 fd ff ff       	callq  40001e70 <sort_basket>
    4000210b:	48 8b 05 36 fe 3f 00 	mov    0x3ffe36(%rip),%rax        # 40401f48 <perm+0x8>
    40002112:	48 8b 7c 24 08       	mov    0x8(%rsp),%rdi
    40002117:	48 8b 50 08          	mov    0x8(%rax),%rdx
    4000211b:	48 8b 00             	mov    (%rax),%rax
    4000211e:	48 89 17             	mov    %rdx,(%rdi)
    40002121:	48 83 c4 18          	add    $0x18,%rsp
    40002125:	5b                   	pop    %rbx
    40002126:	5d                   	pop    %rbp
    40002127:	41 5c                	pop    %r12
    40002129:	41 5d                	pop    %r13
    4000212b:	41 5e                	pop    %r14
    4000212d:	41 5f                	pop    %r15
    4000212f:	c3                   	retq   
    40002130:	48 8d 05 21 09 40 00 	lea    0x400921(%rip),%rax        # 40402a58 <basket+0x18>
    40002137:	48 8d 15 0a fe 3f 00 	lea    0x3ffe0a(%rip),%rdx        # 40401f48 <perm+0x8>
    4000213e:	48 8d 0d e3 29 40 00 	lea    0x4029e3(%rip),%rcx        # 40404b28 <basket_size>
    40002145:	0f 1f 00             	nopl   (%rax)
    40002148:	48 89 02             	mov    %rax,(%rdx)
    4000214b:	48 83 c0 18          	add    $0x18,%rax
    4000214f:	48 83 c2 08          	add    $0x8,%rdx
    40002153:	48 39 c1             	cmp    %rax,%rcx
    40002156:	75 f0                	jne    40002148 <primal_bea_mpp+0x208>
    40002158:	48 8d 4f ff          	lea    -0x1(%rdi),%rcx
    4000215c:	48 ba 07 3a 6d a0 d3 	movabs $0x6d3a06d3a06d3a07,%rdx
    40002163:	06 3a 6d 
    40002166:	48 c7 05 af fd 3f 00 	movq   $0x0,0x3ffdaf(%rip)        # 40401f20 <group_pos>
    4000216d:	00 00 00 00 
    40002171:	48 c7 05 ac 29 40 00 	movq   $0x0,0x4029ac(%rip)        # 40404b28 <basket_size>
    40002178:	00 00 00 00 
    4000217c:	48 c7 05 99 fb 3f 00 	movq   $0x0,0x3ffb99(%rip)        # 40401d20 <initialize>
    40002183:	00 00 00 00 
    40002187:	45 31 e4             	xor    %r12d,%r12d
    4000218a:	48 89 c8             	mov    %rcx,%rax
    4000218d:	48 c1 f9 3f          	sar    $0x3f,%rcx
    40002191:	48 f7 ea             	imul   %rdx
    40002194:	48 c1 fa 07          	sar    $0x7,%rdx
    40002198:	48 29 ca             	sub    %rcx,%rdx
    4000219b:	48 8d 42 01          	lea    0x1(%rdx),%rax
    4000219f:	48 89 05 82 fd 3f 00 	mov    %rax,0x3ffd82(%rip)        # 40401f28 <nr_group>
    400021a6:	e9 50 fe ff ff       	jmpq   40001ffb <primal_bea_mpp+0xbb>

00000000400021ab <init_syscall>:
    400021ab:	55                   	push   %rbp
    400021ac:	48 89 e5             	mov    %rsp,%rbp
    400021af:	48 89 7d d8          	mov    %rdi,-0x28(%rbp)
    400021b3:	48 8b 45 d8          	mov    -0x28(%rbp),%rax
    400021b7:	48 8b 40 18          	mov    0x18(%rax),%rax
    400021bb:	48 89 45 e8          	mov    %rax,-0x18(%rbp)
    400021bf:	48 83 7d e8 00       	cmpq   $0x0,-0x18(%rbp)
    400021c4:	0f 85 95 00 00 00    	jne    4000225f <init_syscall+0xb4>
    400021ca:	48 8b 45 d8          	mov    -0x28(%rbp),%rax
    400021ce:	48 8b 10             	mov    (%rax),%rdx
    400021d1:	48 8d 05 98 36 40 00 	lea    0x403698(%rip),%rax        # 40405870 <outside_tramp>
    400021d8:	48 89 10             	mov    %rdx,(%rax)
    400021db:	48 8b 45 d8          	mov    -0x28(%rbp),%rax
    400021df:	48 8b 50 28          	mov    0x28(%rax),%rdx
    400021e3:	48 8d 05 8e 36 40 00 	lea    0x40368e(%rip),%rax        # 40405878 <fake_heap>
    400021ea:	48 89 10             	mov    %rdx,(%rax)
    400021ed:	48 8b 45 d8          	mov    -0x28(%rbp),%rax
    400021f1:	48 8b 50 30          	mov    0x30(%rax),%rdx
    400021f5:	48 8d 05 cc 33 40 00 	lea    0x4033cc(%rip),%rax        # 404055c8 <mcode_pages>
    400021fc:	48 89 10             	mov    %rdx,(%rax)
    400021ff:	48 8b 45 d8          	mov    -0x28(%rbp),%rax
    40002203:	48 8b 50 38          	mov    0x38(%rax),%rdx
    40002207:	48 8d 05 c2 33 40 00 	lea    0x4033c2(%rip),%rax        # 404055d0 <mdata_pages>
    4000220e:	48 89 10             	mov    %rdx,(%rax)
    40002211:	48 8b 45 d8          	mov    -0x28(%rbp),%rax
    40002215:	48 8b 50 40          	mov    0x40(%rax),%rdx
    40002219:	48 8d 05 b8 33 40 00 	lea    0x4033b8(%rip),%rax        # 404055d8 <mheap_pages>
    40002220:	48 89 10             	mov    %rdx,(%rax)
    40002223:	48 8b 45 d8          	mov    -0x28(%rbp),%rax
    40002227:	48 8b 50 48          	mov    0x48(%rax),%rdx
    4000222b:	48 8d 05 ae 33 40 00 	lea    0x4033ae(%rip),%rax        # 404055e0 <mstack_pages>
    40002232:	48 89 10             	mov    %rdx,(%rax)
    40002235:	48 8b 45 d8          	mov    -0x28(%rbp),%rax
    40002239:	48 8b 50 50          	mov    0x50(%rax),%rdx
    4000223d:	48 8d 05 a4 33 40 00 	lea    0x4033a4(%rip),%rax        # 404055e8 <mthread_pages>
    40002244:	48 89 10             	mov    %rdx,(%rax)
    40002247:	48 8d 05 b2 3d ff 3f 	lea    0x3fff3db2(%rip),%rax        # 7fff6000 <tls_1>
    4000224e:	48 89 45 f8          	mov    %rax,-0x8(%rbp)
    40002252:	48 8d 05 a7 1d ff 3f 	lea    0x3fff1da7(%rip),%rax        # 7fff4000 <init_stack_1>
    40002259:	48 89 45 f0          	mov    %rax,-0x10(%rbp)
    4000225d:	eb 54                	jmp    400022b3 <init_syscall+0x108>
    4000225f:	48 83 7d e8 01       	cmpq   $0x1,-0x18(%rbp)
    40002264:	75 18                	jne    4000227e <init_syscall+0xd3>
    40002266:	48 8d 05 93 6d ff 3f 	lea    0x3fff6d93(%rip),%rax        # 7fff9000 <tls_2>
    4000226d:	48 89 45 f8          	mov    %rax,-0x8(%rbp)
    40002271:	48 8d 05 88 4d df 3f 	lea    0x3fdf4d88(%rip),%rax        # 7fdf7000 <init_stack_2>
    40002278:	48 89 45 f0          	mov    %rax,-0x10(%rbp)
    4000227c:	eb 35                	jmp    400022b3 <init_syscall+0x108>
    4000227e:	48 83 7d e8 02       	cmpq   $0x2,-0x18(%rbp)
    40002283:	75 18                	jne    4000229d <init_syscall+0xf2>
    40002285:	48 8d 05 74 9d ff 3f 	lea    0x3fff9d74(%rip),%rax        # 7fffc000 <tls_3>
    4000228c:	48 89 45 f8          	mov    %rax,-0x8(%rbp)
    40002290:	48 8d 05 69 7d bf 3f 	lea    0x3fbf7d69(%rip),%rax        # 7fbfa000 <init_stack_3>
    40002297:	48 89 45 f0          	mov    %rax,-0x10(%rbp)
    4000229b:	eb 16                	jmp    400022b3 <init_syscall+0x108>
    4000229d:	48 8d 05 5c cd ff 3f 	lea    0x3fffcd5c(%rip),%rax        # 7ffff000 <tls_4>
    400022a4:	48 89 45 f8          	mov    %rax,-0x8(%rbp)
    400022a8:	48 8d 05 51 ad 9f 3f 	lea    0x3f9fad51(%rip),%rax        # 7f9fd000 <init_stack_4>
    400022af:	48 89 45 f0          	mov    %rax,-0x10(%rbp)
    400022b3:	48 8b 55 f8          	mov    -0x8(%rbp),%rdx
    400022b7:	48 8b 45 f8          	mov    -0x8(%rbp),%rax
    400022bb:	48 89 10             	mov    %rdx,(%rax)
    400022be:	48 8b 45 f8          	mov    -0x8(%rbp),%rax
    400022c2:	48 8d 50 08          	lea    0x8(%rax),%rdx
    400022c6:	48 8b 45 e8          	mov    -0x18(%rbp),%rax
    400022ca:	48 89 02             	mov    %rax,(%rdx)
    400022cd:	48 8b 45 f8          	mov    -0x8(%rbp),%rax
    400022d1:	48 83 c0 10          	add    $0x10,%rax
    400022d5:	48 8b 55 f8          	mov    -0x8(%rbp),%rdx
    400022d9:	48 81 c2 00 10 00 00 	add    $0x1000,%rdx
    400022e0:	48 89 10             	mov    %rdx,(%rax)
    400022e3:	48 8b 45 f8          	mov    -0x8(%rbp),%rax
    400022e7:	48 83 c0 18          	add    $0x18,%rax
    400022eb:	48 8b 55 f8          	mov    -0x8(%rbp),%rdx
    400022ef:	48 81 c2 80 0f 00 00 	add    $0xf80,%rdx
    400022f6:	48 89 10             	mov    %rdx,(%rax)
    400022f9:	48 8b 45 f8          	mov    -0x8(%rbp),%rax
    400022fd:	48 8d 50 20          	lea    0x20(%rax),%rdx
    40002301:	48 8b 45 d8          	mov    -0x28(%rbp),%rax
    40002305:	48 8b 40 08          	mov    0x8(%rax),%rax
    40002309:	48 89 02             	mov    %rax,(%rdx)
    4000230c:	48 8b 45 f8          	mov    -0x8(%rbp),%rax
    40002310:	48 8d 50 28          	lea    0x28(%rax),%rdx
    40002314:	48 8b 45 d8          	mov    -0x28(%rbp),%rax
    40002318:	48 8b 40 10          	mov    0x10(%rax),%rax
    4000231c:	48 89 02             	mov    %rax,(%rdx)
    4000231f:	48 8b 45 f8          	mov    -0x8(%rbp),%rax
    40002323:	48 8d 50 30          	lea    0x30(%rax),%rdx
    40002327:	48 8b 45 f0          	mov    -0x10(%rbp),%rax
    4000232b:	48 89 02             	mov    %rax,(%rdx)
    4000232e:	48 8b 45 f8          	mov    -0x8(%rbp),%rax
    40002332:	48 8d 50 38          	lea    0x38(%rax),%rdx
    40002336:	48 8b 45 d8          	mov    -0x28(%rbp),%rax
    4000233a:	48 8b 40 20          	mov    0x20(%rax),%rax
    4000233e:	48 89 02             	mov    %rax,(%rdx)
    40002341:	48 8b 45 f8          	mov    -0x8(%rbp),%rax
    40002345:	48 8d 50 40          	lea    0x40(%rax),%rdx
    40002349:	48 8b 45 d8          	mov    -0x28(%rbp),%rax
    4000234d:	48 8b 40 58          	mov    0x58(%rax),%rax
    40002351:	48 89 02             	mov    %rax,(%rdx)
    40002354:	90                   	nop
    40002355:	5d                   	pop    %rbp
    40002356:	c3                   	retq   

0000000040002357 <my_start_libc>:
    40002357:	55                   	push   %rbp
    40002358:	48 89 e5             	mov    %rsp,%rbp
    4000235b:	89 7d fc             	mov    %edi,-0x4(%rbp)
    4000235e:	48 89 75 f0          	mov    %rsi,-0x10(%rbp)
    40002362:	90                   	nop
    40002363:	5d                   	pop    %rbp
    40002364:	c3                   	retq   

0000000040002365 <my_start>:
    40002365:	55                   	push   %rbp
    40002366:	48 89 e5             	mov    %rsp,%rbp
    40002369:	48 83 ec 20          	sub    $0x20,%rsp
    4000236d:	e8 a1 00 00 00       	callq  40002413 <__tls_outside_buffer>
    40002372:	48 8b 00             	mov    (%rax),%rax
    40002375:	48 05 00 10 00 00    	add    $0x1000,%rax
    4000237b:	48 89 45 f8          	mov    %rax,-0x8(%rbp)
    4000237f:	48 8b 45 f8          	mov    -0x8(%rbp),%rax
    40002383:	48 8b 00             	mov    (%rax),%rax
    40002386:	89 45 f4             	mov    %eax,-0xc(%rbp)
    40002389:	48 8b 45 f8          	mov    -0x8(%rbp),%rax
    4000238d:	48 83 c0 08          	add    $0x8,%rax
    40002391:	48 8b 00             	mov    (%rax),%rax
    40002394:	48 89 45 e8          	mov    %rax,-0x18(%rbp)
    40002398:	48 8b 55 e8          	mov    -0x18(%rbp),%rdx
    4000239c:	8b 45 f4             	mov    -0xc(%rbp),%eax
    4000239f:	48 89 d6             	mov    %rdx,%rsi
    400023a2:	89 c7                	mov    %eax,%edi
    400023a4:	e8 ae ff ff ff       	callq  40002357 <my_start_libc>
    400023a9:	90                   	nop
    400023aa:	c9                   	leaveq 
    400023ab:	c3                   	retq   

00000000400023ac <__tls_self>:
    400023ac:	55                   	push   %rbp
    400023ad:	48 89 e5             	mov    %rsp,%rbp
    400023b0:	64 48 8b 04 25 00 00 	mov    %fs:0x0,%rax
    400023b7:	00 00 
    400023b9:	48 89 45 f8          	mov    %rax,-0x8(%rbp)
    400023bd:	48 8b 45 f8          	mov    -0x8(%rbp),%rax
    400023c1:	5d                   	pop    %rbp
    400023c2:	c3                   	retq   

00000000400023c3 <__tls_errno_location>:
    400023c3:	55                   	push   %rbp
    400023c4:	48 89 e5             	mov    %rsp,%rbp
    400023c7:	b8 00 00 00 00       	mov    $0x0,%eax
    400023cc:	e8 db ff ff ff       	callq  400023ac <__tls_self>
    400023d1:	48 83 c0 0c          	add    $0xc,%rax
    400023d5:	5d                   	pop    %rbp
    400023d6:	c3                   	retq   

00000000400023d7 <__tls_context_start>:
    400023d7:	55                   	push   %rbp
    400023d8:	48 89 e5             	mov    %rsp,%rbp
    400023db:	b8 00 00 00 00       	mov    $0x0,%eax
    400023e0:	e8 c7 ff ff ff       	callq  400023ac <__tls_self>
    400023e5:	48 83 c0 10          	add    $0x10,%rax
    400023e9:	5d                   	pop    %rbp
    400023ea:	c3                   	retq   

00000000400023eb <__tls_context_end>:
    400023eb:	55                   	push   %rbp
    400023ec:	48 89 e5             	mov    %rsp,%rbp
    400023ef:	b8 00 00 00 00       	mov    $0x0,%eax
    400023f4:	e8 b3 ff ff ff       	callq  400023ac <__tls_self>
    400023f9:	48 83 c0 18          	add    $0x18,%rax
    400023fd:	5d                   	pop    %rbp
    400023fe:	c3                   	retq   

00000000400023ff <__tls_outside_stack>:
    400023ff:	55                   	push   %rbp
    40002400:	48 89 e5             	mov    %rsp,%rbp
    40002403:	b8 00 00 00 00       	mov    $0x0,%eax
    40002408:	e8 9f ff ff ff       	callq  400023ac <__tls_self>
    4000240d:	48 83 c0 20          	add    $0x20,%rax
    40002411:	5d                   	pop    %rbp
    40002412:	c3                   	retq   

0000000040002413 <__tls_outside_buffer>:
    40002413:	55                   	push   %rbp
    40002414:	48 89 e5             	mov    %rsp,%rbp
    40002417:	b8 00 00 00 00       	mov    $0x0,%eax
    4000241c:	e8 8b ff ff ff       	callq  400023ac <__tls_self>
    40002421:	48 83 c0 28          	add    $0x28,%rax
    40002425:	5d                   	pop    %rbp
    40002426:	c3                   	retq   

0000000040002427 <__tls_previous_stack>:
    40002427:	55                   	push   %rbp
    40002428:	48 89 e5             	mov    %rsp,%rbp
    4000242b:	b8 00 00 00 00       	mov    $0x0,%eax
    40002430:	e8 77 ff ff ff       	callq  400023ac <__tls_self>
    40002435:	48 83 c0 30          	add    $0x30,%rax
    40002439:	5d                   	pop    %rbp
    4000243a:	c3                   	retq   

000000004000243b <pthread_self>:
    4000243b:	55                   	push   %rbp
    4000243c:	48 89 e5             	mov    %rsp,%rbp
    4000243f:	b8 00 00 00 00       	mov    $0x0,%eax
    40002444:	e8 63 ff ff ff       	callq  400023ac <__tls_self>
    40002449:	48 8b 40 38          	mov    0x38(%rax),%rax
    4000244d:	5d                   	pop    %rbp
    4000244e:	c3                   	retq   

000000004000244f <__funcs_on_exit>:
    4000244f:	c3                   	retq   

0000000040002450 <__libc_exit_fini>:
    40002450:	53                   	push   %rbx
    40002451:	bb f8 1c 40 40       	mov    $0x40401cf8,%ebx
    40002456:	48 81 fb f8 1c 40 40 	cmp    $0x40401cf8,%rbx
    4000245d:	76 0a                	jbe    40002469 <__libc_exit_fini+0x19>
    4000245f:	48 83 eb 08          	sub    $0x8,%rbx
    40002463:	31 c0                	xor    %eax,%eax
    40002465:	ff 13                	callq  *(%rbx)
    40002467:	eb ed                	jmp    40002456 <__libc_exit_fini+0x6>
    40002469:	5b                   	pop    %rbx
    4000246a:	31 c0                	xor    %eax,%eax
    4000246c:	e9 de ff ff ff       	jmpq   4000244f <__funcs_on_exit>

0000000040002471 <exit>:
    40002471:	48 83 ec 18          	sub    $0x18,%rsp
    40002475:	31 c0                	xor    %eax,%eax
    40002477:	89 7c 24 0c          	mov    %edi,0xc(%rsp)
    4000247b:	e8 cf ff ff ff       	callq  4000244f <__funcs_on_exit>
    40002480:	e8 cb ff ff ff       	callq  40002450 <__libc_exit_fini>
    40002485:	31 c0                	xor    %eax,%eax
    40002487:	e8 d6 75 00 00       	callq  40009a62 <__stdio_exit>
    4000248c:	8b 7c 24 0c          	mov    0xc(%rsp),%edi
    40002490:	e8 3b 3d 00 00       	callq  400061d0 <_Exit>
    40002495:	66 2e 0f 1f 84 00 00 	nopw   %cs:0x0(%rax,%rax,1)
    4000249c:	00 00 00 
    4000249f:	90                   	nop

00000000400024a0 <calloc>:
    400024a0:	48 85 f6             	test   %rsi,%rsi
    400024a3:	74 11                	je     400024b6 <calloc+0x16>
    400024a5:	31 d2                	xor    %edx,%edx
    400024a7:	48 c7 c0 ff ff ff ff 	mov    $0xffffffffffffffff,%rax
    400024ae:	48 f7 f6             	div    %rsi
    400024b1:	48 39 f8             	cmp    %rdi,%rax
    400024b4:	72 0a                	jb     400024c0 <calloc+0x20>
    400024b6:	48 0f af fe          	imul   %rsi,%rdi
    400024ba:	e9 91 11 00 00       	jmpq   40003650 <__malloc0>
    400024bf:	90                   	nop
    400024c0:	48 83 ec 08          	sub    $0x8,%rsp
    400024c4:	e8 fa fe ff ff       	callq  400023c3 <__tls_errno_location>
    400024c9:	c7 00 0c 00 00 00    	movl   $0xc,(%rax)
    400024cf:	31 c0                	xor    %eax,%eax
    400024d1:	48 83 c4 08          	add    $0x8,%rsp
    400024d5:	c3                   	retq   
    400024d6:	66 2e 0f 1f 84 00 00 	nopw   %cs:0x0(%rax,%rax,1)
    400024dd:	00 00 00 

00000000400024e0 <__simple_malloc>:
    400024e0:	41 54                	push   %r12
    400024e2:	55                   	push   %rbp
    400024e3:	48 89 fd             	mov    %rdi,%rbp
    400024e6:	53                   	push   %rbx
    400024e7:	48 83 ec 10          	sub    $0x10,%rsp
    400024eb:	48 85 ff             	test   %rdi,%rdi
    400024ee:	0f 84 bc 00 00 00    	je     400025b0 <__simple_malloc+0xd0>
    400024f4:	48 83 ff 01          	cmp    $0x1,%rdi
    400024f8:	0f 86 b2 00 00 00    	jbe    400025b0 <__simple_malloc+0xd0>
    400024fe:	bb 01 00 00 00       	mov    $0x1,%ebx
    40002503:	eb 08                	jmp    4000250d <__simple_malloc+0x2d>
    40002505:	0f 1f 00             	nopl   (%rax)
    40002508:	48 39 dd             	cmp    %rbx,%rbp
    4000250b:	76 09                	jbe    40002516 <__simple_malloc+0x36>
    4000250d:	48 01 db             	add    %rbx,%rbx
    40002510:	48 83 fb 0f          	cmp    $0xf,%rbx
    40002514:	76 f2                	jbe    40002508 <__simple_malloc+0x28>
    40002516:	bf 48 4b 40 40       	mov    $0x40404b48,%edi
    4000251b:	48 83 eb 01          	sub    $0x1,%rbx
    4000251f:	e8 3f 3b 00 00       	callq  40006063 <__lock>
    40002524:	48 8b 15 15 26 40 00 	mov    0x402615(%rip),%rdx        # 40404b40 <cur.1793>
    4000252b:	48 b8 0f 00 00 00 00 	movabs $0x800000000000000f,%rax
    40002532:	00 00 80 
    40002535:	49 89 d4             	mov    %rdx,%r12
    40002538:	49 f7 dc             	neg    %r12
    4000253b:	49 21 dc             	and    %rbx,%r12
    4000253e:	48 39 c5             	cmp    %rax,%rbp
    40002541:	0f 86 82 00 00 00    	jbe    400025c9 <__simple_malloc+0xe9>
    40002547:	48 8b 05 e2 25 40 00 	mov    0x4025e2(%rip),%rax        # 40404b30 <end.1794>
    4000254e:	48 29 d0             	sub    %rdx,%rax
    40002551:	48 39 c5             	cmp    %rax,%rbp
    40002554:	76 35                	jbe    4000258b <__simple_malloc+0xab>
    40002556:	48 89 e7             	mov    %rsp,%rdi
    40002559:	48 89 2c 24          	mov    %rbp,(%rsp)
    4000255d:	e8 ee 3c 00 00       	callq  40006250 <__expand_heap>
    40002562:	48 85 c0             	test   %rax,%rax
    40002565:	74 6a                	je     400025d1 <__simple_malloc+0xf1>
    40002567:	48 3b 05 c2 25 40 00 	cmp    0x4025c2(%rip),%rax        # 40404b30 <end.1794>
    4000256e:	48 8b 15 cb 25 40 00 	mov    0x4025cb(%rip),%rdx        # 40404b40 <cur.1793>
    40002575:	74 09                	je     40002580 <__simple_malloc+0xa0>
    40002577:	4c 29 e5             	sub    %r12,%rbp
    4000257a:	48 89 c2             	mov    %rax,%rdx
    4000257d:	45 31 e4             	xor    %r12d,%r12d
    40002580:	48 03 04 24          	add    (%rsp),%rax
    40002584:	48 89 05 a5 25 40 00 	mov    %rax,0x4025a5(%rip)        # 40404b30 <end.1794>
    4000258b:	49 01 d4             	add    %rdx,%r12
    4000258e:	bf 48 4b 40 40       	mov    $0x40404b48,%edi
    40002593:	48 01 ea             	add    %rbp,%rdx
    40002596:	48 89 15 a3 25 40 00 	mov    %rdx,0x4025a3(%rip)        # 40404b40 <cur.1793>
    4000259d:	e8 fb 3a 00 00       	callq  4000609d <__unlock>
    400025a2:	4c 89 e0             	mov    %r12,%rax
    400025a5:	48 83 c4 10          	add    $0x10,%rsp
    400025a9:	5b                   	pop    %rbx
    400025aa:	5d                   	pop    %rbp
    400025ab:	41 5c                	pop    %r12
    400025ad:	c3                   	retq   
    400025ae:	66 90                	xchg   %ax,%ax
    400025b0:	bf 48 4b 40 40       	mov    $0x40404b48,%edi
    400025b5:	bd 01 00 00 00       	mov    $0x1,%ebp
    400025ba:	45 31 e4             	xor    %r12d,%r12d
    400025bd:	e8 a1 3a 00 00       	callq  40006063 <__lock>
    400025c2:	48 8b 15 77 25 40 00 	mov    0x402577(%rip),%rdx        # 40404b40 <cur.1793>
    400025c9:	4c 01 e5             	add    %r12,%rbp
    400025cc:	e9 76 ff ff ff       	jmpq   40002547 <__simple_malloc+0x67>
    400025d1:	bf 48 4b 40 40       	mov    $0x40404b48,%edi
    400025d6:	e8 c2 3a 00 00       	callq  4000609d <__unlock>
    400025db:	31 c0                	xor    %eax,%eax
    400025dd:	eb c6                	jmp    400025a5 <__simple_malloc+0xc5>
    400025df:	90                   	nop

00000000400025e0 <alloc_fwd>:
    400025e0:	41 57                	push   %r15
    400025e2:	41 56                	push   %r14
    400025e4:	41 55                	push   %r13
    400025e6:	41 54                	push   %r12
    400025e8:	55                   	push   %rbp
    400025e9:	53                   	push   %rbx
    400025ea:	48 83 ec 18          	sub    $0x18,%rsp
    400025ee:	48 89 7c 24 08       	mov    %rdi,0x8(%rsp)
    400025f3:	0f 1f 44 00 00       	nopl   0x0(%rax,%rax,1)
    400025f8:	48 8b 44 24 08       	mov    0x8(%rsp),%rax
    400025fd:	48 8b 68 08          	mov    0x8(%rax),%rbp
    40002601:	40 f6 c5 01          	test   $0x1,%bpl
    40002605:	0f 85 e2 00 00 00    	jne    400026ed <alloc_fwd+0x10d>
    4000260b:	48 89 e8             	mov    %rbp,%rax
    4000260e:	48 c1 e8 05          	shr    $0x5,%rax
    40002612:	48 83 e8 01          	sub    $0x1,%rax
    40002616:	48 83 f8 20          	cmp    $0x20,%rax
    4000261a:	41 89 c6             	mov    %eax,%r14d
    4000261d:	76 1e                	jbe    4000263d <alloc_fwd+0x5d>
    4000261f:	48 3d ff 01 00 00    	cmp    $0x1ff,%rax
    40002625:	0f 86 25 01 00 00    	jbe    40002750 <alloc_fwd+0x170>
    4000262b:	48 3d 00 1c 00 00    	cmp    $0x1c00,%rax
    40002631:	41 be 3f 00 00 00    	mov    $0x3f,%r14d
    40002637:	0f 86 bb 01 00 00    	jbe    400027f8 <alloc_fwd+0x218>
    4000263d:	49 63 de             	movslq %r14d,%rbx
    40002640:	8b 15 66 32 40 00    	mov    0x403266(%rip),%edx        # 404058ac <__libc+0xc>
    40002646:	48 8d 04 5b          	lea    (%rbx,%rbx,2),%rax
    4000264a:	4c 8d 24 c5 60 4b 40 	lea    0x40404b60(,%rax,8),%r12
    40002651:	40 
    40002652:	85 d2                	test   %edx,%edx
    40002654:	48 89 e8             	mov    %rbp,%rax
    40002657:	4d 8d 7c 24 08       	lea    0x8(%r12),%r15
    4000265c:	0f 85 9e 00 00 00    	jne    40002700 <alloc_fwd+0x120>
    40002662:	48 8d 0c 5b          	lea    (%rbx,%rbx,2),%rcx
    40002666:	48 c1 e1 03          	shl    $0x3,%rcx
    4000266a:	48 83 b9 70 4b 40 40 	cmpq   $0x0,0x40404b70(%rcx)
    40002671:	00 
    40002672:	0f 84 f0 00 00 00    	je     40002768 <alloc_fwd+0x188>
    40002678:	48 39 c5             	cmp    %rax,%rbp
    4000267b:	0f 84 0b 01 00 00    	je     4000278c <alloc_fwd+0x1ac>
    40002681:	41 8b 54 24 08       	mov    0x8(%r12),%edx
    40002686:	85 d2                	test   %edx,%edx
    40002688:	74 56                	je     400026e0 <alloc_fwd+0x100>
    4000268a:	31 c0                	xor    %eax,%eax
    4000268c:	41 89 07             	mov    %eax,(%r15)
    4000268f:	f0 83 0c 24 00       	lock orl $0x0,(%rsp)
    40002694:	41 8b 47 04          	mov    0x4(%r15),%eax
    40002698:	85 c0                	test   %eax,%eax
    4000269a:	0f 84 58 ff ff ff    	je     400025f8 <alloc_fwd+0x18>
    400026a0:	b9 01 00 00 00       	mov    $0x1,%ecx
    400026a5:	ba 81 00 00 00       	mov    $0x81,%edx
    400026aa:	4c 89 fe             	mov    %r15,%rsi
    400026ad:	bf ca 00 00 00       	mov    $0xca,%edi
    400026b2:	e8 3f 7a 00 00       	callq  4000a0f6 <ocall_syscall3>
    400026b7:	48 83 f8 da          	cmp    $0xffffffffffffffda,%rax
    400026bb:	0f 85 37 ff ff ff    	jne    400025f8 <alloc_fwd+0x18>
    400026c1:	b9 01 00 00 00       	mov    $0x1,%ecx
    400026c6:	ba 01 00 00 00       	mov    $0x1,%edx
    400026cb:	4c 89 fe             	mov    %r15,%rsi
    400026ce:	bf ca 00 00 00       	mov    $0xca,%edi
    400026d3:	e8 1e 7a 00 00       	callq  4000a0f6 <ocall_syscall3>
    400026d8:	e9 1b ff ff ff       	jmpq   400025f8 <alloc_fwd+0x18>
    400026dd:	0f 1f 00             	nopl   (%rax)
    400026e0:	48 89 c5             	mov    %rax,%rbp
    400026e3:	40 f6 c5 01          	test   $0x1,%bpl
    400026e7:	0f 84 1e ff ff ff    	je     4000260b <alloc_fwd+0x2b>
    400026ed:	48 83 c4 18          	add    $0x18,%rsp
    400026f1:	31 c0                	xor    %eax,%eax
    400026f3:	5b                   	pop    %rbx
    400026f4:	5d                   	pop    %rbp
    400026f5:	41 5c                	pop    %r12
    400026f7:	41 5d                	pop    %r13
    400026f9:	41 5e                	pop    %r14
    400026fb:	41 5f                	pop    %r15
    400026fd:	c3                   	retq   
    400026fe:	66 90                	xchg   %ax,%ax
    40002700:	b8 01 00 00 00       	mov    $0x1,%eax
    40002705:	41 87 44 24 08       	xchg   %eax,0x8(%r12)
    4000270a:	85 c0                	test   %eax,%eax
    4000270c:	4d 8d 6c 24 0c       	lea    0xc(%r12),%r13
    40002711:	74 26                	je     40002739 <alloc_fwd+0x159>
    40002713:	0f 1f 44 00 00       	nopl   0x0(%rax,%rax,1)
    40002718:	b9 01 00 00 00       	mov    $0x1,%ecx
    4000271d:	ba 01 00 00 00       	mov    $0x1,%edx
    40002722:	4c 89 ee             	mov    %r13,%rsi
    40002725:	4c 89 ff             	mov    %r15,%rdi
    40002728:	e8 c1 39 00 00       	callq  400060ee <__wait>
    4000272d:	b8 01 00 00 00       	mov    $0x1,%eax
    40002732:	41 87 07             	xchg   %eax,(%r15)
    40002735:	85 c0                	test   %eax,%eax
    40002737:	75 df                	jne    40002718 <alloc_fwd+0x138>
    40002739:	48 8b 44 24 08       	mov    0x8(%rsp),%rax
    4000273e:	48 8b 40 08          	mov    0x8(%rax),%rax
    40002742:	e9 1b ff ff ff       	jmpq   40002662 <alloc_fwd+0x82>
    40002747:	66 0f 1f 84 00 00 00 	nopw   0x0(%rax,%rax,1)
    4000274e:	00 00 
    40002750:	48 c1 e8 03          	shr    $0x3,%rax
    40002754:	44 0f b6 b0 5c 03 40 	movzbl 0x4040035c(%rax),%r14d
    4000275b:	40 
    4000275c:	e9 dc fe ff ff       	jmpq   4000263d <alloc_fwd+0x5d>
    40002761:	0f 1f 80 00 00 00 00 	nopl   0x0(%rax)
    40002768:	48 8d 74 5b fe       	lea    -0x2(%rbx,%rbx,2),%rsi
    4000276d:	48 39 c5             	cmp    %rax,%rbp
    40002770:	48 8d 34 f5 70 4b 40 	lea    0x40404b70(,%rsi,8),%rsi
    40002777:	40 
    40002778:	48 89 b1 78 4b 40 40 	mov    %rsi,0x40404b78(%rcx)
    4000277f:	48 89 b1 70 4b 40 40 	mov    %rsi,0x40404b70(%rcx)
    40002786:	0f 85 f5 fe ff ff    	jne    40002681 <alloc_fwd+0xa1>
    4000278c:	48 8b 7c 24 08       	mov    0x8(%rsp),%rdi
    40002791:	48 8b 57 18          	mov    0x18(%rdi),%rdx
    40002795:	48 8b 4f 10          	mov    0x10(%rdi),%rcx
    40002799:	48 39 ca             	cmp    %rcx,%rdx
    4000279c:	0f 84 a1 00 00 00    	je     40002843 <alloc_fwd+0x263>
    400027a2:	48 8b 5c 24 08       	mov    0x8(%rsp),%rbx
    400027a7:	48 89 4a 10          	mov    %rcx,0x10(%rdx)
    400027ab:	48 8b 4b 10          	mov    0x10(%rbx),%rcx
    400027af:	48 89 51 18          	mov    %rdx,0x18(%rcx)
    400027b3:	48 89 c2             	mov    %rax,%rdx
    400027b6:	48 83 e0 fe          	and    $0xfffffffffffffffe,%rax
    400027ba:	48 83 ca 01          	or     $0x1,%rdx
    400027be:	48 89 53 08          	mov    %rdx,0x8(%rbx)
    400027c2:	48 83 0c 03 01       	orq    $0x1,(%rbx,%rax,1)
    400027c7:	41 8b 07             	mov    (%r15),%eax
    400027ca:	85 c0                	test   %eax,%eax
    400027cc:	74 12                	je     400027e0 <alloc_fwd+0x200>
    400027ce:	31 c0                	xor    %eax,%eax
    400027d0:	41 89 07             	mov    %eax,(%r15)
    400027d3:	f0 83 0c 24 00       	lock orl $0x0,(%rsp)
    400027d8:	41 8b 47 04          	mov    0x4(%r15),%eax
    400027dc:	85 c0                	test   %eax,%eax
    400027de:	75 2d                	jne    4000280d <alloc_fwd+0x22d>
    400027e0:	48 83 c4 18          	add    $0x18,%rsp
    400027e4:	b8 01 00 00 00       	mov    $0x1,%eax
    400027e9:	5b                   	pop    %rbx
    400027ea:	5d                   	pop    %rbp
    400027eb:	41 5c                	pop    %r12
    400027ed:	41 5d                	pop    %r13
    400027ef:	41 5e                	pop    %r14
    400027f1:	41 5f                	pop    %r15
    400027f3:	c3                   	retq   
    400027f4:	0f 1f 40 00          	nopl   0x0(%rax)
    400027f8:	48 c1 e8 07          	shr    $0x7,%rax
    400027fc:	44 0f b6 b0 5c 03 40 	movzbl 0x4040035c(%rax),%r14d
    40002803:	40 
    40002804:	41 83 c6 10          	add    $0x10,%r14d
    40002808:	e9 30 fe ff ff       	jmpq   4000263d <alloc_fwd+0x5d>
    4000280d:	b9 01 00 00 00       	mov    $0x1,%ecx
    40002812:	ba 81 00 00 00       	mov    $0x81,%edx
    40002817:	4c 89 fe             	mov    %r15,%rsi
    4000281a:	bf ca 00 00 00       	mov    $0xca,%edi
    4000281f:	e8 d2 78 00 00       	callq  4000a0f6 <ocall_syscall3>
    40002824:	48 83 f8 da          	cmp    $0xffffffffffffffda,%rax
    40002828:	75 b6                	jne    400027e0 <alloc_fwd+0x200>
    4000282a:	b9 01 00 00 00       	mov    $0x1,%ecx
    4000282f:	ba 01 00 00 00       	mov    $0x1,%edx
    40002834:	4c 89 fe             	mov    %r15,%rsi
    40002837:	bf ca 00 00 00       	mov    $0xca,%edi
    4000283c:	e8 b5 78 00 00       	callq  4000a0f6 <ocall_syscall3>
    40002841:	eb 9d                	jmp    400027e0 <alloc_fwd+0x200>
    40002843:	44 89 f1             	mov    %r14d,%ecx
    40002846:	48 c7 c0 fe ff ff ff 	mov    $0xfffffffffffffffe,%rax
    4000284d:	48 d3 c0             	rol    %cl,%rax
    40002850:	f0 48 21 05 08 23 40 	lock and %rax,0x402308(%rip)        # 40404b60 <mal>
    40002857:	00 
    40002858:	48 8b 44 24 08       	mov    0x8(%rsp),%rax
    4000285d:	48 8b 50 18          	mov    0x18(%rax),%rdx
    40002861:	48 8b 48 10          	mov    0x10(%rax),%rcx
    40002865:	48 8b 40 08          	mov    0x8(%rax),%rax
    40002869:	e9 34 ff ff ff       	jmpq   400027a2 <alloc_fwd+0x1c2>
    4000286e:	66 90                	xchg   %ax,%ax

0000000040002870 <alloc_rev>:
    40002870:	41 57                	push   %r15
    40002872:	41 56                	push   %r14
    40002874:	41 55                	push   %r13
    40002876:	41 54                	push   %r12
    40002878:	55                   	push   %rbp
    40002879:	53                   	push   %rbx
    4000287a:	48 83 ec 18          	sub    $0x18,%rsp
    4000287e:	48 89 7c 24 08       	mov    %rdi,0x8(%rsp)
    40002883:	0f 1f 44 00 00       	nopl   0x0(%rax,%rax,1)
    40002888:	48 8b 44 24 08       	mov    0x8(%rsp),%rax
    4000288d:	48 8b 28             	mov    (%rax),%rbp
    40002890:	40 f6 c5 01          	test   $0x1,%bpl
    40002894:	0f 85 e3 00 00 00    	jne    4000297d <alloc_rev+0x10d>
    4000289a:	48 89 e8             	mov    %rbp,%rax
    4000289d:	48 c1 e8 05          	shr    $0x5,%rax
    400028a1:	48 83 e8 01          	sub    $0x1,%rax
    400028a5:	48 83 f8 20          	cmp    $0x20,%rax
    400028a9:	41 89 c6             	mov    %eax,%r14d
    400028ac:	76 1e                	jbe    400028cc <alloc_rev+0x5c>
    400028ae:	48 3d ff 01 00 00    	cmp    $0x1ff,%rax
    400028b4:	0f 86 26 01 00 00    	jbe    400029e0 <alloc_rev+0x170>
    400028ba:	48 3d 00 1c 00 00    	cmp    $0x1c00,%rax
    400028c0:	41 be 3f 00 00 00    	mov    $0x3f,%r14d
    400028c6:	0f 86 c4 01 00 00    	jbe    40002a90 <alloc_rev+0x220>
    400028cc:	49 63 de             	movslq %r14d,%rbx
    400028cf:	8b 15 d7 2f 40 00    	mov    0x402fd7(%rip),%edx        # 404058ac <__libc+0xc>
    400028d5:	48 8d 04 5b          	lea    (%rbx,%rbx,2),%rax
    400028d9:	4c 8d 24 c5 60 4b 40 	lea    0x40404b60(,%rax,8),%r12
    400028e0:	40 
    400028e1:	85 d2                	test   %edx,%edx
    400028e3:	48 89 e8             	mov    %rbp,%rax
    400028e6:	4d 8d 7c 24 08       	lea    0x8(%r12),%r15
    400028eb:	0f 85 9f 00 00 00    	jne    40002990 <alloc_rev+0x120>
    400028f1:	48 8d 0c 5b          	lea    (%rbx,%rbx,2),%rcx
    400028f5:	48 c1 e1 03          	shl    $0x3,%rcx
    400028f9:	48 83 b9 70 4b 40 40 	cmpq   $0x0,0x40404b70(%rcx)
    40002900:	00 
    40002901:	0f 84 f1 00 00 00    	je     400029f8 <alloc_rev+0x188>
    40002907:	48 39 c5             	cmp    %rax,%rbp
    4000290a:	0f 84 0c 01 00 00    	je     40002a1c <alloc_rev+0x1ac>
    40002910:	41 8b 54 24 08       	mov    0x8(%r12),%edx
    40002915:	85 d2                	test   %edx,%edx
    40002917:	74 57                	je     40002970 <alloc_rev+0x100>
    40002919:	31 c0                	xor    %eax,%eax
    4000291b:	41 89 07             	mov    %eax,(%r15)
    4000291e:	f0 83 0c 24 00       	lock orl $0x0,(%rsp)
    40002923:	41 8b 47 04          	mov    0x4(%r15),%eax
    40002927:	85 c0                	test   %eax,%eax
    40002929:	0f 84 59 ff ff ff    	je     40002888 <alloc_rev+0x18>
    4000292f:	b9 01 00 00 00       	mov    $0x1,%ecx
    40002934:	ba 81 00 00 00       	mov    $0x81,%edx
    40002939:	4c 89 fe             	mov    %r15,%rsi
    4000293c:	bf ca 00 00 00       	mov    $0xca,%edi
    40002941:	e8 b0 77 00 00       	callq  4000a0f6 <ocall_syscall3>
    40002946:	48 83 f8 da          	cmp    $0xffffffffffffffda,%rax
    4000294a:	0f 85 38 ff ff ff    	jne    40002888 <alloc_rev+0x18>
    40002950:	b9 01 00 00 00       	mov    $0x1,%ecx
    40002955:	ba 01 00 00 00       	mov    $0x1,%edx
    4000295a:	4c 89 fe             	mov    %r15,%rsi
    4000295d:	bf ca 00 00 00       	mov    $0xca,%edi
    40002962:	e8 8f 77 00 00       	callq  4000a0f6 <ocall_syscall3>
    40002967:	e9 1c ff ff ff       	jmpq   40002888 <alloc_rev+0x18>
    4000296c:	0f 1f 40 00          	nopl   0x0(%rax)
    40002970:	48 89 c5             	mov    %rax,%rbp
    40002973:	40 f6 c5 01          	test   $0x1,%bpl
    40002977:	0f 84 1d ff ff ff    	je     4000289a <alloc_rev+0x2a>
    4000297d:	48 83 c4 18          	add    $0x18,%rsp
    40002981:	31 c0                	xor    %eax,%eax
    40002983:	5b                   	pop    %rbx
    40002984:	5d                   	pop    %rbp
    40002985:	41 5c                	pop    %r12
    40002987:	41 5d                	pop    %r13
    40002989:	41 5e                	pop    %r14
    4000298b:	41 5f                	pop    %r15
    4000298d:	c3                   	retq   
    4000298e:	66 90                	xchg   %ax,%ax
    40002990:	b8 01 00 00 00       	mov    $0x1,%eax
    40002995:	41 87 44 24 08       	xchg   %eax,0x8(%r12)
    4000299a:	85 c0                	test   %eax,%eax
    4000299c:	4d 8d 6c 24 0c       	lea    0xc(%r12),%r13
    400029a1:	74 26                	je     400029c9 <alloc_rev+0x159>
    400029a3:	0f 1f 44 00 00       	nopl   0x0(%rax,%rax,1)
    400029a8:	b9 01 00 00 00       	mov    $0x1,%ecx
    400029ad:	ba 01 00 00 00       	mov    $0x1,%edx
    400029b2:	4c 89 ee             	mov    %r13,%rsi
    400029b5:	4c 89 ff             	mov    %r15,%rdi
    400029b8:	e8 31 37 00 00       	callq  400060ee <__wait>
    400029bd:	b8 01 00 00 00       	mov    $0x1,%eax
    400029c2:	41 87 07             	xchg   %eax,(%r15)
    400029c5:	85 c0                	test   %eax,%eax
    400029c7:	75 df                	jne    400029a8 <alloc_rev+0x138>
    400029c9:	48 8b 44 24 08       	mov    0x8(%rsp),%rax
    400029ce:	48 8b 00             	mov    (%rax),%rax
    400029d1:	e9 1b ff ff ff       	jmpq   400028f1 <alloc_rev+0x81>
    400029d6:	66 2e 0f 1f 84 00 00 	nopw   %cs:0x0(%rax,%rax,1)
    400029dd:	00 00 00 
    400029e0:	48 c1 e8 03          	shr    $0x3,%rax
    400029e4:	44 0f b6 b0 5c 03 40 	movzbl 0x4040035c(%rax),%r14d
    400029eb:	40 
    400029ec:	e9 db fe ff ff       	jmpq   400028cc <alloc_rev+0x5c>
    400029f1:	0f 1f 80 00 00 00 00 	nopl   0x0(%rax)
    400029f8:	48 8d 74 5b fe       	lea    -0x2(%rbx,%rbx,2),%rsi
    400029fd:	48 39 c5             	cmp    %rax,%rbp
    40002a00:	48 8d 34 f5 70 4b 40 	lea    0x40404b70(,%rsi,8),%rsi
    40002a07:	40 
    40002a08:	48 89 b1 78 4b 40 40 	mov    %rsi,0x40404b78(%rcx)
    40002a0f:	48 89 b1 70 4b 40 40 	mov    %rsi,0x40404b70(%rcx)
    40002a16:	0f 85 f4 fe ff ff    	jne    40002910 <alloc_rev+0xa0>
    40002a1c:	48 8b 74 24 08       	mov    0x8(%rsp),%rsi
    40002a21:	48 83 e5 fe          	and    $0xfffffffffffffffe,%rbp
    40002a25:	48 29 ee             	sub    %rbp,%rsi
    40002a28:	48 8b 46 18          	mov    0x18(%rsi),%rax
    40002a2c:	48 8b 56 10          	mov    0x10(%rsi),%rdx
    40002a30:	48 39 d0             	cmp    %rdx,%rax
    40002a33:	0f 84 a2 00 00 00    	je     40002adb <alloc_rev+0x26b>
    40002a39:	48 89 50 10          	mov    %rdx,0x10(%rax)
    40002a3d:	48 8b 56 10          	mov    0x10(%rsi),%rdx
    40002a41:	48 89 42 18          	mov    %rax,0x18(%rdx)
    40002a45:	48 8b 46 08          	mov    0x8(%rsi),%rax
    40002a49:	48 89 c2             	mov    %rax,%rdx
    40002a4c:	48 83 e0 fe          	and    $0xfffffffffffffffe,%rax
    40002a50:	48 83 ca 01          	or     $0x1,%rdx
    40002a54:	48 89 56 08          	mov    %rdx,0x8(%rsi)
    40002a58:	48 83 0c 06 01       	orq    $0x1,(%rsi,%rax,1)
    40002a5d:	41 8b 07             	mov    (%r15),%eax
    40002a60:	85 c0                	test   %eax,%eax
    40002a62:	74 12                	je     40002a76 <alloc_rev+0x206>
    40002a64:	31 c0                	xor    %eax,%eax
    40002a66:	41 89 07             	mov    %eax,(%r15)
    40002a69:	f0 83 0c 24 00       	lock orl $0x0,(%rsp)
    40002a6e:	41 8b 47 04          	mov    0x4(%r15),%eax
    40002a72:	85 c0                	test   %eax,%eax
    40002a74:	75 2f                	jne    40002aa5 <alloc_rev+0x235>
    40002a76:	48 83 c4 18          	add    $0x18,%rsp
    40002a7a:	b8 01 00 00 00       	mov    $0x1,%eax
    40002a7f:	5b                   	pop    %rbx
    40002a80:	5d                   	pop    %rbp
    40002a81:	41 5c                	pop    %r12
    40002a83:	41 5d                	pop    %r13
    40002a85:	41 5e                	pop    %r14
    40002a87:	41 5f                	pop    %r15
    40002a89:	c3                   	retq   
    40002a8a:	66 0f 1f 44 00 00    	nopw   0x0(%rax,%rax,1)
    40002a90:	48 c1 e8 07          	shr    $0x7,%rax
    40002a94:	44 0f b6 b0 5c 03 40 	movzbl 0x4040035c(%rax),%r14d
    40002a9b:	40 
    40002a9c:	41 83 c6 10          	add    $0x10,%r14d
    40002aa0:	e9 27 fe ff ff       	jmpq   400028cc <alloc_rev+0x5c>
    40002aa5:	b9 01 00 00 00       	mov    $0x1,%ecx
    40002aaa:	ba 81 00 00 00       	mov    $0x81,%edx
    40002aaf:	4c 89 fe             	mov    %r15,%rsi
    40002ab2:	bf ca 00 00 00       	mov    $0xca,%edi
    40002ab7:	e8 3a 76 00 00       	callq  4000a0f6 <ocall_syscall3>
    40002abc:	48 83 f8 da          	cmp    $0xffffffffffffffda,%rax
    40002ac0:	75 b4                	jne    40002a76 <alloc_rev+0x206>
    40002ac2:	b9 01 00 00 00       	mov    $0x1,%ecx
    40002ac7:	ba 01 00 00 00       	mov    $0x1,%edx
    40002acc:	4c 89 fe             	mov    %r15,%rsi
    40002acf:	bf ca 00 00 00       	mov    $0xca,%edi
    40002ad4:	e8 1d 76 00 00       	callq  4000a0f6 <ocall_syscall3>
    40002ad9:	eb 9b                	jmp    40002a76 <alloc_rev+0x206>
    40002adb:	44 89 f1             	mov    %r14d,%ecx
    40002ade:	48 c7 c0 fe ff ff ff 	mov    $0xfffffffffffffffe,%rax
    40002ae5:	48 d3 c0             	rol    %cl,%rax
    40002ae8:	f0 48 21 05 70 20 40 	lock and %rax,0x402070(%rip)        # 40404b60 <mal>
    40002aef:	00 
    40002af0:	48 8b 46 18          	mov    0x18(%rsi),%rax
    40002af4:	48 8b 56 10          	mov    0x10(%rsi),%rdx
    40002af8:	e9 3c ff ff ff       	jmpq   40002a39 <alloc_rev+0x1c9>
    40002afd:	0f 1f 00             	nopl   (%rax)

0000000040002b00 <free>:
    40002b00:	41 57                	push   %r15
    40002b02:	41 56                	push   %r14
    40002b04:	41 55                	push   %r13
    40002b06:	41 54                	push   %r12
    40002b08:	55                   	push   %rbp
    40002b09:	53                   	push   %rbx
    40002b0a:	48 8d 5f f0          	lea    -0x10(%rdi),%rbx
    40002b0e:	48 83 ec 38          	sub    $0x38,%rsp
    40002b12:	48 85 ff             	test   %rdi,%rdi
    40002b15:	0f 84 cd 02 00 00    	je     40002de8 <free+0x2e8>
    40002b1b:	48 8b 47 f8          	mov    -0x8(%rdi),%rax
    40002b1f:	a8 01                	test   $0x1,%al
    40002b21:	0f 84 d9 02 00 00    	je     40002e00 <free+0x300>
    40002b27:	48 89 c1             	mov    %rax,%rcx
    40002b2a:	48 83 e1 fe          	and    $0xfffffffffffffffe,%rcx
    40002b2e:	4c 8d 24 0b          	lea    (%rbx,%rcx,1),%r12
    40002b32:	48 89 4c 24 28       	mov    %rcx,0x28(%rsp)
    40002b37:	49 3b 04 24          	cmp    (%r12),%rax
    40002b3b:	74 01                	je     40002b3e <free+0x3e>
    40002b3d:	f4                   	hlt    
    40002b3e:	4c 8b 74 24 28       	mov    0x28(%rsp),%r14
    40002b43:	c7 44 24 24 00 00 00 	movl   $0x0,0x24(%rsp)
    40002b4a:	00 
    40002b4b:	0f 1f 44 00 00       	nopl   0x0(%rax,%rax,1)
    40002b50:	48 8b 03             	mov    (%rbx),%rax
    40002b53:	49 23 44 24 08       	and    0x8(%r12),%rax
    40002b58:	a8 01                	test   $0x1,%al
    40002b5a:	0f 84 e4 00 00 00    	je     40002c44 <free+0x144>
    40002b60:	4c 89 f0             	mov    %r14,%rax
    40002b63:	48 83 c8 01          	or     $0x1,%rax
    40002b67:	48 89 43 08          	mov    %rax,0x8(%rbx)
    40002b6b:	49 89 04 24          	mov    %rax,(%r12)
    40002b6f:	4c 89 f0             	mov    %r14,%rax
    40002b72:	48 c1 e8 05          	shr    $0x5,%rax
    40002b76:	48 83 e8 01          	sub    $0x1,%rax
    40002b7a:	48 83 f8 20          	cmp    $0x20,%rax
    40002b7e:	0f 86 ba 02 00 00    	jbe    40002e3e <free+0x33e>
    40002b84:	48 3d ff 01 00 00    	cmp    $0x1ff,%rax
    40002b8a:	0f 86 60 03 00 00    	jbe    40002ef0 <free+0x3f0>
    40002b90:	48 3d 00 1c 00 00    	cmp    $0x1c00,%rax
    40002b96:	c7 44 24 10 3f 00 00 	movl   $0x3f,0x10(%rsp)
    40002b9d:	00 
    40002b9e:	0f 86 8c 02 00 00    	jbe    40002e30 <free+0x330>
    40002ba4:	4c 63 6c 24 10       	movslq 0x10(%rsp),%r13
    40002ba9:	4b 8d 44 6d 00       	lea    0x0(%r13,%r13,2),%rax
    40002bae:	4c 8d 3c c5 60 4b 40 	lea    0x40404b60(,%rax,8),%r15
    40002bb5:	40 
    40002bb6:	8b 05 f0 2c 40 00    	mov    0x402cf0(%rip),%eax        # 404058ac <__libc+0xc>
    40002bbc:	49 8d 6f 08          	lea    0x8(%r15),%rbp
    40002bc0:	85 c0                	test   %eax,%eax
    40002bc2:	0f 85 d8 02 00 00    	jne    40002ea0 <free+0x3a0>
    40002bc8:	4b 8d 54 6d 00       	lea    0x0(%r13,%r13,2),%rdx
    40002bcd:	48 c1 e2 03          	shl    $0x3,%rdx
    40002bd1:	48 8d 82 60 4b 40 40 	lea    0x40404b60(%rdx),%rax
    40002bd8:	48 83 78 10 00       	cmpq   $0x0,0x10(%rax)
    40002bdd:	0f 84 ad 03 00 00    	je     40002f90 <free+0x490>
    40002be3:	8b 05 c3 2c 40 00    	mov    0x402cc3(%rip),%eax        # 404058ac <__libc+0xc>
    40002be9:	85 c0                	test   %eax,%eax
    40002beb:	0f 85 5f 02 00 00    	jne    40002e50 <free+0x350>
    40002bf1:	48 8b 03             	mov    (%rbx),%rax
    40002bf4:	49 23 44 24 08       	and    0x8(%r12),%rax
    40002bf9:	a8 01                	test   $0x1,%al
    40002bfb:	0f 85 e7 00 00 00    	jne    40002ce8 <free+0x1e8>
    40002c01:	8b 05 61 25 40 00    	mov    0x402561(%rip),%eax        # 40405168 <mal+0x608>
    40002c07:	85 c0                	test   %eax,%eax
    40002c09:	74 1b                	je     40002c26 <free+0x126>
    40002c0b:	31 c0                	xor    %eax,%eax
    40002c0d:	89 05 55 25 40 00    	mov    %eax,0x402555(%rip)        # 40405168 <mal+0x608>
    40002c13:	f0 83 0c 24 00       	lock orl $0x0,(%rsp)
    40002c18:	8b 05 4e 25 40 00    	mov    0x40254e(%rip),%eax        # 4040516c <mal+0x60c>
    40002c1e:	85 c0                	test   %eax,%eax
    40002c20:	0f 85 e2 02 00 00    	jne    40002f08 <free+0x408>
    40002c26:	41 8b 47 08          	mov    0x8(%r15),%eax
    40002c2a:	85 c0                	test   %eax,%eax
    40002c2c:	74 16                	je     40002c44 <free+0x144>
    40002c2e:	31 c0                	xor    %eax,%eax
    40002c30:	41 89 47 08          	mov    %eax,0x8(%r15)
    40002c34:	f0 83 0c 24 00       	lock orl $0x0,(%rsp)
    40002c39:	8b 45 04             	mov    0x4(%rbp),%eax
    40002c3c:	85 c0                	test   %eax,%eax
    40002c3e:	0f 85 0c 03 00 00    	jne    40002f50 <free+0x450>
    40002c44:	48 89 df             	mov    %rbx,%rdi
    40002c47:	e8 24 fc ff ff       	callq  40002870 <alloc_rev>
    40002c4c:	85 c0                	test   %eax,%eax
    40002c4e:	74 3b                	je     40002c8b <free+0x18b>
    40002c50:	48 8b 03             	mov    (%rbx),%rax
    40002c53:	48 8b 4c 24 28       	mov    0x28(%rsp),%rcx
    40002c58:	48 83 e0 fe          	and    $0xfffffffffffffffe,%rax
    40002c5c:	48 29 c3             	sub    %rax,%rbx
    40002c5f:	48 8b 43 08          	mov    0x8(%rbx),%rax
    40002c63:	48 83 e0 fe          	and    $0xfffffffffffffffe,%rax
    40002c67:	48 8d 14 08          	lea    (%rax,%rcx,1),%rdx
    40002c6b:	49 01 c6             	add    %rax,%r14
    40002c6e:	48 81 fa 00 80 02 00 	cmp    $0x28000,%rdx
    40002c75:	76 14                	jbe    40002c8b <free+0x18b>
    40002c77:	48 31 c2             	xor    %rax,%rdx
    40002c7a:	48 39 d0             	cmp    %rdx,%rax
    40002c7d:	b8 01 00 00 00       	mov    $0x1,%eax
    40002c82:	0f 43 44 24 24       	cmovae 0x24(%rsp),%eax
    40002c87:	89 44 24 24          	mov    %eax,0x24(%rsp)
    40002c8b:	4c 89 e7             	mov    %r12,%rdi
    40002c8e:	e8 4d f9 ff ff       	callq  400025e0 <alloc_fwd>
    40002c93:	85 c0                	test   %eax,%eax
    40002c95:	0f 84 b5 fe ff ff    	je     40002b50 <free+0x50>
    40002c9b:	49 8b 44 24 08       	mov    0x8(%r12),%rax
    40002ca0:	48 8b 4c 24 28       	mov    0x28(%rsp),%rcx
    40002ca5:	48 83 e0 fe          	and    $0xfffffffffffffffe,%rax
    40002ca9:	48 8d 14 08          	lea    (%rax,%rcx,1),%rdx
    40002cad:	49 01 c6             	add    %rax,%r14
    40002cb0:	48 81 fa 00 80 02 00 	cmp    $0x28000,%rdx
    40002cb7:	76 14                	jbe    40002ccd <free+0x1cd>
    40002cb9:	48 31 c2             	xor    %rax,%rdx
    40002cbc:	48 39 d0             	cmp    %rdx,%rax
    40002cbf:	ba 01 00 00 00       	mov    $0x1,%edx
    40002cc4:	0f 43 54 24 24       	cmovae 0x24(%rsp),%edx
    40002cc9:	89 54 24 24          	mov    %edx,0x24(%rsp)
    40002ccd:	49 01 c4             	add    %rax,%r12
    40002cd0:	48 8b 03             	mov    (%rbx),%rax
    40002cd3:	49 23 44 24 08       	and    0x8(%r12),%rax
    40002cd8:	a8 01                	test   $0x1,%al
    40002cda:	0f 85 80 fe ff ff    	jne    40002b60 <free+0x60>
    40002ce0:	e9 5f ff ff ff       	jmpq   40002c44 <free+0x144>
    40002ce5:	0f 1f 00             	nopl   (%rax)
    40002ce8:	48 8b 05 71 1e 40 00 	mov    0x401e71(%rip),%rax        # 40404b60 <mal>
    40002cef:	48 8b 7c 24 10       	mov    0x10(%rsp),%rdi
    40002cf4:	48 0f a3 f8          	bt     %rdi,%rax
    40002cf8:	72 15                	jb     40002d0f <free+0x20f>
    40002cfa:	0f b6 4c 24 10       	movzbl 0x10(%rsp),%ecx
    40002cff:	b8 01 00 00 00       	mov    $0x1,%eax
    40002d04:	48 d3 e0             	shl    %cl,%rax
    40002d07:	f0 48 09 05 51 1e 40 	lock or %rax,0x401e51(%rip)        # 40404b60 <mal>
    40002d0e:	00 
    40002d0f:	8b 05 53 24 40 00    	mov    0x402453(%rip),%eax        # 40405168 <mal+0x608>
    40002d15:	4c 89 73 08          	mov    %r14,0x8(%rbx)
    40002d19:	4d 89 34 24          	mov    %r14,(%r12)
    40002d1d:	85 c0                	test   %eax,%eax
    40002d1f:	74 4f                	je     40002d70 <free+0x270>
    40002d21:	31 c0                	xor    %eax,%eax
    40002d23:	89 05 3f 24 40 00    	mov    %eax,0x40243f(%rip)        # 40405168 <mal+0x608>
    40002d29:	f0 83 0c 24 00       	lock orl $0x0,(%rsp)
    40002d2e:	8b 05 38 24 40 00    	mov    0x402438(%rip),%eax        # 4040516c <mal+0x60c>
    40002d34:	85 c0                	test   %eax,%eax
    40002d36:	74 38                	je     40002d70 <free+0x270>
    40002d38:	b9 01 00 00 00       	mov    $0x1,%ecx
    40002d3d:	ba 81 00 00 00       	mov    $0x81,%edx
    40002d42:	be 68 51 40 40       	mov    $0x40405168,%esi
    40002d47:	bf ca 00 00 00       	mov    $0xca,%edi
    40002d4c:	e8 a5 73 00 00       	callq  4000a0f6 <ocall_syscall3>
    40002d51:	48 83 f8 da          	cmp    $0xffffffffffffffda,%rax
    40002d55:	75 19                	jne    40002d70 <free+0x270>
    40002d57:	b9 01 00 00 00       	mov    $0x1,%ecx
    40002d5c:	ba 01 00 00 00       	mov    $0x1,%edx
    40002d61:	be 68 51 40 40       	mov    $0x40405168,%esi
    40002d66:	bf ca 00 00 00       	mov    $0xca,%edi
    40002d6b:	e8 86 73 00 00       	callq  4000a0f6 <ocall_syscall3>
    40002d70:	4b 8d 54 6d 00       	lea    0x0(%r13,%r13,2),%rdx
    40002d75:	4b 8d 44 6d fe       	lea    -0x2(%r13,%r13,2),%rax
    40002d7a:	48 8b 14 d5 78 4b 40 	mov    0x40404b78(,%rdx,8),%rdx
    40002d81:	40 
    40002d82:	48 8d 04 c5 70 4b 40 	lea    0x40404b70(,%rax,8),%rax
    40002d89:	40 
    40002d8a:	48 89 43 10          	mov    %rax,0x10(%rbx)
    40002d8e:	48 89 53 18          	mov    %rdx,0x18(%rbx)
    40002d92:	48 89 58 18          	mov    %rbx,0x18(%rax)
    40002d96:	48 8b 43 18          	mov    0x18(%rbx),%rax
    40002d9a:	48 89 58 10          	mov    %rbx,0x10(%rax)
    40002d9e:	8b 44 24 24          	mov    0x24(%rsp),%eax
    40002da2:	85 c0                	test   %eax,%eax
    40002da4:	0f 85 03 02 00 00    	jne    40002fad <free+0x4ad>
    40002daa:	8b 45 00             	mov    0x0(%rbp),%eax
    40002dad:	85 c0                	test   %eax,%eax
    40002daf:	74 37                	je     40002de8 <free+0x2e8>
    40002db1:	31 c0                	xor    %eax,%eax
    40002db3:	89 45 00             	mov    %eax,0x0(%rbp)
    40002db6:	f0 83 0c 24 00       	lock orl $0x0,(%rsp)
    40002dbb:	8b 45 04             	mov    0x4(%rbp),%eax
    40002dbe:	85 c0                	test   %eax,%eax
    40002dc0:	74 26                	je     40002de8 <free+0x2e8>
    40002dc2:	b9 01 00 00 00       	mov    $0x1,%ecx
    40002dc7:	ba 81 00 00 00       	mov    $0x81,%edx
    40002dcc:	48 89 ee             	mov    %rbp,%rsi
    40002dcf:	bf ca 00 00 00       	mov    $0xca,%edi
    40002dd4:	e8 1d 73 00 00       	callq  4000a0f6 <ocall_syscall3>
    40002dd9:	48 83 f8 da          	cmp    $0xffffffffffffffda,%rax
    40002ddd:	0f 84 f6 01 00 00    	je     40002fd9 <free+0x4d9>
    40002de3:	0f 1f 44 00 00       	nopl   0x0(%rax,%rax,1)
    40002de8:	48 83 c4 38          	add    $0x38,%rsp
    40002dec:	5b                   	pop    %rbx
    40002ded:	5d                   	pop    %rbp
    40002dee:	41 5c                	pop    %r12
    40002df0:	41 5d                	pop    %r13
    40002df2:	41 5e                	pop    %r14
    40002df4:	41 5f                	pop    %r15
    40002df6:	c3                   	retq   
    40002df7:	66 0f 1f 84 00 00 00 	nopw   0x0(%rax,%rax,1)
    40002dfe:	00 00 
    40002e00:	48 8b 57 f0          	mov    -0x10(%rdi),%rdx
    40002e04:	48 83 e0 fe          	and    $0xfffffffffffffffe,%rax
    40002e08:	48 29 d3             	sub    %rdx,%rbx
    40002e0b:	48 8d 34 10          	lea    (%rax,%rdx,1),%rsi
    40002e0f:	83 e2 01             	and    $0x1,%edx
    40002e12:	48 89 df             	mov    %rbx,%rdi
    40002e15:	74 01                	je     40002e18 <free+0x318>
    40002e17:	f4                   	hlt    
    40002e18:	48 83 c4 38          	add    $0x38,%rsp
    40002e1c:	5b                   	pop    %rbx
    40002e1d:	5d                   	pop    %rbp
    40002e1e:	41 5c                	pop    %r12
    40002e20:	41 5d                	pop    %r13
    40002e22:	41 5e                	pop    %r14
    40002e24:	41 5f                	pop    %r15
    40002e26:	e9 44 0c 00 00       	jmpq   40003a6f <__munmap>
    40002e2b:	0f 1f 44 00 00       	nopl   0x0(%rax,%rax,1)
    40002e30:	48 c1 e8 07          	shr    $0x7,%rax
    40002e34:	0f b6 80 5c 03 40 40 	movzbl 0x4040035c(%rax),%eax
    40002e3b:	83 c0 10             	add    $0x10,%eax
    40002e3e:	89 44 24 10          	mov    %eax,0x10(%rsp)
    40002e42:	e9 5d fd ff ff       	jmpq   40002ba4 <free+0xa4>
    40002e47:	66 0f 1f 84 00 00 00 	nopw   0x0(%rax,%rax,1)
    40002e4e:	00 00 
    40002e50:	b8 01 00 00 00       	mov    $0x1,%eax
    40002e55:	87 05 0d 23 40 00    	xchg   %eax,0x40230d(%rip)        # 40405168 <mal+0x608>
    40002e5b:	85 c0                	test   %eax,%eax
    40002e5d:	0f 84 8e fd ff ff    	je     40002bf1 <free+0xf1>
    40002e63:	0f 1f 44 00 00       	nopl   0x0(%rax,%rax,1)
    40002e68:	b9 01 00 00 00       	mov    $0x1,%ecx
    40002e6d:	ba 01 00 00 00       	mov    $0x1,%edx
    40002e72:	be 6c 51 40 40       	mov    $0x4040516c,%esi
    40002e77:	bf 68 51 40 40       	mov    $0x40405168,%edi
    40002e7c:	e8 6d 32 00 00       	callq  400060ee <__wait>
    40002e81:	b8 01 00 00 00       	mov    $0x1,%eax
    40002e86:	be 60 4b 40 40       	mov    $0x40404b60,%esi
    40002e8b:	87 86 08 06 00 00    	xchg   %eax,0x608(%rsi)
    40002e91:	85 c0                	test   %eax,%eax
    40002e93:	75 d3                	jne    40002e68 <free+0x368>
    40002e95:	e9 57 fd ff ff       	jmpq   40002bf1 <free+0xf1>
    40002e9a:	66 0f 1f 44 00 00    	nopw   0x0(%rax,%rax,1)
    40002ea0:	b8 01 00 00 00       	mov    $0x1,%eax
    40002ea5:	41 87 47 08          	xchg   %eax,0x8(%r15)
    40002ea9:	85 c0                	test   %eax,%eax
    40002eab:	0f 84 17 fd ff ff    	je     40002bc8 <free+0xc8>
    40002eb1:	49 8d 47 0c          	lea    0xc(%r15),%rax
    40002eb5:	48 89 44 24 08       	mov    %rax,0x8(%rsp)
    40002eba:	66 0f 1f 44 00 00    	nopw   0x0(%rax,%rax,1)
    40002ec0:	48 8b 74 24 08       	mov    0x8(%rsp),%rsi
    40002ec5:	b9 01 00 00 00       	mov    $0x1,%ecx
    40002eca:	ba 01 00 00 00       	mov    $0x1,%edx
    40002ecf:	48 89 ef             	mov    %rbp,%rdi
    40002ed2:	e8 17 32 00 00       	callq  400060ee <__wait>
    40002ed7:	b8 01 00 00 00       	mov    $0x1,%eax
    40002edc:	87 45 00             	xchg   %eax,0x0(%rbp)
    40002edf:	85 c0                	test   %eax,%eax
    40002ee1:	75 dd                	jne    40002ec0 <free+0x3c0>
    40002ee3:	e9 e0 fc ff ff       	jmpq   40002bc8 <free+0xc8>
    40002ee8:	0f 1f 84 00 00 00 00 	nopl   0x0(%rax,%rax,1)
    40002eef:	00 
    40002ef0:	48 c1 e8 03          	shr    $0x3,%rax
    40002ef4:	0f b6 80 5c 03 40 40 	movzbl 0x4040035c(%rax),%eax
    40002efb:	89 44 24 10          	mov    %eax,0x10(%rsp)
    40002eff:	e9 a0 fc ff ff       	jmpq   40002ba4 <free+0xa4>
    40002f04:	0f 1f 40 00          	nopl   0x0(%rax)
    40002f08:	b9 01 00 00 00       	mov    $0x1,%ecx
    40002f0d:	ba 81 00 00 00       	mov    $0x81,%edx
    40002f12:	be 68 51 40 40       	mov    $0x40405168,%esi
    40002f17:	bf ca 00 00 00       	mov    $0xca,%edi
    40002f1c:	e8 d5 71 00 00       	callq  4000a0f6 <ocall_syscall3>
    40002f21:	48 83 f8 da          	cmp    $0xffffffffffffffda,%rax
    40002f25:	0f 85 fb fc ff ff    	jne    40002c26 <free+0x126>
    40002f2b:	b9 01 00 00 00       	mov    $0x1,%ecx
    40002f30:	ba 01 00 00 00       	mov    $0x1,%edx
    40002f35:	be 68 51 40 40       	mov    $0x40405168,%esi
    40002f3a:	bf ca 00 00 00       	mov    $0xca,%edi
    40002f3f:	e8 b2 71 00 00       	callq  4000a0f6 <ocall_syscall3>
    40002f44:	e9 dd fc ff ff       	jmpq   40002c26 <free+0x126>
    40002f49:	0f 1f 80 00 00 00 00 	nopl   0x0(%rax)
    40002f50:	b9 01 00 00 00       	mov    $0x1,%ecx
    40002f55:	ba 81 00 00 00       	mov    $0x81,%edx
    40002f5a:	48 89 ee             	mov    %rbp,%rsi
    40002f5d:	bf ca 00 00 00       	mov    $0xca,%edi
    40002f62:	e8 8f 71 00 00       	callq  4000a0f6 <ocall_syscall3>
    40002f67:	48 83 f8 da          	cmp    $0xffffffffffffffda,%rax
    40002f6b:	0f 85 d3 fc ff ff    	jne    40002c44 <free+0x144>
    40002f71:	b9 01 00 00 00       	mov    $0x1,%ecx
    40002f76:	ba 01 00 00 00       	mov    $0x1,%edx
    40002f7b:	48 89 ee             	mov    %rbp,%rsi
    40002f7e:	bf ca 00 00 00       	mov    $0xca,%edi
    40002f83:	e8 6e 71 00 00       	callq  4000a0f6 <ocall_syscall3>
    40002f88:	e9 b7 fc ff ff       	jmpq   40002c44 <free+0x144>
    40002f8d:	0f 1f 00             	nopl   (%rax)
    40002f90:	4b 8d 4c 6d fe       	lea    -0x2(%r13,%r13,2),%rcx
    40002f95:	48 8d 0c cd 70 4b 40 	lea    0x40404b70(,%rcx,8),%rcx
    40002f9c:	40 
    40002f9d:	48 89 8a 78 4b 40 40 	mov    %rcx,0x40404b78(%rdx)
    40002fa4:	48 89 48 10          	mov    %rcx,0x10(%rax)
    40002fa8:	e9 36 fc ff ff       	jmpq   40002be3 <free+0xe3>
    40002fad:	48 8d bb 1f 10 00 00 	lea    0x101f(%rbx),%rdi
    40002fb4:	49 8d 74 24 e0       	lea    -0x20(%r12),%rsi
    40002fb9:	ba 04 00 00 00       	mov    $0x4,%edx
    40002fbe:	48 81 e7 00 f0 ff ff 	and    $0xfffffffffffff000,%rdi
    40002fc5:	48 81 e6 00 f0 ff ff 	and    $0xfffffffffffff000,%rsi
    40002fcc:	48 29 fe             	sub    %rdi,%rsi
    40002fcf:	e8 3b 09 00 00       	callq  4000390f <__madvise>
    40002fd4:	e9 d1 fd ff ff       	jmpq   40002daa <free+0x2aa>
    40002fd9:	48 83 c4 38          	add    $0x38,%rsp
    40002fdd:	48 89 ee             	mov    %rbp,%rsi
    40002fe0:	b9 01 00 00 00       	mov    $0x1,%ecx
    40002fe5:	5b                   	pop    %rbx
    40002fe6:	5d                   	pop    %rbp
    40002fe7:	41 5c                	pop    %r12
    40002fe9:	41 5d                	pop    %r13
    40002feb:	41 5e                	pop    %r14
    40002fed:	41 5f                	pop    %r15
    40002fef:	ba 01 00 00 00       	mov    $0x1,%edx
    40002ff4:	bf ca 00 00 00       	mov    $0xca,%edi
    40002ff9:	e9 f8 70 00 00       	jmpq   4000a0f6 <ocall_syscall3>
    40002ffe:	66 90                	xchg   %ax,%ax

0000000040003000 <malloc>:
    40003000:	41 57                	push   %r15
    40003002:	48 8d 57 ff          	lea    -0x1(%rdi),%rdx
    40003006:	48 b8 df ef ff ff ff 	movabs $0x7fffffffffffefdf,%rax
    4000300d:	ff ff 7f 
    40003010:	41 56                	push   %r14
    40003012:	41 55                	push   %r13
    40003014:	41 54                	push   %r12
    40003016:	55                   	push   %rbp
    40003017:	53                   	push   %rbx
    40003018:	48 83 ec 28          	sub    $0x28,%rsp
    4000301c:	48 39 c2             	cmp    %rax,%rdx
    4000301f:	0f 86 e3 01 00 00    	jbe    40003208 <malloc+0x208>
    40003025:	48 85 ff             	test   %rdi,%rdi
    40003028:	0f 85 70 05 00 00    	jne    4000359e <malloc+0x59e>
    4000302e:	48 c7 04 24 20 00 00 	movq   $0x20,(%rsp)
    40003035:	00 
    40003036:	45 31 ff             	xor    %r15d,%r15d
    40003039:	44 89 7c 24 0c       	mov    %r15d,0xc(%rsp)
    4000303e:	0f b6 4c 24 0c       	movzbl 0xc(%rsp),%ecx
    40003043:	49 c7 c4 ff ff ff ff 	mov    $0xffffffffffffffff,%r12
    4000304a:	49 d3 e4             	shl    %cl,%r12
    4000304d:	0f 1f 00             	nopl   (%rax)
    40003050:	4c 8b 0d 09 1b 40 00 	mov    0x401b09(%rip),%r9        # 40404b60 <mal>
    40003057:	4d 21 e1             	and    %r12,%r9
    4000305a:	0f 84 c0 00 00 00    	je     40003120 <malloc+0x120>
    40003060:	4d 0f bc c9          	bsf    %r9,%r9
    40003064:	4d 63 f1             	movslq %r9d,%r14
    40003067:	45 89 cd             	mov    %r9d,%r13d
    4000306a:	4b 8d 04 76          	lea    (%r14,%r14,2),%rax
    4000306e:	48 8d 1c c5 60 4b 40 	lea    0x40404b60(,%rax,8),%rbx
    40003075:	40 
    40003076:	8b 05 30 28 40 00    	mov    0x402830(%rip),%eax        # 404058ac <__libc+0xc>
    4000307c:	4c 8d 7b 08          	lea    0x8(%rbx),%r15
    40003080:	85 c0                	test   %eax,%eax
    40003082:	0f 85 38 02 00 00    	jne    400032c0 <malloc+0x2c0>
    40003088:	4b 8d 14 76          	lea    (%r14,%r14,2),%rdx
    4000308c:	48 c1 e2 03          	shl    $0x3,%rdx
    40003090:	48 8d 82 60 4b 40 40 	lea    0x40404b60(%rdx),%rax
    40003097:	48 8b 68 10          	mov    0x10(%rax),%rbp
    4000309b:	48 85 ed             	test   %rbp,%rbp
    4000309e:	0f 84 5c 02 00 00    	je     40003300 <malloc+0x300>
    400030a4:	4b 8d 44 76 fe       	lea    -0x2(%r14,%r14,2),%rax
    400030a9:	48 8d 04 c5 70 4b 40 	lea    0x40404b70(,%rax,8),%rax
    400030b0:	40 
    400030b1:	48 39 c5             	cmp    %rax,%rbp
    400030b4:	0f 85 66 02 00 00    	jne    40003320 <malloc+0x320>
    400030ba:	8b 43 08             	mov    0x8(%rbx),%eax
    400030bd:	85 c0                	test   %eax,%eax
    400030bf:	74 8f                	je     40003050 <malloc+0x50>
    400030c1:	31 c0                	xor    %eax,%eax
    400030c3:	89 43 08             	mov    %eax,0x8(%rbx)
    400030c6:	f0 83 0c 24 00       	lock orl $0x0,(%rsp)
    400030cb:	41 8b 47 04          	mov    0x4(%r15),%eax
    400030cf:	85 c0                	test   %eax,%eax
    400030d1:	0f 84 79 ff ff ff    	je     40003050 <malloc+0x50>
    400030d7:	b9 01 00 00 00       	mov    $0x1,%ecx
    400030dc:	ba 81 00 00 00       	mov    $0x81,%edx
    400030e1:	4c 89 fe             	mov    %r15,%rsi
    400030e4:	bf ca 00 00 00       	mov    $0xca,%edi
    400030e9:	e8 08 70 00 00       	callq  4000a0f6 <ocall_syscall3>
    400030ee:	48 83 f8 da          	cmp    $0xffffffffffffffda,%rax
    400030f2:	0f 85 58 ff ff ff    	jne    40003050 <malloc+0x50>
    400030f8:	b9 01 00 00 00       	mov    $0x1,%ecx
    400030fd:	ba 01 00 00 00       	mov    $0x1,%edx
    40003102:	4c 89 fe             	mov    %r15,%rsi
    40003105:	bf ca 00 00 00       	mov    $0xca,%edi
    4000310a:	e8 e7 6f 00 00       	callq  4000a0f6 <ocall_syscall3>
    4000310f:	4c 8b 0d 4a 1a 40 00 	mov    0x401a4a(%rip),%r9        # 40404b60 <mal>
    40003116:	4d 21 e1             	and    %r12,%r9
    40003119:	0f 85 41 ff ff ff    	jne    40003060 <malloc+0x60>
    4000311f:	90                   	nop
    40003120:	48 8b 04 24          	mov    (%rsp),%rax
    40003124:	48 83 c0 20          	add    $0x20,%rax
    40003128:	48 89 44 24 10       	mov    %rax,0x10(%rsp)
    4000312d:	8b 05 79 27 40 00    	mov    0x402779(%rip),%eax        # 404058ac <__libc+0xc>
    40003133:	85 c0                	test   %eax,%eax
    40003135:	0f 85 e2 03 00 00    	jne    4000351d <malloc+0x51d>
    4000313b:	48 8d 7c 24 10       	lea    0x10(%rsp),%rdi
    40003140:	e8 0b 31 00 00       	callq  40006250 <__expand_heap>
    40003145:	48 85 c0             	test   %rax,%rax
    40003148:	0f 84 72 04 00 00    	je     400035c0 <malloc+0x5c0>
    4000314e:	48 3b 05 fb 19 40 00 	cmp    0x4019fb(%rip),%rax        # 40404b50 <end.3333>
    40003155:	0f 84 02 04 00 00    	je     4000355d <malloc+0x55d>
    4000315b:	48 8b 74 24 10       	mov    0x10(%rsp),%rsi
    40003160:	48 8d 58 20          	lea    0x20(%rax),%rbx
    40003164:	48 c7 40 10 01 00 00 	movq   $0x1,0x10(%rax)
    4000316b:	00 
    4000316c:	48 8d 56 e0          	lea    -0x20(%rsi),%rdx
    40003170:	48 89 54 24 10       	mov    %rdx,0x10(%rsp)
    40003175:	48 8d 04 13          	lea    (%rbx,%rdx,1),%rax
    40003179:	48 83 ca 01          	or     $0x1,%rdx
    4000317d:	4c 8d 63 f0          	lea    -0x10(%rbx),%r12
    40003181:	48 89 50 f0          	mov    %rdx,-0x10(%rax)
    40003185:	48 c7 40 f8 01 00 00 	movq   $0x1,-0x8(%rax)
    4000318c:	00 
    4000318d:	48 89 05 bc 19 40 00 	mov    %rax,0x4019bc(%rip)        # 40404b50 <end.3333>
    40003194:	8b 05 be 19 40 00    	mov    0x4019be(%rip),%eax        # 40404b58 <heap_lock.3332>
    4000319a:	48 89 53 f8          	mov    %rdx,-0x8(%rbx)
    4000319e:	85 c0                	test   %eax,%eax
    400031a0:	74 1b                	je     400031bd <malloc+0x1bd>
    400031a2:	31 c0                	xor    %eax,%eax
    400031a4:	89 05 ae 19 40 00    	mov    %eax,0x4019ae(%rip)        # 40404b58 <heap_lock.3332>
    400031aa:	f0 83 0c 24 00       	lock orl $0x0,(%rsp)
    400031af:	8b 05 a7 19 40 00    	mov    0x4019a7(%rip),%eax        # 40404b5c <heap_lock.3332+0x4>
    400031b5:	85 c0                	test   %eax,%eax
    400031b7:	0f 85 c9 02 00 00    	jne    40003486 <malloc+0x486>
    400031bd:	4d 85 e4             	test   %r12,%r12
    400031c0:	0f 84 53 04 00 00    	je     40003619 <malloc+0x619>
    400031c6:	4c 89 e7             	mov    %r12,%rdi
    400031c9:	e8 a2 f6 ff ff       	callq  40002870 <alloc_rev>
    400031ce:	85 c0                	test   %eax,%eax
    400031d0:	0f 84 a4 02 00 00    	je     4000347a <malloc+0x47a>
    400031d6:	48 8b 43 f0          	mov    -0x10(%rbx),%rax
    400031da:	4c 89 e5             	mov    %r12,%rbp
    400031dd:	48 8b 53 f8          	mov    -0x8(%rbx),%rdx
    400031e1:	48 83 e0 fe          	and    $0xfffffffffffffffe,%rax
    400031e5:	48 29 c5             	sub    %rax,%rbp
    400031e8:	48 8b 45 08          	mov    0x8(%rbp),%rax
    400031ec:	48 83 e0 fe          	and    $0xfffffffffffffffe,%rax
    400031f0:	48 01 d0             	add    %rdx,%rax
    400031f3:	48 83 e2 fe          	and    $0xfffffffffffffffe,%rdx
    400031f7:	48 89 45 08          	mov    %rax,0x8(%rbp)
    400031fb:	49 89 04 14          	mov    %rax,(%r12,%rdx,1)
    400031ff:	e9 dd 01 00 00       	jmpq   400033e1 <malloc+0x3e1>
    40003204:	0f 1f 40 00          	nopl   0x0(%rax)
    40003208:	48 8d 47 2f          	lea    0x2f(%rdi),%rax
    4000320c:	48 89 04 24          	mov    %rax,(%rsp)
    40003210:	48 83 24 24 e0       	andq   $0xffffffffffffffe0,(%rsp)
    40003215:	48 81 3c 24 00 80 03 	cmpq   $0x38000,(%rsp)
    4000321c:	00 
    4000321d:	76 5c                	jbe    4000327b <malloc+0x27b>
    4000321f:	4c 8b 34 24          	mov    (%rsp),%r14
    40003223:	45 31 c9             	xor    %r9d,%r9d
    40003226:	31 ff                	xor    %edi,%edi
    40003228:	41 b8 ff ff ff ff    	mov    $0xffffffff,%r8d
    4000322e:	b9 22 00 00 00       	mov    $0x22,%ecx
    40003233:	ba 03 00 00 00       	mov    $0x3,%edx
    40003238:	49 81 c6 0f 10 00 00 	add    $0x100f,%r14
    4000323f:	49 81 e6 00 f0 ff ff 	and    $0xfffffffffffff000,%r14
    40003246:	4c 89 f6             	mov    %r14,%rsi
    40003249:	e8 e0 06 00 00       	callq  4000392e <__mmap>
    4000324e:	48 83 f8 ff          	cmp    $0xffffffffffffffff,%rax
    40003252:	0f 84 c1 03 00 00    	je     40003619 <malloc+0x619>
    40003258:	49 83 ee 10          	sub    $0x10,%r14
    4000325c:	48 c7 40 10 10 00 00 	movq   $0x10,0x10(%rax)
    40003263:	00 
    40003264:	48 83 c0 20          	add    $0x20,%rax
    40003268:	4c 89 70 f8          	mov    %r14,-0x8(%rax)
    4000326c:	48 83 c4 28          	add    $0x28,%rsp
    40003270:	5b                   	pop    %rbx
    40003271:	5d                   	pop    %rbp
    40003272:	41 5c                	pop    %r12
    40003274:	41 5d                	pop    %r13
    40003276:	41 5e                	pop    %r14
    40003278:	41 5f                	pop    %r15
    4000327a:	c3                   	retq   
    4000327b:	48 8b 04 24          	mov    (%rsp),%rax
    4000327f:	48 c1 e8 05          	shr    $0x5,%rax
    40003283:	4c 8d 78 ff          	lea    -0x1(%rax),%r15
    40003287:	49 83 ff 20          	cmp    $0x20,%r15
    4000328b:	0f 86 a8 fd ff ff    	jbe    40003039 <malloc+0x39>
    40003291:	48 83 e8 02          	sub    $0x2,%rax
    40003295:	48 3d ff 01 00 00    	cmp    $0x1ff,%rax
    4000329b:	0f 86 63 02 00 00    	jbe    40003504 <malloc+0x504>
    400032a1:	48 c1 e8 07          	shr    $0x7,%rax
    400032a5:	44 0f b6 b8 5c 03 40 	movzbl 0x4040035c(%rax),%r15d
    400032ac:	40 
    400032ad:	41 8d 47 11          	lea    0x11(%r15),%eax
    400032b1:	89 44 24 0c          	mov    %eax,0xc(%rsp)
    400032b5:	e9 84 fd ff ff       	jmpq   4000303e <malloc+0x3e>
    400032ba:	66 0f 1f 44 00 00    	nopw   0x0(%rax,%rax,1)
    400032c0:	b8 01 00 00 00       	mov    $0x1,%eax
    400032c5:	87 43 08             	xchg   %eax,0x8(%rbx)
    400032c8:	85 c0                	test   %eax,%eax
    400032ca:	0f 84 b8 fd ff ff    	je     40003088 <malloc+0x88>
    400032d0:	48 8d 6b 0c          	lea    0xc(%rbx),%rbp
    400032d4:	0f 1f 40 00          	nopl   0x0(%rax)
    400032d8:	b9 01 00 00 00       	mov    $0x1,%ecx
    400032dd:	ba 01 00 00 00       	mov    $0x1,%edx
    400032e2:	48 89 ee             	mov    %rbp,%rsi
    400032e5:	4c 89 ff             	mov    %r15,%rdi
    400032e8:	e8 01 2e 00 00       	callq  400060ee <__wait>
    400032ed:	b8 01 00 00 00       	mov    $0x1,%eax
    400032f2:	41 87 07             	xchg   %eax,(%r15)
    400032f5:	85 c0                	test   %eax,%eax
    400032f7:	75 df                	jne    400032d8 <malloc+0x2d8>
    400032f9:	e9 8a fd ff ff       	jmpq   40003088 <malloc+0x88>
    400032fe:	66 90                	xchg   %ax,%ax
    40003300:	4b 8d 4c 76 fe       	lea    -0x2(%r14,%r14,2),%rcx
    40003305:	48 8d 0c cd 70 4b 40 	lea    0x40404b70(,%rcx,8),%rcx
    4000330c:	40 
    4000330d:	48 89 8a 78 4b 40 40 	mov    %rcx,0x40404b78(%rdx)
    40003314:	48 89 48 10          	mov    %rcx,0x10(%rax)
    40003318:	e9 9d fd ff ff       	jmpq   400030ba <malloc+0xba>
    4000331d:	0f 1f 00             	nopl   (%rax)
    40003320:	41 83 fd 27          	cmp    $0x27,%r13d
    40003324:	0f 8e 15 01 00 00    	jle    4000343f <malloc+0x43f>
    4000332a:	8b 44 24 0c          	mov    0xc(%rsp),%eax
    4000332e:	83 c0 02             	add    $0x2,%eax
    40003331:	44 39 e8             	cmp    %r13d,%eax
    40003334:	0f 8d fb 00 00 00    	jge    40003435 <malloc+0x435>
    4000333a:	48 8b 55 08          	mov    0x8(%rbp),%rdx
    4000333e:	48 83 e2 fe          	and    $0xfffffffffffffffe,%rdx
    40003342:	48 89 d6             	mov    %rdx,%rsi
    40003345:	48 2b 34 24          	sub    (%rsp),%rsi
    40003349:	48 89 f0             	mov    %rsi,%rax
    4000334c:	48 c1 e8 05          	shr    $0x5,%rax
    40003350:	48 83 e8 01          	sub    $0x1,%rax
    40003354:	48 83 f8 20          	cmp    $0x20,%rax
    40003358:	0f 86 e1 00 00 00    	jbe    4000343f <malloc+0x43f>
    4000335e:	48 3d ff 01 00 00    	cmp    $0x1ff,%rax
    40003364:	0f 86 46 02 00 00    	jbe    400035b0 <malloc+0x5b0>
    4000336a:	48 3d 00 1c 00 00    	cmp    $0x1c00,%rax
    40003370:	b9 3f 00 00 00       	mov    $0x3f,%ecx
    40003375:	0f 86 10 02 00 00    	jbe    4000358b <malloc+0x58b>
    4000337b:	41 39 cd             	cmp    %ecx,%r13d
    4000337e:	0f 85 bb 00 00 00    	jne    4000343f <malloc+0x43f>
    40003384:	48 8b 1c 24          	mov    (%rsp),%rbx
    40003388:	48 8b 45 18          	mov    0x18(%rbp),%rax
    4000338c:	48 8b 7d 10          	mov    0x10(%rbp),%rdi
    40003390:	48 8d 4c 1d 00       	lea    0x0(%rbp,%rbx,1),%rcx
    40003395:	48 89 41 18          	mov    %rax,0x18(%rcx)
    40003399:	48 89 79 10          	mov    %rdi,0x10(%rcx)
    4000339d:	48 89 48 10          	mov    %rcx,0x10(%rax)
    400033a1:	48 8b 41 10          	mov    0x10(%rcx),%rax
    400033a5:	48 89 48 18          	mov    %rcx,0x18(%rax)
    400033a9:	48 89 d8             	mov    %rbx,%rax
    400033ac:	48 89 71 08          	mov    %rsi,0x8(%rcx)
    400033b0:	48 83 c8 01          	or     $0x1,%rax
    400033b4:	48 89 01             	mov    %rax,(%rcx)
    400033b7:	48 89 74 15 00       	mov    %rsi,0x0(%rbp,%rdx,1)
    400033bc:	48 89 45 08          	mov    %rax,0x8(%rbp)
    400033c0:	41 8b 17             	mov    (%r15),%edx
    400033c3:	85 d2                	test   %edx,%edx
    400033c5:	74 1a                	je     400033e1 <malloc+0x3e1>
    400033c7:	31 c0                	xor    %eax,%eax
    400033c9:	41 89 07             	mov    %eax,(%r15)
    400033cc:	f0 83 0c 24 00       	lock orl $0x0,(%rsp)
    400033d1:	41 8b 47 04          	mov    0x4(%r15),%eax
    400033d5:	85 c0                	test   %eax,%eax
    400033d7:	0f 85 ea 00 00 00    	jne    400034c7 <malloc+0x4c7>
    400033dd:	48 8b 45 08          	mov    0x8(%rbp),%rax
    400033e1:	48 83 e0 fe          	and    $0xfffffffffffffffe,%rax
    400033e5:	48 8d 50 f0          	lea    -0x10(%rax),%rdx
    400033e9:	48 39 14 24          	cmp    %rdx,(%rsp)
    400033ed:	73 33                	jae    40003422 <malloc+0x422>
    400033ef:	48 8b 3c 24          	mov    (%rsp),%rdi
    400033f3:	48 89 c2             	mov    %rax,%rdx
    400033f6:	48 8d 4c 3d 00       	lea    0x0(%rbp,%rdi,1),%rcx
    400033fb:	48 89 fe             	mov    %rdi,%rsi
    400033fe:	48 29 fa             	sub    %rdi,%rdx
    40003401:	48 83 ce 01          	or     $0x1,%rsi
    40003405:	48 83 ca 01          	or     $0x1,%rdx
    40003409:	48 8d 79 10          	lea    0x10(%rcx),%rdi
    4000340d:	48 89 31             	mov    %rsi,(%rcx)
    40003410:	48 89 51 08          	mov    %rdx,0x8(%rcx)
    40003414:	48 89 54 05 00       	mov    %rdx,0x0(%rbp,%rax,1)
    40003419:	48 89 75 08          	mov    %rsi,0x8(%rbp)
    4000341d:	e8 de f6 ff ff       	callq  40002b00 <free>
    40003422:	48 83 c4 28          	add    $0x28,%rsp
    40003426:	48 8d 45 10          	lea    0x10(%rbp),%rax
    4000342a:	5b                   	pop    %rbx
    4000342b:	5d                   	pop    %rbp
    4000342c:	41 5c                	pop    %r12
    4000342e:	41 5d                	pop    %r13
    40003430:	41 5e                	pop    %r14
    40003432:	41 5f                	pop    %r15
    40003434:	c3                   	retq   
    40003435:	41 83 fd 3f          	cmp    $0x3f,%r13d
    40003439:	0f 84 2b 01 00 00    	je     4000356a <malloc+0x56a>
    4000343f:	48 8b 45 18          	mov    0x18(%rbp),%rax
    40003443:	48 8b 55 10          	mov    0x10(%rbp),%rdx
    40003447:	48 39 d0             	cmp    %rdx,%rax
    4000344a:	0f 84 d0 01 00 00    	je     40003620 <malloc+0x620>
    40003450:	48 89 50 10          	mov    %rdx,0x10(%rax)
    40003454:	48 8b 55 10          	mov    0x10(%rbp),%rdx
    40003458:	48 89 42 18          	mov    %rax,0x18(%rdx)
    4000345c:	48 8b 55 08          	mov    0x8(%rbp),%rdx
    40003460:	48 89 d0             	mov    %rdx,%rax
    40003463:	48 83 e2 fe          	and    $0xfffffffffffffffe,%rdx
    40003467:	48 83 c8 01          	or     $0x1,%rax
    4000346b:	48 89 45 08          	mov    %rax,0x8(%rbp)
    4000346f:	48 83 4c 15 00 01    	orq    $0x1,0x0(%rbp,%rdx,1)
    40003475:	e9 46 ff ff ff       	jmpq   400033c0 <malloc+0x3c0>
    4000347a:	48 8b 43 f8          	mov    -0x8(%rbx),%rax
    4000347e:	4c 89 e5             	mov    %r12,%rbp
    40003481:	e9 5b ff ff ff       	jmpq   400033e1 <malloc+0x3e1>
    40003486:	b9 01 00 00 00       	mov    $0x1,%ecx
    4000348b:	ba 81 00 00 00       	mov    $0x81,%edx
    40003490:	be 58 4b 40 40       	mov    $0x40404b58,%esi
    40003495:	bf ca 00 00 00       	mov    $0xca,%edi
    4000349a:	e8 57 6c 00 00       	callq  4000a0f6 <ocall_syscall3>
    4000349f:	48 83 f8 da          	cmp    $0xffffffffffffffda,%rax
    400034a3:	0f 85 14 fd ff ff    	jne    400031bd <malloc+0x1bd>
    400034a9:	b9 01 00 00 00       	mov    $0x1,%ecx
    400034ae:	ba 01 00 00 00       	mov    $0x1,%edx
    400034b3:	be 58 4b 40 40       	mov    $0x40404b58,%esi
    400034b8:	bf ca 00 00 00       	mov    $0xca,%edi
    400034bd:	e8 34 6c 00 00       	callq  4000a0f6 <ocall_syscall3>
    400034c2:	e9 f6 fc ff ff       	jmpq   400031bd <malloc+0x1bd>
    400034c7:	b9 01 00 00 00       	mov    $0x1,%ecx
    400034cc:	ba 81 00 00 00       	mov    $0x81,%edx
    400034d1:	4c 89 fe             	mov    %r15,%rsi
    400034d4:	bf ca 00 00 00       	mov    $0xca,%edi
    400034d9:	e8 18 6c 00 00       	callq  4000a0f6 <ocall_syscall3>
    400034de:	48 83 f8 da          	cmp    $0xffffffffffffffda,%rax
    400034e2:	0f 85 f5 fe ff ff    	jne    400033dd <malloc+0x3dd>
    400034e8:	b9 01 00 00 00       	mov    $0x1,%ecx
    400034ed:	ba 01 00 00 00       	mov    $0x1,%edx
    400034f2:	4c 89 fe             	mov    %r15,%rsi
    400034f5:	bf ca 00 00 00       	mov    $0xca,%edi
    400034fa:	e8 f7 6b 00 00       	callq  4000a0f6 <ocall_syscall3>
    400034ff:	e9 d9 fe ff ff       	jmpq   400033dd <malloc+0x3dd>
    40003504:	48 c1 e8 03          	shr    $0x3,%rax
    40003508:	44 0f b6 b8 5c 03 40 	movzbl 0x4040035c(%rax),%r15d
    4000350f:	40 
    40003510:	41 8d 47 01          	lea    0x1(%r15),%eax
    40003514:	89 44 24 0c          	mov    %eax,0xc(%rsp)
    40003518:	e9 21 fb ff ff       	jmpq   4000303e <malloc+0x3e>
    4000351d:	b8 01 00 00 00       	mov    $0x1,%eax
    40003522:	87 05 30 16 40 00    	xchg   %eax,0x401630(%rip)        # 40404b58 <heap_lock.3332>
    40003528:	85 c0                	test   %eax,%eax
    4000352a:	0f 84 0b fc ff ff    	je     4000313b <malloc+0x13b>
    40003530:	b9 01 00 00 00       	mov    $0x1,%ecx
    40003535:	ba 01 00 00 00       	mov    $0x1,%edx
    4000353a:	be 5c 4b 40 40       	mov    $0x40404b5c,%esi
    4000353f:	bf 58 4b 40 40       	mov    $0x40404b58,%edi
    40003544:	e8 a5 2b 00 00       	callq  400060ee <__wait>
    40003549:	b8 01 00 00 00       	mov    $0x1,%eax
    4000354e:	87 05 04 16 40 00    	xchg   %eax,0x401604(%rip)        # 40404b58 <heap_lock.3332>
    40003554:	85 c0                	test   %eax,%eax
    40003556:	75 d8                	jne    40003530 <malloc+0x530>
    40003558:	e9 de fb ff ff       	jmpq   4000313b <malloc+0x13b>
    4000355d:	48 8b 54 24 10       	mov    0x10(%rsp),%rdx
    40003562:	48 89 c3             	mov    %rax,%rbx
    40003565:	e9 0b fc ff ff       	jmpq   40003175 <malloc+0x175>
    4000356a:	48 8b 55 08          	mov    0x8(%rbp),%rdx
    4000356e:	48 83 e2 fe          	and    $0xfffffffffffffffe,%rdx
    40003572:	48 89 d6             	mov    %rdx,%rsi
    40003575:	48 2b 34 24          	sub    (%rsp),%rsi
    40003579:	48 81 fe 00 80 03 00 	cmp    $0x38000,%rsi
    40003580:	0f 87 c3 fd ff ff    	ja     40003349 <malloc+0x349>
    40003586:	e9 b4 fe ff ff       	jmpq   4000343f <malloc+0x43f>
    4000358b:	48 c1 e8 07          	shr    $0x7,%rax
    4000358f:	0f b6 88 5c 03 40 40 	movzbl 0x4040035c(%rax),%ecx
    40003596:	83 c1 10             	add    $0x10,%ecx
    40003599:	e9 dd fd ff ff       	jmpq   4000337b <malloc+0x37b>
    4000359e:	e8 20 ee ff ff       	callq  400023c3 <__tls_errno_location>
    400035a3:	c7 00 0c 00 00 00    	movl   $0xc,(%rax)
    400035a9:	31 c0                	xor    %eax,%eax
    400035ab:	e9 bc fc ff ff       	jmpq   4000326c <malloc+0x26c>
    400035b0:	48 c1 e8 03          	shr    $0x3,%rax
    400035b4:	0f b6 88 5c 03 40 40 	movzbl 0x4040035c(%rax),%ecx
    400035bb:	e9 bb fd ff ff       	jmpq   4000337b <malloc+0x37b>
    400035c0:	8b 05 92 15 40 00    	mov    0x401592(%rip),%eax        # 40404b58 <heap_lock.3332>
    400035c6:	85 c0                	test   %eax,%eax
    400035c8:	74 4f                	je     40003619 <malloc+0x619>
    400035ca:	31 c0                	xor    %eax,%eax
    400035cc:	89 05 86 15 40 00    	mov    %eax,0x401586(%rip)        # 40404b58 <heap_lock.3332>
    400035d2:	f0 83 0c 24 00       	lock orl $0x0,(%rsp)
    400035d7:	8b 05 7f 15 40 00    	mov    0x40157f(%rip),%eax        # 40404b5c <heap_lock.3332+0x4>
    400035dd:	85 c0                	test   %eax,%eax
    400035df:	74 38                	je     40003619 <malloc+0x619>
    400035e1:	b9 01 00 00 00       	mov    $0x1,%ecx
    400035e6:	ba 81 00 00 00       	mov    $0x81,%edx
    400035eb:	be 58 4b 40 40       	mov    $0x40404b58,%esi
    400035f0:	bf ca 00 00 00       	mov    $0xca,%edi
    400035f5:	e8 fc 6a 00 00       	callq  4000a0f6 <ocall_syscall3>
    400035fa:	48 83 f8 da          	cmp    $0xffffffffffffffda,%rax
    400035fe:	75 19                	jne    40003619 <malloc+0x619>
    40003600:	b9 01 00 00 00       	mov    $0x1,%ecx
    40003605:	ba 01 00 00 00       	mov    $0x1,%edx
    4000360a:	be 58 4b 40 40       	mov    $0x40404b58,%esi
    4000360f:	bf ca 00 00 00       	mov    $0xca,%edi
    40003614:	e8 dd 6a 00 00       	callq  4000a0f6 <ocall_syscall3>
    40003619:	31 c0                	xor    %eax,%eax
    4000361b:	e9 4c fc ff ff       	jmpq   4000326c <malloc+0x26c>
    40003620:	44 89 e9             	mov    %r13d,%ecx
    40003623:	48 c7 c0 fe ff ff ff 	mov    $0xfffffffffffffffe,%rax
    4000362a:	48 d3 c0             	rol    %cl,%rax
    4000362d:	f0 48 21 05 2b 15 40 	lock and %rax,0x40152b(%rip)        # 40404b60 <mal>
    40003634:	00 
    40003635:	48 8b 45 18          	mov    0x18(%rbp),%rax
    40003639:	48 8b 55 10          	mov    0x10(%rbp),%rdx
    4000363d:	e9 0e fe ff ff       	jmpq   40003450 <malloc+0x450>
    40003642:	66 2e 0f 1f 84 00 00 	nopw   %cs:0x0(%rax,%rax,1)
    40003649:	00 00 00 
    4000364c:	0f 1f 40 00          	nopl   0x0(%rax)

0000000040003650 <__malloc0>:
    40003650:	53                   	push   %rbx
    40003651:	48 89 fb             	mov    %rdi,%rbx
    40003654:	e8 a7 f9 ff ff       	callq  40003000 <malloc>
    40003659:	48 85 c0             	test   %rax,%rax
    4000365c:	74 31                	je     4000368f <__malloc0+0x3f>
    4000365e:	f6 40 f8 01          	testb  $0x1,-0x8(%rax)
    40003662:	74 2b                	je     4000368f <__malloc0+0x3f>
    40003664:	48 8d 7b 07          	lea    0x7(%rbx),%rdi
    40003668:	48 c1 ef 03          	shr    $0x3,%rdi
    4000366c:	48 85 ff             	test   %rdi,%rdi
    4000366f:	74 1e                	je     4000368f <__malloc0+0x3f>
    40003671:	48 89 c2             	mov    %rax,%rdx
    40003674:	0f 1f 40 00          	nopl   0x0(%rax)
    40003678:	48 83 3a 00          	cmpq   $0x0,(%rdx)
    4000367c:	74 07                	je     40003685 <__malloc0+0x35>
    4000367e:	48 c7 02 00 00 00 00 	movq   $0x0,(%rdx)
    40003685:	48 83 c2 08          	add    $0x8,%rdx
    40003689:	48 83 ef 01          	sub    $0x1,%rdi
    4000368d:	75 e9                	jne    40003678 <__malloc0+0x28>
    4000368f:	5b                   	pop    %rbx
    40003690:	c3                   	retq   
    40003691:	66 2e 0f 1f 84 00 00 	nopw   %cs:0x0(%rax,%rax,1)
    40003698:	00 00 00 
    4000369b:	0f 1f 44 00 00       	nopl   0x0(%rax,%rax,1)

00000000400036a0 <realloc>:
    400036a0:	41 57                	push   %r15
    400036a2:	41 56                	push   %r14
    400036a4:	41 55                	push   %r13
    400036a6:	41 54                	push   %r12
    400036a8:	55                   	push   %rbp
    400036a9:	53                   	push   %rbx
    400036aa:	48 89 fb             	mov    %rdi,%rbx
    400036ad:	48 83 ec 18          	sub    $0x18,%rsp
    400036b1:	48 85 ff             	test   %rdi,%rdi
    400036b4:	0f 84 f6 01 00 00    	je     400038b0 <realloc+0x210>
    400036ba:	48 8d 56 ff          	lea    -0x1(%rsi),%rdx
    400036be:	48 b8 df ef ff ff ff 	movabs $0x7fffffffffffefdf,%rax
    400036c5:	ff ff 7f 
    400036c8:	48 39 c2             	cmp    %rax,%rdx
    400036cb:	0f 87 9f 00 00 00    	ja     40003770 <realloc+0xd0>
    400036d1:	48 8d 6e 2f          	lea    0x2f(%rsi),%rbp
    400036d5:	48 83 e5 e0          	and    $0xffffffffffffffe0,%rbp
    400036d9:	48 8b 43 f8          	mov    -0x8(%rbx),%rax
    400036dd:	4c 8d 73 f0          	lea    -0x10(%rbx),%r14
    400036e1:	49 89 c4             	mov    %rax,%r12
    400036e4:	49 83 e4 fe          	and    $0xfffffffffffffffe,%r12
    400036e8:	a8 01                	test   $0x1,%al
    400036ea:	0f 85 98 00 00 00    	jne    40003788 <realloc+0xe8>
    400036f0:	4c 8b 6b f0          	mov    -0x10(%rbx),%r13
    400036f4:	4d 01 ec             	add    %r13,%r12
    400036f7:	41 f6 c5 01          	test   $0x1,%r13b
    400036fb:	4e 8d 7c 2d 00       	lea    0x0(%rbp,%r13,1),%r15
    40003700:	74 01                	je     40003703 <realloc+0x63>
    40003702:	f4                   	hlt    
    40003703:	49 81 ff ff 0f 00 00 	cmp    $0xfff,%r15
    4000370a:	0f 86 f0 00 00 00    	jbe    40003800 <realloc+0x160>
    40003710:	49 8d af ff 0f 00 00 	lea    0xfff(%r15),%rbp
    40003717:	48 81 e5 00 f0 ff ff 	and    $0xfffffffffffff000,%rbp
    4000371e:	49 39 ec             	cmp    %rbp,%r12
    40003721:	0f 84 91 00 00 00    	je     400037b8 <realloc+0x118>
    40003727:	4c 89 f7             	mov    %r14,%rdi
    4000372a:	31 c0                	xor    %eax,%eax
    4000372c:	b9 01 00 00 00       	mov    $0x1,%ecx
    40003731:	4c 29 ef             	sub    %r13,%rdi
    40003734:	48 89 ea             	mov    %rbp,%rdx
    40003737:	4c 89 e6             	mov    %r12,%rsi
    4000373a:	e8 9b 02 00 00       	callq  400039da <__mremap>
    4000373f:	48 83 f8 ff          	cmp    $0xffffffffffffffff,%rax
    40003743:	0f 84 9f 01 00 00    	je     400038e8 <realloc+0x248>
    40003749:	4c 01 e8             	add    %r13,%rax
    4000374c:	4c 29 ed             	sub    %r13,%rbp
    4000374f:	48 89 68 08          	mov    %rbp,0x8(%rax)
    40003753:	48 83 c4 18          	add    $0x18,%rsp
    40003757:	48 83 c0 10          	add    $0x10,%rax
    4000375b:	5b                   	pop    %rbx
    4000375c:	5d                   	pop    %rbp
    4000375d:	41 5c                	pop    %r12
    4000375f:	41 5d                	pop    %r13
    40003761:	41 5e                	pop    %r14
    40003763:	41 5f                	pop    %r15
    40003765:	c3                   	retq   
    40003766:	66 2e 0f 1f 84 00 00 	nopw   %cs:0x0(%rax,%rax,1)
    4000376d:	00 00 00 
    40003770:	48 85 f6             	test   %rsi,%rsi
    40003773:	0f 85 84 01 00 00    	jne    400038fd <realloc+0x25d>
    40003779:	bd 20 00 00 00       	mov    $0x20,%ebp
    4000377e:	e9 56 ff ff ff       	jmpq   400036d9 <realloc+0x39>
    40003783:	0f 1f 44 00 00       	nopl   0x0(%rax,%rax,1)
    40003788:	4f 8d 2c 26          	lea    (%r14,%r12,1),%r13
    4000378c:	49 3b 45 00          	cmp    0x0(%r13),%rax
    40003790:	74 01                	je     40003793 <realloc+0xf3>
    40003792:	f4                   	hlt    
    40003793:	49 39 ec             	cmp    %rbp,%r12
    40003796:	0f 82 a4 00 00 00    	jb     40003840 <realloc+0x1a0>
    4000379c:	4c 89 e0             	mov    %r12,%rax
    4000379f:	48 83 c8 01          	or     $0x1,%rax
    400037a3:	48 89 43 f8          	mov    %rax,-0x8(%rbx)
    400037a7:	49 89 45 00          	mov    %rax,0x0(%r13)
    400037ab:	48 83 e0 fe          	and    $0xfffffffffffffffe,%rax
    400037af:	48 8d 50 f0          	lea    -0x10(%rax),%rdx
    400037b3:	48 39 ea             	cmp    %rbp,%rdx
    400037b6:	77 18                	ja     400037d0 <realloc+0x130>
    400037b8:	48 89 d8             	mov    %rbx,%rax
    400037bb:	48 83 c4 18          	add    $0x18,%rsp
    400037bf:	5b                   	pop    %rbx
    400037c0:	5d                   	pop    %rbp
    400037c1:	41 5c                	pop    %r12
    400037c3:	41 5d                	pop    %r13
    400037c5:	41 5e                	pop    %r14
    400037c7:	41 5f                	pop    %r15
    400037c9:	c3                   	retq   
    400037ca:	66 0f 1f 44 00 00    	nopw   0x0(%rax,%rax,1)
    400037d0:	48 89 c2             	mov    %rax,%rdx
    400037d3:	49 01 ee             	add    %rbp,%r14
    400037d6:	48 89 e9             	mov    %rbp,%rcx
    400037d9:	48 29 ea             	sub    %rbp,%rdx
    400037dc:	48 83 c9 01          	or     $0x1,%rcx
    400037e0:	49 8d 7e 10          	lea    0x10(%r14),%rdi
    400037e4:	48 83 ca 01          	or     $0x1,%rdx
    400037e8:	49 89 0e             	mov    %rcx,(%r14)
    400037eb:	49 89 56 08          	mov    %rdx,0x8(%r14)
    400037ef:	48 89 54 03 f0       	mov    %rdx,-0x10(%rbx,%rax,1)
    400037f4:	48 89 4b f8          	mov    %rcx,-0x8(%rbx)
    400037f8:	e8 03 f3 ff ff       	callq  40002b00 <free>
    400037fd:	eb b9                	jmp    400037b8 <realloc+0x118>
    400037ff:	90                   	nop
    40003800:	48 89 ef             	mov    %rbp,%rdi
    40003803:	e8 f8 f7 ff ff       	callq  40003000 <malloc>
    40003808:	48 85 c0             	test   %rax,%rax
    4000380b:	0f 84 ff fe ff ff    	je     40003710 <realloc+0x70>
    40003811:	48 8d 55 f0          	lea    -0x10(%rbp),%rdx
    40003815:	48 89 de             	mov    %rbx,%rsi
    40003818:	48 89 c7             	mov    %rax,%rdi
    4000381b:	48 89 44 24 08       	mov    %rax,0x8(%rsp)
    40003820:	e8 48 27 00 00       	callq  40005f6d <memcpy>
    40003825:	48 89 df             	mov    %rbx,%rdi
    40003828:	e8 d3 f2 ff ff       	callq  40002b00 <free>
    4000382d:	48 8b 4c 24 08       	mov    0x8(%rsp),%rcx
    40003832:	48 89 c8             	mov    %rcx,%rax
    40003835:	eb 84                	jmp    400037bb <realloc+0x11b>
    40003837:	66 0f 1f 84 00 00 00 	nopw   0x0(%rax,%rax,1)
    4000383e:	00 00 
    40003840:	4c 89 ef             	mov    %r13,%rdi
    40003843:	e8 98 ed ff ff       	callq  400025e0 <alloc_fwd>
    40003848:	85 c0                	test   %eax,%eax
    4000384a:	0f 84 80 00 00 00    	je     400038d0 <realloc+0x230>
    40003850:	49 8b 55 08          	mov    0x8(%r13),%rdx
    40003854:	48 83 e2 fe          	and    $0xfffffffffffffffe,%rdx
    40003858:	4a 8d 0c 22          	lea    (%rdx,%r12,1),%rcx
    4000385c:	48 89 c8             	mov    %rcx,%rax
    4000385f:	48 83 c8 01          	or     $0x1,%rax
    40003863:	48 39 e9             	cmp    %rbp,%rcx
    40003866:	48 89 43 f8          	mov    %rax,-0x8(%rbx)
    4000386a:	49 89 44 15 00       	mov    %rax,0x0(%r13,%rdx,1)
    4000386f:	0f 83 36 ff ff ff    	jae    400037ab <realloc+0x10b>
    40003875:	48 8d 7d f0          	lea    -0x10(%rbp),%rdi
    40003879:	e8 82 f7 ff ff       	callq  40003000 <malloc>
    4000387e:	48 85 c0             	test   %rax,%rax
    40003881:	48 89 c5             	mov    %rax,%rbp
    40003884:	74 70                	je     400038f6 <realloc+0x256>
    40003886:	49 8d 54 24 f0       	lea    -0x10(%r12),%rdx
    4000388b:	48 89 de             	mov    %rbx,%rsi
    4000388e:	48 89 c7             	mov    %rax,%rdi
    40003891:	e8 d7 26 00 00       	callq  40005f6d <memcpy>
    40003896:	48 89 df             	mov    %rbx,%rdi
    40003899:	e8 62 f2 ff ff       	callq  40002b00 <free>
    4000389e:	48 83 c4 18          	add    $0x18,%rsp
    400038a2:	48 89 e8             	mov    %rbp,%rax
    400038a5:	5b                   	pop    %rbx
    400038a6:	5d                   	pop    %rbp
    400038a7:	41 5c                	pop    %r12
    400038a9:	41 5d                	pop    %r13
    400038ab:	41 5e                	pop    %r14
    400038ad:	41 5f                	pop    %r15
    400038af:	c3                   	retq   
    400038b0:	48 83 c4 18          	add    $0x18,%rsp
    400038b4:	48 89 f7             	mov    %rsi,%rdi
    400038b7:	5b                   	pop    %rbx
    400038b8:	5d                   	pop    %rbp
    400038b9:	41 5c                	pop    %r12
    400038bb:	41 5d                	pop    %r13
    400038bd:	41 5e                	pop    %r14
    400038bf:	41 5f                	pop    %r15
    400038c1:	e9 3a f7 ff ff       	jmpq   40003000 <malloc>
    400038c6:	66 2e 0f 1f 84 00 00 	nopw   %cs:0x0(%rax,%rax,1)
    400038cd:	00 00 00 
    400038d0:	4c 89 e0             	mov    %r12,%rax
    400038d3:	48 83 c8 01          	or     $0x1,%rax
    400038d7:	48 89 43 f8          	mov    %rax,-0x8(%rbx)
    400038db:	49 89 45 00          	mov    %rax,0x0(%r13)
    400038df:	eb 94                	jmp    40003875 <realloc+0x1d5>
    400038e1:	0f 1f 80 00 00 00 00 	nopl   0x0(%rax)
    400038e8:	31 c0                	xor    %eax,%eax
    400038ea:	49 39 ec             	cmp    %rbp,%r12
    400038ed:	48 0f 47 c3          	cmova  %rbx,%rax
    400038f1:	e9 c5 fe ff ff       	jmpq   400037bb <realloc+0x11b>
    400038f6:	31 c0                	xor    %eax,%eax
    400038f8:	e9 be fe ff ff       	jmpq   400037bb <realloc+0x11b>
    400038fd:	e8 c1 ea ff ff       	callq  400023c3 <__tls_errno_location>
    40003902:	c7 00 0c 00 00 00    	movl   $0xc,(%rax)
    40003908:	31 c0                	xor    %eax,%eax
    4000390a:	e9 ac fe ff ff       	jmpq   400037bb <realloc+0x11b>

000000004000390f <__madvise>:
    4000390f:	50                   	push   %rax
    40003910:	48 63 ca             	movslq %edx,%rcx
    40003913:	48 89 f2             	mov    %rsi,%rdx
    40003916:	48 89 fe             	mov    %rdi,%rsi
    40003919:	bf 1c 00 00 00       	mov    $0x1c,%edi
    4000391e:	e8 d3 67 00 00       	callq  4000a0f6 <ocall_syscall3>
    40003923:	48 89 c7             	mov    %rax,%rdi
    40003926:	e8 c5 28 00 00       	callq  400061f0 <__syscall_ret>
    4000392b:	5a                   	pop    %rdx
    4000392c:	c3                   	retq   

000000004000392d <__vm_wait>:
    4000392d:	c3                   	retq   

000000004000392e <__mmap>:
    4000392e:	55                   	push   %rbp
    4000392f:	48 89 e5             	mov    %rsp,%rbp
    40003932:	41 57                	push   %r15
    40003934:	41 56                	push   %r14
    40003936:	41 55                	push   %r13
    40003938:	4d 89 cd             	mov    %r9,%r13
    4000393b:	41 54                	push   %r12
    4000393d:	53                   	push   %rbx
    4000393e:	48 83 ec 18          	sub    $0x18,%rsp
    40003942:	41 f7 c1 ff 0f 00 00 	test   $0xfff,%r9d
    40003949:	74 0d                	je     40003958 <__mmap+0x2a>
    4000394b:	e8 73 ea ff ff       	callq  400023c3 <__tls_errno_location>
    40003950:	c7 00 16 00 00 00    	movl   $0x16,(%rax)
    40003956:	eb 6e                	jmp    400039c6 <__mmap+0x98>
    40003958:	48 b8 fe ff ff ff ff 	movabs $0x7ffffffffffffffe,%rax
    4000395f:	ff ff 7f 
    40003962:	48 89 f3             	mov    %rsi,%rbx
    40003965:	48 39 c6             	cmp    %rax,%rsi
    40003968:	76 0d                	jbe    40003977 <__mmap+0x49>
    4000396a:	e8 54 ea ff ff       	callq  400023c3 <__tls_errno_location>
    4000396f:	c7 00 0c 00 00 00    	movl   $0xc,(%rax)
    40003975:	eb 4f                	jmp    400039c6 <__mmap+0x98>
    40003977:	f6 c1 10             	test   $0x10,%cl
    4000397a:	49 89 fe             	mov    %rdi,%r14
    4000397d:	41 89 d7             	mov    %edx,%r15d
    40003980:	41 89 cc             	mov    %ecx,%r12d
    40003983:	74 0d                	je     40003992 <__mmap+0x64>
    40003985:	44 89 45 cc          	mov    %r8d,-0x34(%rbp)
    40003989:	e8 9f ff ff ff       	callq  4000392d <__vm_wait>
    4000398e:	44 8b 45 cc          	mov    -0x34(%rbp),%r8d
    40003992:	50                   	push   %rax
    40003993:	49 63 cf             	movslq %r15d,%rcx
    40003996:	48 89 da             	mov    %rbx,%rdx
    40003999:	4d 63 c8             	movslq %r8d,%r9
    4000399c:	4c 89 f6             	mov    %r14,%rsi
    4000399f:	4d 63 c4             	movslq %r12d,%r8
    400039a2:	41 55                	push   %r13
    400039a4:	bf 09 00 00 00       	mov    $0x9,%edi
    400039a9:	e8 b8 70 00 00       	callq  4000aa66 <ocall_syscall6>
    400039ae:	5a                   	pop    %rdx
    400039af:	59                   	pop    %rcx
    400039b0:	48 8d 65 d8          	lea    -0x28(%rbp),%rsp
    400039b4:	48 89 c7             	mov    %rax,%rdi
    400039b7:	5b                   	pop    %rbx
    400039b8:	41 5c                	pop    %r12
    400039ba:	41 5d                	pop    %r13
    400039bc:	41 5e                	pop    %r14
    400039be:	41 5f                	pop    %r15
    400039c0:	5d                   	pop    %rbp
    400039c1:	e9 2a 28 00 00       	jmpq   400061f0 <__syscall_ret>
    400039c6:	48 8d 65 d8          	lea    -0x28(%rbp),%rsp
    400039ca:	48 83 c8 ff          	or     $0xffffffffffffffff,%rax
    400039ce:	5b                   	pop    %rbx
    400039cf:	41 5c                	pop    %r12
    400039d1:	41 5d                	pop    %r13
    400039d3:	41 5e                	pop    %r14
    400039d5:	41 5f                	pop    %r15
    400039d7:	5d                   	pop    %rbp
    400039d8:	c3                   	retq   

00000000400039d9 <dummy>:
    400039d9:	c3                   	retq   

00000000400039da <__mremap>:
    400039da:	41 55                	push   %r13
    400039dc:	48 b8 fe ff ff ff ff 	movabs $0x7ffffffffffffffe,%rax
    400039e3:	ff ff 7f 
    400039e6:	41 54                	push   %r12
    400039e8:	55                   	push   %rbp
    400039e9:	53                   	push   %rbx
    400039ea:	48 89 d3             	mov    %rdx,%rbx
    400039ed:	48 83 ec 58          	sub    $0x58,%rsp
    400039f1:	48 39 c2             	cmp    %rax,%rdx
    400039f4:	4c 89 44 24 40       	mov    %r8,0x40(%rsp)
    400039f9:	76 11                	jbe    40003a0c <__mremap+0x32>
    400039fb:	e8 c3 e9 ff ff       	callq  400023c3 <__tls_errno_location>
    40003a00:	c7 00 0c 00 00 00    	movl   $0xc,(%rax)
    40003a06:	48 83 c8 ff          	or     $0xffffffffffffffff,%rax
    40003a0a:	eb 57                	jmp    40003a63 <__mremap+0x89>
    40003a0c:	45 31 c9             	xor    %r9d,%r9d
    40003a0f:	f6 c1 02             	test   $0x2,%cl
    40003a12:	49 89 fc             	mov    %rdi,%r12
    40003a15:	49 89 f5             	mov    %rsi,%r13
    40003a18:	89 cd                	mov    %ecx,%ebp
    40003a1a:	74 29                	je     40003a45 <__mremap+0x6b>
    40003a1c:	e8 0c ff ff ff       	callq  4000392d <__vm_wait>
    40003a21:	48 8d 84 24 80 00 00 	lea    0x80(%rsp),%rax
    40003a28:	00 
    40003a29:	4c 8b 4c 24 40       	mov    0x40(%rsp),%r9
    40003a2e:	c7 44 24 08 20 00 00 	movl   $0x20,0x8(%rsp)
    40003a35:	00 
    40003a36:	48 89 44 24 10       	mov    %rax,0x10(%rsp)
    40003a3b:	48 8d 44 24 20       	lea    0x20(%rsp),%rax
    40003a40:	48 89 44 24 18       	mov    %rax,0x18(%rsp)
    40003a45:	bf 19 00 00 00       	mov    $0x19,%edi
    40003a4a:	4c 63 c5             	movslq %ebp,%r8
    40003a4d:	48 89 d9             	mov    %rbx,%rcx
    40003a50:	4c 89 ea             	mov    %r13,%rdx
    40003a53:	4c 89 e6             	mov    %r12,%rsi
    40003a56:	e8 5f 6f 00 00       	callq  4000a9ba <ocall_syscall5>
    40003a5b:	48 89 c7             	mov    %rax,%rdi
    40003a5e:	e8 8d 27 00 00       	callq  400061f0 <__syscall_ret>
    40003a63:	48 83 c4 58          	add    $0x58,%rsp
    40003a67:	5b                   	pop    %rbx
    40003a68:	5d                   	pop    %rbp
    40003a69:	41 5c                	pop    %r12
    40003a6b:	41 5d                	pop    %r13
    40003a6d:	c3                   	retq   

0000000040003a6e <dummy>:
    40003a6e:	c3                   	retq   

0000000040003a6f <__munmap>:
    40003a6f:	55                   	push   %rbp
    40003a70:	48 89 f5             	mov    %rsi,%rbp
    40003a73:	53                   	push   %rbx
    40003a74:	48 89 fb             	mov    %rdi,%rbx
    40003a77:	50                   	push   %rax
    40003a78:	e8 b0 fe ff ff       	callq  4000392d <__vm_wait>
    40003a7d:	48 89 ea             	mov    %rbp,%rdx
    40003a80:	48 89 de             	mov    %rbx,%rsi
    40003a83:	bf 0b 00 00 00       	mov    $0xb,%edi
    40003a88:	e8 3d 63 00 00       	callq  40009dca <ocall_syscall2>
    40003a8d:	48 89 c7             	mov    %rax,%rdi
    40003a90:	e8 5b 27 00 00       	callq  400061f0 <__syscall_ret>
    40003a95:	5a                   	pop    %rdx
    40003a96:	5b                   	pop    %rbx
    40003a97:	5d                   	pop    %rbp
    40003a98:	c3                   	retq   

0000000040003a99 <__unlist_locked_file>:
    40003a99:	c3                   	retq   

0000000040003a9a <fclose>:
    40003a9a:	41 56                	push   %r14
    40003a9c:	41 55                	push   %r13
    40003a9e:	41 54                	push   %r12
    40003aa0:	45 31 e4             	xor    %r12d,%r12d
    40003aa3:	55                   	push   %rbp
    40003aa4:	53                   	push   %rbx
    40003aa5:	8b 87 8c 00 00 00    	mov    0x8c(%rdi),%eax
    40003aab:	48 89 fb             	mov    %rdi,%rbx
    40003aae:	85 c0                	test   %eax,%eax
    40003ab0:	78 08                	js     40003aba <fclose+0x20>
    40003ab2:	e8 33 2b 00 00       	callq  400065ea <__lockfile>
    40003ab7:	41 89 c4             	mov    %eax,%r12d
    40003aba:	48 89 df             	mov    %rbx,%rdi
    40003abd:	e8 d7 ff ff ff       	callq  40003a99 <__unlist_locked_file>
    40003ac2:	44 8b 2b             	mov    (%rbx),%r13d
    40003ac5:	41 83 e5 01          	and    $0x1,%r13d
    40003ac9:	75 30                	jne    40003afb <fclose+0x61>
    40003acb:	e8 12 05 00 00       	callq  40003fe2 <__ofl_lock>
    40003ad0:	48 8b 4b 68          	mov    0x68(%rbx),%rcx
    40003ad4:	48 85 c9             	test   %rcx,%rcx
    40003ad7:	74 08                	je     40003ae1 <fclose+0x47>
    40003ad9:	48 8b 53 70          	mov    0x70(%rbx),%rdx
    40003add:	48 89 51 70          	mov    %rdx,0x70(%rcx)
    40003ae1:	48 8b 53 70          	mov    0x70(%rbx),%rdx
    40003ae5:	48 85 d2             	test   %rdx,%rdx
    40003ae8:	74 04                	je     40003aee <fclose+0x54>
    40003aea:	48 89 4a 68          	mov    %rcx,0x68(%rdx)
    40003aee:	48 39 18             	cmp    %rbx,(%rax)
    40003af1:	75 03                	jne    40003af6 <fclose+0x5c>
    40003af3:	48 89 10             	mov    %rdx,(%rax)
    40003af6:	e8 f9 04 00 00       	callq  40003ff4 <__ofl_unlock>
    40003afb:	48 89 df             	mov    %rbx,%rdi
    40003afe:	e8 46 00 00 00       	callq  40003b49 <fflush>
    40003b03:	48 89 df             	mov    %rbx,%rdi
    40003b06:	41 89 c6             	mov    %eax,%r14d
    40003b09:	ff 53 18             	callq  *0x18(%rbx)
    40003b0c:	48 8b bb a8 00 00 00 	mov    0xa8(%rbx),%rdi
    40003b13:	89 c5                	mov    %eax,%ebp
    40003b15:	44 09 f5             	or     %r14d,%ebp
    40003b18:	48 85 ff             	test   %rdi,%rdi
    40003b1b:	74 05                	je     40003b22 <fclose+0x88>
    40003b1d:	e8 de ef ff ff       	callq  40002b00 <free>
    40003b22:	45 85 ed             	test   %r13d,%r13d
    40003b25:	75 0a                	jne    40003b31 <fclose+0x97>
    40003b27:	48 89 df             	mov    %rbx,%rdi
    40003b2a:	e8 d1 ef ff ff       	callq  40002b00 <free>
    40003b2f:	eb 0d                	jmp    40003b3e <fclose+0xa4>
    40003b31:	45 85 e4             	test   %r12d,%r12d
    40003b34:	74 08                	je     40003b3e <fclose+0xa4>
    40003b36:	48 89 df             	mov    %rbx,%rdi
    40003b39:	e8 02 2b 00 00       	callq  40006640 <__unlockfile>
    40003b3e:	5b                   	pop    %rbx
    40003b3f:	89 e8                	mov    %ebp,%eax
    40003b41:	5d                   	pop    %rbp
    40003b42:	41 5c                	pop    %r12
    40003b44:	41 5d                	pop    %r13
    40003b46:	41 5e                	pop    %r14
    40003b48:	c3                   	retq   

0000000040003b49 <fflush>:
    40003b49:	41 54                	push   %r12
    40003b4b:	48 85 ff             	test   %rdi,%rdi
    40003b4e:	55                   	push   %rbp
    40003b4f:	53                   	push   %rbx
    40003b50:	48 89 fb             	mov    %rdi,%rbx
    40003b53:	75 4f                	jne    40003ba4 <fflush+0x5b>
    40003b55:	48 8b 05 bc e2 3f 00 	mov    0x3fe2bc(%rip),%rax        # 40401e18 <__stdout_used>
    40003b5c:	48 85 c0             	test   %rax,%rax
    40003b5f:	74 10                	je     40003b71 <fflush+0x28>
    40003b61:	48 8b 3d b0 e2 3f 00 	mov    0x3fe2b0(%rip),%rdi        # 40401e18 <__stdout_used>
    40003b68:	e8 dc ff ff ff       	callq  40003b49 <fflush>
    40003b6d:	89 c5                	mov    %eax,%ebp
    40003b6f:	eb 02                	jmp    40003b73 <fflush+0x2a>
    40003b71:	31 ed                	xor    %ebp,%ebp
    40003b73:	e8 6a 04 00 00       	callq  40003fe2 <__ofl_lock>
    40003b78:	48 8b 18             	mov    (%rax),%rbx
    40003b7b:	48 85 db             	test   %rbx,%rbx
    40003b7e:	74 1a                	je     40003b9a <fflush+0x51>
    40003b80:	48 8b 43 38          	mov    0x38(%rbx),%rax
    40003b84:	48 39 43 28          	cmp    %rax,0x28(%rbx)
    40003b88:	76 0a                	jbe    40003b94 <fflush+0x4b>
    40003b8a:	48 89 df             	mov    %rbx,%rdi
    40003b8d:	e8 b7 ff ff ff       	callq  40003b49 <fflush>
    40003b92:	09 c5                	or     %eax,%ebp
    40003b94:	48 8b 5b 70          	mov    0x70(%rbx),%rbx
    40003b98:	eb e1                	jmp    40003b7b <fflush+0x32>
    40003b9a:	e8 55 04 00 00       	callq  40003ff4 <__ofl_unlock>
    40003b9f:	e9 85 00 00 00       	jmpq   40003c29 <fflush+0xe0>
    40003ba4:	8b 87 8c 00 00 00    	mov    0x8c(%rdi),%eax
    40003baa:	45 31 e4             	xor    %r12d,%r12d
    40003bad:	85 c0                	test   %eax,%eax
    40003baf:	78 08                	js     40003bb9 <fflush+0x70>
    40003bb1:	e8 34 2a 00 00       	callq  400065ea <__lockfile>
    40003bb6:	41 89 c4             	mov    %eax,%r12d
    40003bb9:	48 8b 43 38          	mov    0x38(%rbx),%rax
    40003bbd:	48 39 43 28          	cmp    %rax,0x28(%rbx)
    40003bc1:	76 14                	jbe    40003bd7 <fflush+0x8e>
    40003bc3:	31 d2                	xor    %edx,%edx
    40003bc5:	31 f6                	xor    %esi,%esi
    40003bc7:	48 89 df             	mov    %rbx,%rdi
    40003bca:	83 cd ff             	or     $0xffffffff,%ebp
    40003bcd:	ff 53 48             	callq  *0x48(%rbx)
    40003bd0:	48 83 7b 28 00       	cmpq   $0x0,0x28(%rbx)
    40003bd5:	74 45                	je     40003c1c <fflush+0xd3>
    40003bd7:	48 8b 73 08          	mov    0x8(%rbx),%rsi
    40003bdb:	48 8b 43 10          	mov    0x10(%rbx),%rax
    40003bdf:	48 39 c6             	cmp    %rax,%rsi
    40003be2:	73 0e                	jae    40003bf2 <fflush+0xa9>
    40003be4:	48 29 c6             	sub    %rax,%rsi
    40003be7:	ba 01 00 00 00       	mov    $0x1,%edx
    40003bec:	48 89 df             	mov    %rbx,%rdi
    40003bef:	ff 53 50             	callq  *0x50(%rbx)
    40003bf2:	48 c7 43 20 00 00 00 	movq   $0x0,0x20(%rbx)
    40003bf9:	00 
    40003bfa:	48 c7 43 38 00 00 00 	movq   $0x0,0x38(%rbx)
    40003c01:	00 
    40003c02:	31 ed                	xor    %ebp,%ebp
    40003c04:	48 c7 43 28 00 00 00 	movq   $0x0,0x28(%rbx)
    40003c0b:	00 
    40003c0c:	48 c7 43 10 00 00 00 	movq   $0x0,0x10(%rbx)
    40003c13:	00 
    40003c14:	48 c7 43 08 00 00 00 	movq   $0x0,0x8(%rbx)
    40003c1b:	00 
    40003c1c:	45 85 e4             	test   %r12d,%r12d
    40003c1f:	74 08                	je     40003c29 <fflush+0xe0>
    40003c21:	48 89 df             	mov    %rbx,%rdi
    40003c24:	e8 17 2a 00 00       	callq  40006640 <__unlockfile>
    40003c29:	5b                   	pop    %rbx
    40003c2a:	89 e8                	mov    %ebp,%eax
    40003c2c:	5d                   	pop    %rbp
    40003c2d:	41 5c                	pop    %r12
    40003c2f:	c3                   	retq   

0000000040003c30 <fgets>:
    40003c30:	41 57                	push   %r15
    40003c32:	45 31 ff             	xor    %r15d,%r15d
    40003c35:	41 56                	push   %r14
    40003c37:	41 55                	push   %r13
    40003c39:	41 54                	push   %r12
    40003c3b:	49 89 fc             	mov    %rdi,%r12
    40003c3e:	55                   	push   %rbp
    40003c3f:	89 f5                	mov    %esi,%ebp
    40003c41:	53                   	push   %rbx
    40003c42:	48 89 d3             	mov    %rdx,%rbx
    40003c45:	48 83 ec 18          	sub    $0x18,%rsp
    40003c49:	8b 82 8c 00 00 00    	mov    0x8c(%rdx),%eax
    40003c4f:	85 c0                	test   %eax,%eax
    40003c51:	78 0b                	js     40003c5e <fgets+0x2e>
    40003c53:	48 89 d7             	mov    %rdx,%rdi
    40003c56:	e8 8f 29 00 00       	callq  400065ea <__lockfile>
    40003c5b:	41 89 c7             	mov    %eax,%r15d
    40003c5e:	44 8d 6d ff          	lea    -0x1(%rbp),%r13d
    40003c62:	ff cd                	dec    %ebp
    40003c64:	7e 08                	jle    40003c6e <fgets+0x3e>
    40003c66:	4c 89 e5             	mov    %r12,%rbp
    40003c69:	e9 b4 00 00 00       	jmpq   40003d22 <fgets+0xf2>
    40003c6e:	8a 93 8a 00 00 00    	mov    0x8a(%rbx),%dl
    40003c74:	8d 42 ff             	lea    -0x1(%rdx),%eax
    40003c77:	09 d0                	or     %edx,%eax
    40003c79:	45 85 ff             	test   %r15d,%r15d
    40003c7c:	88 83 8a 00 00 00    	mov    %al,0x8a(%rbx)
    40003c82:	74 08                	je     40003c8c <fgets+0x5c>
    40003c84:	48 89 df             	mov    %rbx,%rdi
    40003c87:	e8 b4 29 00 00       	callq  40006640 <__unlockfile>
    40003c8c:	45 85 ed             	test   %r13d,%r13d
    40003c8f:	0f 85 d4 00 00 00    	jne    40003d69 <fgets+0x139>
    40003c95:	41 c6 04 24 00       	movb   $0x0,(%r12)
    40003c9a:	e9 cd 00 00 00       	jmpq   40003d6c <fgets+0x13c>
    40003c9f:	48 8b 7b 08          	mov    0x8(%rbx),%rdi
    40003ca3:	48 8b 53 10          	mov    0x10(%rbx),%rdx
    40003ca7:	be 0a 00 00 00       	mov    $0xa,%esi
    40003cac:	48 29 fa             	sub    %rdi,%rdx
    40003caf:	e8 fc 1f 00 00       	callq  40005cb0 <memchr>
    40003cb4:	48 85 c0             	test   %rax,%rax
    40003cb7:	48 89 c1             	mov    %rax,%rcx
    40003cba:	48 8b 73 08          	mov    0x8(%rbx),%rsi
    40003cbe:	74 6d                	je     40003d2d <fgets+0xfd>
    40003cc0:	49 89 c6             	mov    %rax,%r14
    40003cc3:	49 29 f6             	sub    %rsi,%r14
    40003cc6:	49 ff c6             	inc    %r14
    40003cc9:	49 63 c5             	movslq %r13d,%rax
    40003ccc:	48 89 ef             	mov    %rbp,%rdi
    40003ccf:	48 89 4c 24 08       	mov    %rcx,0x8(%rsp)
    40003cd4:	49 39 c6             	cmp    %rax,%r14
    40003cd7:	4c 0f 47 f0          	cmova  %rax,%r14
    40003cdb:	4c 89 f2             	mov    %r14,%rdx
    40003cde:	4c 01 f5             	add    %r14,%rbp
    40003ce1:	e8 87 22 00 00       	callq  40005f6d <memcpy>
    40003ce6:	4c 89 f2             	mov    %r14,%rdx
    40003ce9:	48 03 53 08          	add    0x8(%rbx),%rdx
    40003ced:	45 29 f5             	sub    %r14d,%r13d
    40003cf0:	48 89 53 08          	mov    %rdx,0x8(%rbx)
    40003cf4:	74 56                	je     40003d4c <fgets+0x11c>
    40003cf6:	48 8b 4c 24 08       	mov    0x8(%rsp),%rcx
    40003cfb:	48 85 c9             	test   %rcx,%rcx
    40003cfe:	75 4c                	jne    40003d4c <fgets+0x11c>
    40003d00:	48 3b 53 10          	cmp    0x10(%rbx),%rdx
    40003d04:	73 30                	jae    40003d36 <fgets+0x106>
    40003d06:	48 8d 42 01          	lea    0x1(%rdx),%rax
    40003d0a:	48 89 43 08          	mov    %rax,0x8(%rbx)
    40003d0e:	0f b6 02             	movzbl (%rdx),%eax
    40003d11:	48 8d 55 01          	lea    0x1(%rbp),%rdx
    40003d15:	41 ff cd             	dec    %r13d
    40003d18:	3c 0a                	cmp    $0xa,%al
    40003d1a:	88 45 00             	mov    %al,0x0(%rbp)
    40003d1d:	48 89 d5             	mov    %rdx,%rbp
    40003d20:	74 2a                	je     40003d4c <fgets+0x11c>
    40003d22:	45 85 ed             	test   %r13d,%r13d
    40003d25:	0f 85 74 ff ff ff    	jne    40003c9f <fgets+0x6f>
    40003d2b:	eb 1f                	jmp    40003d4c <fgets+0x11c>
    40003d2d:	4c 8b 73 10          	mov    0x10(%rbx),%r14
    40003d31:	49 29 f6             	sub    %rsi,%r14
    40003d34:	eb 93                	jmp    40003cc9 <fgets+0x99>
    40003d36:	48 89 df             	mov    %rbx,%rdi
    40003d39:	e8 57 2c 00 00       	callq  40006995 <__uflow>
    40003d3e:	85 c0                	test   %eax,%eax
    40003d40:	79 cf                	jns    40003d11 <fgets+0xe1>
    40003d42:	4c 39 e5             	cmp    %r12,%rbp
    40003d45:	74 10                	je     40003d57 <fgets+0x127>
    40003d47:	f6 03 10             	testb  $0x10,(%rbx)
    40003d4a:	74 0b                	je     40003d57 <fgets+0x127>
    40003d4c:	4d 85 e4             	test   %r12,%r12
    40003d4f:	74 09                	je     40003d5a <fgets+0x12a>
    40003d51:	c6 45 00 00          	movb   $0x0,0x0(%rbp)
    40003d55:	eb 03                	jmp    40003d5a <fgets+0x12a>
    40003d57:	45 31 e4             	xor    %r12d,%r12d
    40003d5a:	45 85 ff             	test   %r15d,%r15d
    40003d5d:	74 0d                	je     40003d6c <fgets+0x13c>
    40003d5f:	48 89 df             	mov    %rbx,%rdi
    40003d62:	e8 d9 28 00 00       	callq  40006640 <__unlockfile>
    40003d67:	eb 03                	jmp    40003d6c <fgets+0x13c>
    40003d69:	45 31 e4             	xor    %r12d,%r12d
    40003d6c:	48 83 c4 18          	add    $0x18,%rsp
    40003d70:	4c 89 e0             	mov    %r12,%rax
    40003d73:	5b                   	pop    %rbx
    40003d74:	5d                   	pop    %rbp
    40003d75:	41 5c                	pop    %r12
    40003d77:	41 5d                	pop    %r13
    40003d79:	41 5e                	pop    %r14
    40003d7b:	41 5f                	pop    %r15
    40003d7d:	c3                   	retq   

0000000040003d7e <fopen>:
    40003d7e:	41 54                	push   %r12
    40003d80:	55                   	push   %rbp
    40003d81:	48 89 f5             	mov    %rsi,%rbp
    40003d84:	53                   	push   %rbx
    40003d85:	0f be 36             	movsbl (%rsi),%esi
    40003d88:	48 89 fb             	mov    %rdi,%rbx
    40003d8b:	bf 9c 03 40 40       	mov    $0x4040039c,%edi
    40003d90:	e8 1b 20 00 00       	callq  40005db0 <strchr>
    40003d95:	48 85 c0             	test   %rax,%rax
    40003d98:	75 0d                	jne    40003da7 <fopen+0x29>
    40003d9a:	e8 24 e6 ff ff       	callq  400023c3 <__tls_errno_location>
    40003d9f:	c7 00 16 00 00 00    	movl   $0x16,(%rax)
    40003da5:	eb 70                	jmp    40003e17 <fopen+0x99>
    40003da7:	48 89 ef             	mov    %rbp,%rdi
    40003daa:	e8 bc 27 00 00       	callq  4000656b <__fmodeflags>
    40003daf:	48 89 de             	mov    %rbx,%rsi
    40003db2:	48 63 d0             	movslq %eax,%rdx
    40003db5:	b9 b6 01 00 00       	mov    $0x1b6,%ecx
    40003dba:	bf 02 00 00 00       	mov    $0x2,%edi
    40003dbf:	41 89 c4             	mov    %eax,%r12d
    40003dc2:	e8 2f 63 00 00       	callq  4000a0f6 <ocall_syscall3>
    40003dc7:	48 89 c7             	mov    %rax,%rdi
    40003dca:	e8 21 24 00 00       	callq  400061f0 <__syscall_ret>
    40003dcf:	85 c0                	test   %eax,%eax
    40003dd1:	48 89 c3             	mov    %rax,%rbx
    40003dd4:	78 41                	js     40003e17 <fopen+0x99>
    40003dd6:	41 81 e4 00 00 08 00 	and    $0x80000,%r12d
    40003ddd:	74 17                	je     40003df6 <fopen+0x78>
    40003ddf:	48 63 f0             	movslq %eax,%rsi
    40003de2:	b9 01 00 00 00       	mov    $0x1,%ecx
    40003de7:	ba 02 00 00 00       	mov    $0x2,%edx
    40003dec:	bf 48 00 00 00       	mov    $0x48,%edi
    40003df1:	e8 00 63 00 00       	callq  4000a0f6 <ocall_syscall3>
    40003df6:	48 89 ee             	mov    %rbp,%rsi
    40003df9:	89 df                	mov    %ebx,%edi
    40003dfb:	e8 fd 25 00 00       	callq  400063fd <__fdopen>
    40003e00:	48 85 c0             	test   %rax,%rax
    40003e03:	48 89 c5             	mov    %rax,%rbp
    40003e06:	75 11                	jne    40003e19 <fopen+0x9b>
    40003e08:	48 63 f3             	movslq %ebx,%rsi
    40003e0b:	bf 03 00 00 00       	mov    $0x3,%edi
    40003e10:	e8 65 5e 00 00       	callq  40009c7a <ocall_syscall1>
    40003e15:	eb 02                	jmp    40003e19 <fopen+0x9b>
    40003e17:	31 ed                	xor    %ebp,%ebp
    40003e19:	5b                   	pop    %rbx
    40003e1a:	48 89 e8             	mov    %rbp,%rax
    40003e1d:	5d                   	pop    %rbp
    40003e1e:	41 5c                	pop    %r12
    40003e20:	c3                   	retq   

0000000040003e21 <fprintf>:
    40003e21:	48 81 ec d8 00 00 00 	sub    $0xd8,%rsp
    40003e28:	84 c0                	test   %al,%al
    40003e2a:	48 89 54 24 30       	mov    %rdx,0x30(%rsp)
    40003e2f:	48 89 4c 24 38       	mov    %rcx,0x38(%rsp)
    40003e34:	4c 89 44 24 40       	mov    %r8,0x40(%rsp)
    40003e39:	4c 89 4c 24 48       	mov    %r9,0x48(%rsp)
    40003e3e:	74 37                	je     40003e77 <fprintf+0x56>
    40003e40:	0f 29 44 24 50       	movaps %xmm0,0x50(%rsp)
    40003e45:	0f 29 4c 24 60       	movaps %xmm1,0x60(%rsp)
    40003e4a:	0f 29 54 24 70       	movaps %xmm2,0x70(%rsp)
    40003e4f:	0f 29 9c 24 80 00 00 	movaps %xmm3,0x80(%rsp)
    40003e56:	00 
    40003e57:	0f 29 a4 24 90 00 00 	movaps %xmm4,0x90(%rsp)
    40003e5e:	00 
    40003e5f:	0f 29 ac 24 a0 00 00 	movaps %xmm5,0xa0(%rsp)
    40003e66:	00 
    40003e67:	0f 29 b4 24 b0 00 00 	movaps %xmm6,0xb0(%rsp)
    40003e6e:	00 
    40003e6f:	0f 29 bc 24 c0 00 00 	movaps %xmm7,0xc0(%rsp)
    40003e76:	00 
    40003e77:	48 8d 84 24 e0 00 00 	lea    0xe0(%rsp),%rax
    40003e7e:	00 
    40003e7f:	48 8d 54 24 08       	lea    0x8(%rsp),%rdx
    40003e84:	48 89 44 24 10       	mov    %rax,0x10(%rsp)
    40003e89:	48 8d 44 24 20       	lea    0x20(%rsp),%rax
    40003e8e:	c7 44 24 08 10 00 00 	movl   $0x10,0x8(%rsp)
    40003e95:	00 
    40003e96:	c7 44 24 0c 30 00 00 	movl   $0x30,0xc(%rsp)
    40003e9d:	00 
    40003e9e:	48 89 44 24 18       	mov    %rax,0x18(%rsp)
    40003ea3:	e8 64 1c 00 00       	callq  40005b0c <vfprintf>
    40003ea8:	48 81 c4 d8 00 00 00 	add    $0xd8,%rsp
    40003eaf:	c3                   	retq   

0000000040003eb0 <__fwritex>:
    40003eb0:	41 55                	push   %r13
    40003eb2:	49 89 fd             	mov    %rdi,%r13
    40003eb5:	41 54                	push   %r12
    40003eb7:	49 89 f4             	mov    %rsi,%r12
    40003eba:	55                   	push   %rbp
    40003ebb:	53                   	push   %rbx
    40003ebc:	48 89 d3             	mov    %rdx,%rbx
    40003ebf:	41 50                	push   %r8
    40003ec1:	48 83 7a 20 00       	cmpq   $0x0,0x20(%rdx)
    40003ec6:	74 23                	je     40003eeb <__fwritex+0x3b>
    40003ec8:	48 8b 43 20          	mov    0x20(%rbx),%rax
    40003ecc:	48 2b 43 28          	sub    0x28(%rbx),%rax
    40003ed0:	49 39 c4             	cmp    %rax,%r12
    40003ed3:	76 26                	jbe    40003efb <__fwritex+0x4b>
    40003ed5:	48 8b 43 48          	mov    0x48(%rbx),%rax
    40003ed9:	48 89 df             	mov    %rbx,%rdi
    40003edc:	4c 89 e2             	mov    %r12,%rdx
    40003edf:	59                   	pop    %rcx
    40003ee0:	5b                   	pop    %rbx
    40003ee1:	5d                   	pop    %rbp
    40003ee2:	41 5c                	pop    %r12
    40003ee4:	4c 89 ee             	mov    %r13,%rsi
    40003ee7:	41 5d                	pop    %r13
    40003ee9:	ff e0                	jmpq   *%rax
    40003eeb:	48 89 d7             	mov    %rdx,%rdi
    40003eee:	e8 56 2a 00 00       	callq  40006949 <__towrite>
    40003ef3:	85 c0                	test   %eax,%eax
    40003ef5:	74 d1                	je     40003ec8 <__fwritex+0x18>
    40003ef7:	31 c0                	xor    %eax,%eax
    40003ef9:	eb 57                	jmp    40003f52 <__fwritex+0xa2>
    40003efb:	80 bb 8b 00 00 00 00 	cmpb   $0x0,0x8b(%rbx)
    40003f02:	78 19                	js     40003f1d <__fwritex+0x6d>
    40003f04:	4c 89 e5             	mov    %r12,%rbp
    40003f07:	48 85 ed             	test   %rbp,%rbp
    40003f0a:	74 13                	je     40003f1f <__fwritex+0x6f>
    40003f0c:	41 80 7c 2d ff 0a    	cmpb   $0xa,-0x1(%r13,%rbp,1)
    40003f12:	48 8d 45 ff          	lea    -0x1(%rbp),%rax
    40003f16:	74 21                	je     40003f39 <__fwritex+0x89>
    40003f18:	48 89 c5             	mov    %rax,%rbp
    40003f1b:	eb ea                	jmp    40003f07 <__fwritex+0x57>
    40003f1d:	31 ed                	xor    %ebp,%ebp
    40003f1f:	48 8b 7b 28          	mov    0x28(%rbx),%rdi
    40003f23:	4c 89 e2             	mov    %r12,%rdx
    40003f26:	4c 89 ee             	mov    %r13,%rsi
    40003f29:	e8 3f 20 00 00       	callq  40005f6d <memcpy>
    40003f2e:	4c 01 63 28          	add    %r12,0x28(%rbx)
    40003f32:	4a 8d 44 25 00       	lea    0x0(%rbp,%r12,1),%rax
    40003f37:	eb 19                	jmp    40003f52 <__fwritex+0xa2>
    40003f39:	48 89 ea             	mov    %rbp,%rdx
    40003f3c:	4c 89 ee             	mov    %r13,%rsi
    40003f3f:	48 89 df             	mov    %rbx,%rdi
    40003f42:	ff 53 48             	callq  *0x48(%rbx)
    40003f45:	48 39 e8             	cmp    %rbp,%rax
    40003f48:	72 08                	jb     40003f52 <__fwritex+0xa2>
    40003f4a:	49 01 ed             	add    %rbp,%r13
    40003f4d:	49 29 ec             	sub    %rbp,%r12
    40003f50:	eb cd                	jmp    40003f1f <__fwritex+0x6f>
    40003f52:	5a                   	pop    %rdx
    40003f53:	5b                   	pop    %rbx
    40003f54:	5d                   	pop    %rbp
    40003f55:	41 5c                	pop    %r12
    40003f57:	41 5d                	pop    %r13
    40003f59:	c3                   	retq   

0000000040003f5a <fwrite>:
    40003f5a:	41 57                	push   %r15
    40003f5c:	b8 00 00 00 00       	mov    $0x0,%eax
    40003f61:	41 56                	push   %r14
    40003f63:	49 89 f6             	mov    %rsi,%r14
    40003f66:	4c 0f af f2          	imul   %rdx,%r14
    40003f6a:	41 55                	push   %r13
    40003f6c:	49 89 fd             	mov    %rdi,%r13
    40003f6f:	41 54                	push   %r12
    40003f71:	49 89 cc             	mov    %rcx,%r12
    40003f74:	55                   	push   %rbp
    40003f75:	48 89 f5             	mov    %rsi,%rbp
    40003f78:	53                   	push   %rbx
    40003f79:	48 89 d3             	mov    %rdx,%rbx
    40003f7c:	48 83 ec 18          	sub    $0x18,%rsp
    40003f80:	48 85 f6             	test   %rsi,%rsi
    40003f83:	48 0f 44 d8          	cmove  %rax,%rbx
    40003f87:	8b 81 8c 00 00 00    	mov    0x8c(%rcx),%eax
    40003f8d:	45 31 ff             	xor    %r15d,%r15d
    40003f90:	85 c0                	test   %eax,%eax
    40003f92:	78 0b                	js     40003f9f <fwrite+0x45>
    40003f94:	48 89 cf             	mov    %rcx,%rdi
    40003f97:	e8 4e 26 00 00       	callq  400065ea <__lockfile>
    40003f9c:	41 89 c7             	mov    %eax,%r15d
    40003f9f:	4c 89 e2             	mov    %r12,%rdx
    40003fa2:	4c 89 f6             	mov    %r14,%rsi
    40003fa5:	4c 89 ef             	mov    %r13,%rdi
    40003fa8:	e8 03 ff ff ff       	callq  40003eb0 <__fwritex>
    40003fad:	45 85 ff             	test   %r15d,%r15d
    40003fb0:	74 12                	je     40003fc4 <fwrite+0x6a>
    40003fb2:	4c 89 e7             	mov    %r12,%rdi
    40003fb5:	48 89 44 24 08       	mov    %rax,0x8(%rsp)
    40003fba:	e8 81 26 00 00       	callq  40006640 <__unlockfile>
    40003fbf:	48 8b 44 24 08       	mov    0x8(%rsp),%rax
    40003fc4:	4c 39 f0             	cmp    %r14,%rax
    40003fc7:	74 07                	je     40003fd0 <fwrite+0x76>
    40003fc9:	31 d2                	xor    %edx,%edx
    40003fcb:	48 f7 f5             	div    %rbp
    40003fce:	eb 03                	jmp    40003fd3 <fwrite+0x79>
    40003fd0:	48 89 d8             	mov    %rbx,%rax
    40003fd3:	48 83 c4 18          	add    $0x18,%rsp
    40003fd7:	5b                   	pop    %rbx
    40003fd8:	5d                   	pop    %rbp
    40003fd9:	41 5c                	pop    %r12
    40003fdb:	41 5d                	pop    %r13
    40003fdd:	41 5e                	pop    %r14
    40003fdf:	41 5f                	pop    %r15
    40003fe1:	c3                   	retq   

0000000040003fe2 <__ofl_lock>:
    40003fe2:	50                   	push   %rax
    40003fe3:	bf 78 51 40 40       	mov    $0x40405178,%edi
    40003fe8:	e8 76 20 00 00       	callq  40006063 <__lock>
    40003fed:	b8 80 51 40 40       	mov    $0x40405180,%eax
    40003ff2:	5a                   	pop    %rdx
    40003ff3:	c3                   	retq   

0000000040003ff4 <__ofl_unlock>:
    40003ff4:	bf 78 51 40 40       	mov    $0x40405178,%edi
    40003ff9:	e9 9f 20 00 00       	jmpq   4000609d <__unlock>

0000000040003ffe <printf>:
    40003ffe:	48 81 ec d8 00 00 00 	sub    $0xd8,%rsp
    40004005:	84 c0                	test   %al,%al
    40004007:	48 89 74 24 28       	mov    %rsi,0x28(%rsp)
    4000400c:	48 89 54 24 30       	mov    %rdx,0x30(%rsp)
    40004011:	48 89 4c 24 38       	mov    %rcx,0x38(%rsp)
    40004016:	4c 89 44 24 40       	mov    %r8,0x40(%rsp)
    4000401b:	4c 89 4c 24 48       	mov    %r9,0x48(%rsp)
    40004020:	74 37                	je     40004059 <printf+0x5b>
    40004022:	0f 29 44 24 50       	movaps %xmm0,0x50(%rsp)
    40004027:	0f 29 4c 24 60       	movaps %xmm1,0x60(%rsp)
    4000402c:	0f 29 54 24 70       	movaps %xmm2,0x70(%rsp)
    40004031:	0f 29 9c 24 80 00 00 	movaps %xmm3,0x80(%rsp)
    40004038:	00 
    40004039:	0f 29 a4 24 90 00 00 	movaps %xmm4,0x90(%rsp)
    40004040:	00 
    40004041:	0f 29 ac 24 a0 00 00 	movaps %xmm5,0xa0(%rsp)
    40004048:	00 
    40004049:	0f 29 b4 24 b0 00 00 	movaps %xmm6,0xb0(%rsp)
    40004050:	00 
    40004051:	0f 29 bc 24 c0 00 00 	movaps %xmm7,0xc0(%rsp)
    40004058:	00 
    40004059:	48 8d 84 24 e0 00 00 	lea    0xe0(%rsp),%rax
    40004060:	00 
    40004061:	48 89 fe             	mov    %rdi,%rsi
    40004064:	48 8d 54 24 08       	lea    0x8(%rsp),%rdx
    40004069:	48 8b 3d 38 c3 3f 00 	mov    0x3fc338(%rip),%rdi        # 404003a8 <stdout>
    40004070:	48 89 44 24 10       	mov    %rax,0x10(%rsp)
    40004075:	48 8d 44 24 20       	lea    0x20(%rsp),%rax
    4000407a:	c7 44 24 08 08 00 00 	movl   $0x8,0x8(%rsp)
    40004081:	00 
    40004082:	c7 44 24 0c 30 00 00 	movl   $0x30,0xc(%rsp)
    40004089:	00 
    4000408a:	48 89 44 24 18       	mov    %rax,0x18(%rsp)
    4000408f:	e8 78 1a 00 00       	callq  40005b0c <vfprintf>
    40004094:	48 81 c4 d8 00 00 00 	add    $0xd8,%rsp
    4000409b:	c3                   	retq   

000000004000409c <putchar>:
    4000409c:	48 8b 35 05 c3 3f 00 	mov    0x3fc305(%rip),%rsi        # 404003a8 <stdout>
    400040a3:	e9 23 29 00 00       	jmpq   400069cb <fputc>

00000000400040a8 <puts>:
    400040a8:	41 54                	push   %r12
    400040aa:	49 89 fc             	mov    %rdi,%r12
    400040ad:	55                   	push   %rbp
    400040ae:	31 ed                	xor    %ebp,%ebp
    400040b0:	53                   	push   %rbx
    400040b1:	48 8b 1d f0 c2 3f 00 	mov    0x3fc2f0(%rip),%rbx        # 404003a8 <stdout>
    400040b8:	8b 83 8c 00 00 00    	mov    0x8c(%rbx),%eax
    400040be:	85 c0                	test   %eax,%eax
    400040c0:	78 0a                	js     400040cc <puts+0x24>
    400040c2:	48 89 df             	mov    %rbx,%rdi
    400040c5:	e8 20 25 00 00       	callq  400065ea <__lockfile>
    400040ca:	89 c5                	mov    %eax,%ebp
    400040cc:	48 89 de             	mov    %rbx,%rsi
    400040cf:	4c 89 e7             	mov    %r12,%rdi
    400040d2:	e8 8f 29 00 00       	callq  40006a66 <fputs>
    400040d7:	85 c0                	test   %eax,%eax
    400040d9:	78 34                	js     4000410f <puts+0x67>
    400040db:	80 bb 8b 00 00 00 0a 	cmpb   $0xa,0x8b(%rbx)
    400040e2:	74 19                	je     400040fd <puts+0x55>
    400040e4:	48 8b 53 28          	mov    0x28(%rbx),%rdx
    400040e8:	48 3b 53 20          	cmp    0x20(%rbx),%rdx
    400040ec:	73 0f                	jae    400040fd <puts+0x55>
    400040ee:	48 8d 42 01          	lea    0x1(%rdx),%rax
    400040f2:	48 89 43 28          	mov    %rax,0x28(%rbx)
    400040f6:	c6 02 0a             	movb   $0xa,(%rdx)
    400040f9:	31 c0                	xor    %eax,%eax
    400040fb:	eb 17                	jmp    40004114 <puts+0x6c>
    400040fd:	be 0a 00 00 00       	mov    $0xa,%esi
    40004102:	48 89 df             	mov    %rbx,%rdi
    40004105:	e8 8c 25 00 00       	callq  40006696 <__overflow>
    4000410a:	c1 e8 1f             	shr    $0x1f,%eax
    4000410d:	eb 05                	jmp    40004114 <puts+0x6c>
    4000410f:	b8 01 00 00 00       	mov    $0x1,%eax
    40004114:	f7 d8                	neg    %eax
    40004116:	85 ed                	test   %ebp,%ebp
    40004118:	41 89 c4             	mov    %eax,%r12d
    4000411b:	74 08                	je     40004125 <puts+0x7d>
    4000411d:	48 89 df             	mov    %rbx,%rdi
    40004120:	e8 1b 25 00 00       	callq  40006640 <__unlockfile>
    40004125:	5b                   	pop    %rbx
    40004126:	5d                   	pop    %rbp
    40004127:	44 89 e0             	mov    %r12d,%eax
    4000412a:	41 5c                	pop    %r12
    4000412c:	c3                   	retq   

000000004000412d <sscanf>:
    4000412d:	48 81 ec d8 00 00 00 	sub    $0xd8,%rsp
    40004134:	84 c0                	test   %al,%al
    40004136:	48 89 54 24 30       	mov    %rdx,0x30(%rsp)
    4000413b:	48 89 4c 24 38       	mov    %rcx,0x38(%rsp)
    40004140:	4c 89 44 24 40       	mov    %r8,0x40(%rsp)
    40004145:	4c 89 4c 24 48       	mov    %r9,0x48(%rsp)
    4000414a:	74 37                	je     40004183 <sscanf+0x56>
    4000414c:	0f 29 44 24 50       	movaps %xmm0,0x50(%rsp)
    40004151:	0f 29 4c 24 60       	movaps %xmm1,0x60(%rsp)
    40004156:	0f 29 54 24 70       	movaps %xmm2,0x70(%rsp)
    4000415b:	0f 29 9c 24 80 00 00 	movaps %xmm3,0x80(%rsp)
    40004162:	00 
    40004163:	0f 29 a4 24 90 00 00 	movaps %xmm4,0x90(%rsp)
    4000416a:	00 
    4000416b:	0f 29 ac 24 a0 00 00 	movaps %xmm5,0xa0(%rsp)
    40004172:	00 
    40004173:	0f 29 b4 24 b0 00 00 	movaps %xmm6,0xb0(%rsp)
    4000417a:	00 
    4000417b:	0f 29 bc 24 c0 00 00 	movaps %xmm7,0xc0(%rsp)
    40004182:	00 
    40004183:	48 8d 84 24 e0 00 00 	lea    0xe0(%rsp),%rax
    4000418a:	00 
    4000418b:	48 8d 54 24 08       	lea    0x8(%rsp),%rdx
    40004190:	48 89 44 24 10       	mov    %rax,0x10(%rsp)
    40004195:	48 8d 44 24 20       	lea    0x20(%rsp),%rax
    4000419a:	c7 44 24 08 10 00 00 	movl   $0x10,0x8(%rsp)
    400041a1:	00 
    400041a2:	c7 44 24 0c 30 00 00 	movl   $0x30,0xc(%rsp)
    400041a9:	00 
    400041aa:	48 89 44 24 18       	mov    %rax,0x18(%rsp)
    400041af:	e8 a7 1a 00 00       	callq  40005c5b <vsscanf>
    400041b4:	48 81 c4 d8 00 00 00 	add    $0xd8,%rsp
    400041bb:	c3                   	retq   

00000000400041bc <fmt_u>:
    400041bc:	b9 0a 00 00 00       	mov    $0xa,%ecx
    400041c1:	48 85 ff             	test   %rdi,%rdi
    400041c4:	74 15                	je     400041db <fmt_u+0x1f>
    400041c6:	48 89 f8             	mov    %rdi,%rax
    400041c9:	31 d2                	xor    %edx,%edx
    400041cb:	48 ff ce             	dec    %rsi
    400041ce:	48 f7 f1             	div    %rcx
    400041d1:	83 c2 30             	add    $0x30,%edx
    400041d4:	48 89 c7             	mov    %rax,%rdi
    400041d7:	88 16                	mov    %dl,(%rsi)
    400041d9:	eb e6                	jmp    400041c1 <fmt_u+0x5>
    400041db:	48 89 f0             	mov    %rsi,%rax
    400041de:	c3                   	retq   

00000000400041df <getint>:
    400041df:	31 c0                	xor    %eax,%eax
    400041e1:	48 8b 0f             	mov    (%rdi),%rcx
    400041e4:	0f be 11             	movsbl (%rcx),%edx
    400041e7:	83 ea 30             	sub    $0x30,%edx
    400041ea:	83 fa 09             	cmp    $0x9,%edx
    400041ed:	77 26                	ja     40004215 <getint+0x36>
    400041ef:	3d cc cc cc 0c       	cmp    $0xccccccc,%eax
    400041f4:	77 14                	ja     4000420a <getint+0x2b>
    400041f6:	6b f0 f6             	imul   $0xfffffff6,%eax,%esi
    400041f9:	81 c6 ff ff ff 7f    	add    $0x7fffffff,%esi
    400041ff:	39 f2                	cmp    %esi,%edx
    40004201:	7f 07                	jg     4000420a <getint+0x2b>
    40004203:	6b c0 0a             	imul   $0xa,%eax,%eax
    40004206:	01 d0                	add    %edx,%eax
    40004208:	eb 03                	jmp    4000420d <getint+0x2e>
    4000420a:	83 c8 ff             	or     $0xffffffff,%eax
    4000420d:	48 ff c1             	inc    %rcx
    40004210:	48 89 0f             	mov    %rcx,(%rdi)
    40004213:	eb cc                	jmp    400041e1 <getint+0x2>
    40004215:	c3                   	retq   

0000000040004216 <out>:
    40004216:	f6 07 20             	testb  $0x20,(%rdi)
    40004219:	48 89 f0             	mov    %rsi,%rax
    4000421c:	48 89 d6             	mov    %rdx,%rsi
    4000421f:	75 0b                	jne    4000422c <out+0x16>
    40004221:	48 89 fa             	mov    %rdi,%rdx
    40004224:	48 89 c7             	mov    %rax,%rdi
    40004227:	e9 84 fc ff ff       	jmpq   40003eb0 <__fwritex>
    4000422c:	c3                   	retq   

000000004000422d <pop_arg>:
    4000422d:	83 fe 16             	cmp    $0x16,%esi
    40004230:	0f 87 6a 01 00 00    	ja     400043a0 <pop_arg+0x173>
    40004236:	83 ee 09             	sub    $0x9,%esi
    40004239:	83 fe 0b             	cmp    $0xb,%esi
    4000423c:	0f 87 5e 01 00 00    	ja     400043a0 <pop_arg+0x173>
    40004242:	ff 24 f5 b0 03 40 40 	jmpq   *0x404003b0(,%rsi,8)
    40004249:	8b 0a                	mov    (%rdx),%ecx
    4000424b:	83 f9 2f             	cmp    $0x2f,%ecx
    4000424e:	77 0d                	ja     4000425d <pop_arg+0x30>
    40004250:	89 c8                	mov    %ecx,%eax
    40004252:	83 c1 08             	add    $0x8,%ecx
    40004255:	48 03 42 10          	add    0x10(%rdx),%rax
    40004259:	89 0a                	mov    %ecx,(%rdx)
    4000425b:	eb 0c                	jmp    40004269 <pop_arg+0x3c>
    4000425d:	48 8b 42 08          	mov    0x8(%rdx),%rax
    40004261:	48 8d 48 08          	lea    0x8(%rax),%rcx
    40004265:	48 89 4a 08          	mov    %rcx,0x8(%rdx)
    40004269:	48 63 00             	movslq (%rax),%rax
    4000426c:	e9 e3 00 00 00       	jmpq   40004354 <pop_arg+0x127>
    40004271:	8b 0a                	mov    (%rdx),%ecx
    40004273:	83 f9 2f             	cmp    $0x2f,%ecx
    40004276:	77 0d                	ja     40004285 <pop_arg+0x58>
    40004278:	89 c8                	mov    %ecx,%eax
    4000427a:	83 c1 08             	add    $0x8,%ecx
    4000427d:	48 03 42 10          	add    0x10(%rdx),%rax
    40004281:	89 0a                	mov    %ecx,(%rdx)
    40004283:	eb 0c                	jmp    40004291 <pop_arg+0x64>
    40004285:	48 8b 42 08          	mov    0x8(%rdx),%rax
    40004289:	48 8d 48 08          	lea    0x8(%rax),%rcx
    4000428d:	48 89 4a 08          	mov    %rcx,0x8(%rdx)
    40004291:	8b 00                	mov    (%rax),%eax
    40004293:	e9 bc 00 00 00       	jmpq   40004354 <pop_arg+0x127>
    40004298:	8b 0a                	mov    (%rdx),%ecx
    4000429a:	83 f9 2f             	cmp    $0x2f,%ecx
    4000429d:	77 0d                	ja     400042ac <pop_arg+0x7f>
    4000429f:	89 c8                	mov    %ecx,%eax
    400042a1:	83 c1 08             	add    $0x8,%ecx
    400042a4:	48 03 42 10          	add    0x10(%rdx),%rax
    400042a8:	89 0a                	mov    %ecx,(%rdx)
    400042aa:	eb 0c                	jmp    400042b8 <pop_arg+0x8b>
    400042ac:	48 8b 42 08          	mov    0x8(%rdx),%rax
    400042b0:	48 8d 48 08          	lea    0x8(%rax),%rcx
    400042b4:	48 89 4a 08          	mov    %rcx,0x8(%rdx)
    400042b8:	48 8b 00             	mov    (%rax),%rax
    400042bb:	e9 94 00 00 00       	jmpq   40004354 <pop_arg+0x127>
    400042c0:	8b 0a                	mov    (%rdx),%ecx
    400042c2:	83 f9 2f             	cmp    $0x2f,%ecx
    400042c5:	77 0d                	ja     400042d4 <pop_arg+0xa7>
    400042c7:	89 c8                	mov    %ecx,%eax
    400042c9:	83 c1 08             	add    $0x8,%ecx
    400042cc:	48 03 42 10          	add    0x10(%rdx),%rax
    400042d0:	89 0a                	mov    %ecx,(%rdx)
    400042d2:	eb 0c                	jmp    400042e0 <pop_arg+0xb3>
    400042d4:	48 8b 42 08          	mov    0x8(%rdx),%rax
    400042d8:	48 8d 48 08          	lea    0x8(%rax),%rcx
    400042dc:	48 89 4a 08          	mov    %rcx,0x8(%rdx)
    400042e0:	48 0f bf 00          	movswq (%rax),%rax
    400042e4:	eb 6e                	jmp    40004354 <pop_arg+0x127>
    400042e6:	8b 0a                	mov    (%rdx),%ecx
    400042e8:	83 f9 2f             	cmp    $0x2f,%ecx
    400042eb:	77 0d                	ja     400042fa <pop_arg+0xcd>
    400042ed:	89 c8                	mov    %ecx,%eax
    400042ef:	83 c1 08             	add    $0x8,%ecx
    400042f2:	48 03 42 10          	add    0x10(%rdx),%rax
    400042f6:	89 0a                	mov    %ecx,(%rdx)
    400042f8:	eb 0c                	jmp    40004306 <pop_arg+0xd9>
    400042fa:	48 8b 42 08          	mov    0x8(%rdx),%rax
    400042fe:	48 8d 48 08          	lea    0x8(%rax),%rcx
    40004302:	48 89 4a 08          	mov    %rcx,0x8(%rdx)
    40004306:	0f b7 00             	movzwl (%rax),%eax
    40004309:	eb 49                	jmp    40004354 <pop_arg+0x127>
    4000430b:	8b 0a                	mov    (%rdx),%ecx
    4000430d:	83 f9 2f             	cmp    $0x2f,%ecx
    40004310:	77 0d                	ja     4000431f <pop_arg+0xf2>
    40004312:	89 c8                	mov    %ecx,%eax
    40004314:	83 c1 08             	add    $0x8,%ecx
    40004317:	48 03 42 10          	add    0x10(%rdx),%rax
    4000431b:	89 0a                	mov    %ecx,(%rdx)
    4000431d:	eb 0c                	jmp    4000432b <pop_arg+0xfe>
    4000431f:	48 8b 42 08          	mov    0x8(%rdx),%rax
    40004323:	48 8d 48 08          	lea    0x8(%rax),%rcx
    40004327:	48 89 4a 08          	mov    %rcx,0x8(%rdx)
    4000432b:	48 0f be 00          	movsbq (%rax),%rax
    4000432f:	eb 23                	jmp    40004354 <pop_arg+0x127>
    40004331:	8b 0a                	mov    (%rdx),%ecx
    40004333:	83 f9 2f             	cmp    $0x2f,%ecx
    40004336:	77 0d                	ja     40004345 <pop_arg+0x118>
    40004338:	89 c8                	mov    %ecx,%eax
    4000433a:	83 c1 08             	add    $0x8,%ecx
    4000433d:	48 03 42 10          	add    0x10(%rdx),%rax
    40004341:	89 0a                	mov    %ecx,(%rdx)
    40004343:	eb 0c                	jmp    40004351 <pop_arg+0x124>
    40004345:	48 8b 42 08          	mov    0x8(%rdx),%rax
    40004349:	48 8d 48 08          	lea    0x8(%rax),%rcx
    4000434d:	48 89 4a 08          	mov    %rcx,0x8(%rdx)
    40004351:	0f b6 00             	movzbl (%rax),%eax
    40004354:	48 89 07             	mov    %rax,(%rdi)
    40004357:	c3                   	retq   
    40004358:	8b 4a 04             	mov    0x4(%rdx),%ecx
    4000435b:	81 f9 af 00 00 00    	cmp    $0xaf,%ecx
    40004361:	77 0e                	ja     40004371 <pop_arg+0x144>
    40004363:	89 c8                	mov    %ecx,%eax
    40004365:	83 c1 10             	add    $0x10,%ecx
    40004368:	48 03 42 10          	add    0x10(%rdx),%rax
    4000436c:	89 4a 04             	mov    %ecx,0x4(%rdx)
    4000436f:	eb 0c                	jmp    4000437d <pop_arg+0x150>
    40004371:	48 8b 42 08          	mov    0x8(%rdx),%rax
    40004375:	48 8d 48 08          	lea    0x8(%rax),%rcx
    40004379:	48 89 4a 08          	mov    %rcx,0x8(%rdx)
    4000437d:	dd 00                	fldl   (%rax)
    4000437f:	db 3f                	fstpt  (%rdi)
    40004381:	c3                   	retq   
    40004382:	48 8b 42 08          	mov    0x8(%rdx),%rax
    40004386:	48 83 c0 0f          	add    $0xf,%rax
    4000438a:	48 83 e0 f0          	and    $0xfffffffffffffff0,%rax
    4000438e:	48 8d 48 10          	lea    0x10(%rax),%rcx
    40004392:	48 89 4a 08          	mov    %rcx,0x8(%rdx)
    40004396:	db 28                	fldt   (%rax)
    40004398:	d9 c0                	fld    %st(0)
    4000439a:	db 7c 24 e8          	fstpt  -0x18(%rsp)
    4000439e:	db 3f                	fstpt  (%rdi)
    400043a0:	c3                   	retq   

00000000400043a1 <pad>:
    400043a1:	41 81 e0 00 20 01 00 	and    $0x12000,%r8d
    400043a8:	75 6c                	jne    40004416 <pad+0x75>
    400043aa:	39 d1                	cmp    %edx,%ecx
    400043ac:	7d 68                	jge    40004416 <pad+0x75>
    400043ae:	41 54                	push   %r12
    400043b0:	40 0f be f6          	movsbl %sil,%esi
    400043b4:	49 89 fc             	mov    %rdi,%r12
    400043b7:	55                   	push   %rbp
    400043b8:	53                   	push   %rbx
    400043b9:	89 d3                	mov    %edx,%ebx
    400043bb:	ba 00 01 00 00       	mov    $0x100,%edx
    400043c0:	29 cb                	sub    %ecx,%ebx
    400043c2:	48 81 ec 00 01 00 00 	sub    $0x100,%rsp
    400043c9:	81 fb 00 01 00 00    	cmp    $0x100,%ebx
    400043cf:	89 dd                	mov    %ebx,%ebp
    400043d1:	48 0f 46 d3          	cmovbe %rbx,%rdx
    400043d5:	48 89 e7             	mov    %rsp,%rdi
    400043d8:	e8 c2 1b 00 00       	callq  40005f9f <memset>
    400043dd:	81 fd ff 00 00 00    	cmp    $0xff,%ebp
    400043e3:	76 18                	jbe    400043fd <pad+0x5c>
    400043e5:	ba 00 01 00 00       	mov    $0x100,%edx
    400043ea:	48 89 e6             	mov    %rsp,%rsi
    400043ed:	4c 89 e7             	mov    %r12,%rdi
    400043f0:	e8 21 fe ff ff       	callq  40004216 <out>
    400043f5:	81 ed 00 01 00 00    	sub    $0x100,%ebp
    400043fb:	eb e0                	jmp    400043dd <pad+0x3c>
    400043fd:	0f b6 d3             	movzbl %bl,%edx
    40004400:	48 89 e6             	mov    %rsp,%rsi
    40004403:	4c 89 e7             	mov    %r12,%rdi
    40004406:	e8 0b fe ff ff       	callq  40004216 <out>
    4000440b:	48 81 c4 00 01 00 00 	add    $0x100,%rsp
    40004412:	5b                   	pop    %rbx
    40004413:	5d                   	pop    %rbp
    40004414:	41 5c                	pop    %r12
    40004416:	c3                   	retq   

0000000040004417 <fmt_fp>:
    40004417:	55                   	push   %rbp
    40004418:	48 89 e5             	mov    %rsp,%rbp
    4000441b:	41 57                	push   %r15
    4000441d:	41 56                	push   %r14
    4000441f:	41 55                	push   %r13
    40004421:	41 54                	push   %r12
    40004423:	53                   	push   %rbx
    40004424:	89 d3                	mov    %edx,%ebx
    40004426:	48 81 ec 68 1d 00 00 	sub    $0x1d68,%rsp
    4000442d:	48 89 bd d8 e2 ff ff 	mov    %rdi,-0x1d28(%rbp)
    40004434:	89 b5 d0 e2 ff ff    	mov    %esi,-0x1d30(%rbp)
    4000443a:	db 6d 10             	fldt   0x10(%rbp)
    4000443d:	89 8d d4 e2 ff ff    	mov    %ecx,-0x1d2c(%rbp)
    40004443:	44 89 85 a0 e2 ff ff 	mov    %r8d,-0x1d60(%rbp)
    4000444a:	c7 85 f8 e2 ff ff 00 	movl   $0x0,-0x1d08(%rbp)
    40004451:	00 00 00 
    40004454:	d9 c0                	fld    %st(0)
    40004456:	db 3c 24             	fstpt  (%rsp)
    40004459:	db bd c0 e2 ff ff    	fstpt  -0x1d40(%rbp)
    4000445f:	e8 fd 1e 00 00       	callq  40006361 <__signbitl>
    40004464:	85 c0                	test   %eax,%eax
    40004466:	41 59                	pop    %r9
    40004468:	41 5a                	pop    %r10
    4000446a:	db ad c0 e2 ff ff    	fldt   -0x1d40(%rbp)
    40004470:	74 19                	je     4000448b <fmt_fp+0x74>
    40004472:	c7 85 c0 e2 ff ff 01 	movl   $0x1,-0x1d40(%rbp)
    40004479:	00 00 00 
    4000447c:	48 c7 85 a8 e2 ff ff 	movq   $0x40400410,-0x1d58(%rbp)
    40004483:	10 04 40 40 
    40004487:	d9 e0                	fchs   
    40004489:	eb 54                	jmp    400044df <fmt_fp+0xc8>
    4000448b:	f7 85 d4 e2 ff ff 00 	testl  $0x800,-0x1d2c(%rbp)
    40004492:	08 00 00 
    40004495:	75 33                	jne    400044ca <fmt_fp+0xb3>
    40004497:	8b 85 d4 e2 ff ff    	mov    -0x1d2c(%rbp),%eax
    4000449d:	83 e0 01             	and    $0x1,%eax
    400044a0:	83 f8 01             	cmp    $0x1,%eax
    400044a3:	19 ff                	sbb    %edi,%edi
    400044a5:	89 bd c0 e2 ff ff    	mov    %edi,-0x1d40(%rbp)
    400044ab:	bf 16 04 40 40       	mov    $0x40400416,%edi
    400044b0:	ff 85 c0 e2 ff ff    	incl   -0x1d40(%rbp)
    400044b6:	85 c0                	test   %eax,%eax
    400044b8:	b8 11 04 40 40       	mov    $0x40400411,%eax
    400044bd:	48 0f 45 c7          	cmovne %rdi,%rax
    400044c1:	48 89 85 a8 e2 ff ff 	mov    %rax,-0x1d58(%rbp)
    400044c8:	eb 15                	jmp    400044df <fmt_fp+0xc8>
    400044ca:	c7 85 c0 e2 ff ff 01 	movl   $0x1,-0x1d40(%rbp)
    400044d1:	00 00 00 
    400044d4:	48 c7 85 a8 e2 ff ff 	movq   $0x40400413,-0x1d58(%rbp)
    400044db:	13 04 40 40 
    400044df:	56                   	push   %rsi
    400044e0:	56                   	push   %rsi
    400044e1:	d9 c0                	fld    %st(0)
    400044e3:	db 3c 24             	fstpt  (%rsp)
    400044e6:	db bd b0 e2 ff ff    	fstpt  -0x1d50(%rbp)
    400044ec:	e8 26 1e 00 00       	callq  40006317 <__fpclassifyl>
    400044f1:	ff c8                	dec    %eax
    400044f3:	5f                   	pop    %rdi
    400044f4:	41 58                	pop    %r8
    400044f6:	db ad b0 e2 ff ff    	fldt   -0x1d50(%rbp)
    400044fc:	0f 8f a5 00 00 00    	jg     400045a7 <fmt_fp+0x190>
    40004502:	f6 85 a0 e2 ff ff 20 	testb  $0x20,-0x1d60(%rbp)
    40004509:	0f 85 12 0c 00 00    	jne    40005121 <fmt_fp+0xd0a>
    4000450f:	41 bd 23 04 40 40    	mov    $0x40400423,%r13d
    40004515:	b8 27 04 40 40       	mov    $0x40400427,%eax
    4000451a:	df e8                	fucomip %st(0),%st
    4000451c:	4c 0f 4a e8          	cmovp  %rax,%r13
    40004520:	8b 85 c0 e2 ff ff    	mov    -0x1d40(%rbp),%eax
    40004526:	44 8b bd d4 e2 ff ff 	mov    -0x1d2c(%rbp),%r15d
    4000452d:	44 8b b5 d0 e2 ff ff 	mov    -0x1d30(%rbp),%r14d
    40004534:	4c 8b a5 d8 e2 ff ff 	mov    -0x1d28(%rbp),%r12
    4000453b:	be 20 00 00 00       	mov    $0x20,%esi
    40004540:	8d 58 03             	lea    0x3(%rax),%ebx
    40004543:	45 89 f8             	mov    %r15d,%r8d
    40004546:	41 81 e0 ff ff fe ff 	and    $0xfffeffff,%r8d
    4000454d:	44 89 f2             	mov    %r14d,%edx
    40004550:	4c 89 e7             	mov    %r12,%rdi
    40004553:	89 d9                	mov    %ebx,%ecx
    40004555:	e8 47 fe ff ff       	callq  400043a1 <pad>
    4000455a:	48 63 95 c0 e2 ff ff 	movslq -0x1d40(%rbp),%rdx
    40004561:	48 8b b5 a8 e2 ff ff 	mov    -0x1d58(%rbp),%rsi
    40004568:	4c 89 e7             	mov    %r12,%rdi
    4000456b:	e8 a6 fc ff ff       	callq  40004216 <out>
    40004570:	ba 03 00 00 00       	mov    $0x3,%edx
    40004575:	4c 89 ee             	mov    %r13,%rsi
    40004578:	4c 89 e7             	mov    %r12,%rdi
    4000457b:	e8 96 fc ff ff       	callq  40004216 <out>
    40004580:	45 89 f8             	mov    %r15d,%r8d
    40004583:	89 d9                	mov    %ebx,%ecx
    40004585:	44 89 f2             	mov    %r14d,%edx
    40004588:	41 81 f0 00 20 00 00 	xor    $0x2000,%r8d
    4000458f:	be 20 00 00 00       	mov    $0x20,%esi
    40004594:	4c 89 e7             	mov    %r12,%rdi
    40004597:	e8 05 fe ff ff       	callq  400043a1 <pad>
    4000459c:	44 39 f3             	cmp    %r14d,%ebx
    4000459f:	44 89 f0             	mov    %r14d,%eax
    400045a2:	e9 2d 03 00 00       	jmpq   400048d4 <fmt_fp+0x4bd>
    400045a7:	50                   	push   %rax
    400045a8:	48 8d bd f8 e2 ff ff 	lea    -0x1d08(%rbp),%rdi
    400045af:	50                   	push   %rax
    400045b0:	db 3c 24             	fstpt  (%rsp)
    400045b3:	e8 bd 1d 00 00       	callq  40006375 <frexpl>
    400045b8:	d8 c0                	fadd   %st(0),%st
    400045ba:	5a                   	pop    %rdx
    400045bb:	59                   	pop    %rcx
    400045bc:	d9 ee                	fldz   
    400045be:	d9 c9                	fxch   %st(1)
    400045c0:	db e9                	fucomi %st(1),%st
    400045c2:	7a 02                	jp     400045c6 <fmt_fp+0x1af>
    400045c4:	74 06                	je     400045cc <fmt_fp+0x1b5>
    400045c6:	ff 8d f8 e2 ff ff    	decl   -0x1d08(%rbp)
    400045cc:	44 8b 95 a0 e2 ff ff 	mov    -0x1d60(%rbp),%r10d
    400045d3:	41 83 ca 20          	or     $0x20,%r10d
    400045d7:	41 83 fa 61          	cmp    $0x61,%r10d
    400045db:	0f 85 fb 02 00 00    	jne    400048dc <fmt_fp+0x4c5>
    400045e1:	48 8b bd a8 e2 ff ff 	mov    -0x1d58(%rbp),%rdi
    400045e8:	44 8b b5 c0 e2 ff ff 	mov    -0x1d40(%rbp),%r14d
    400045ef:	d9 05 4b c2 3f 00    	flds   0x3fc24b(%rip)        # 40400840 <states+0x1e0>
    400045f5:	48 89 f8             	mov    %rdi,%rax
    400045f8:	48 83 c0 09          	add    $0x9,%rax
    400045fc:	f6 85 a0 e2 ff ff 20 	testb  $0x20,-0x1d60(%rbp)
    40004603:	48 0f 44 c7          	cmove  %rdi,%rax
    40004607:	41 83 c6 02          	add    $0x2,%r14d
    4000460b:	83 fb 0e             	cmp    $0xe,%ebx
    4000460e:	48 89 85 a8 e2 ff ff 	mov    %rax,-0x1d58(%rbp)
    40004615:	77 38                	ja     4000464f <fmt_fp+0x238>
    40004617:	b8 0f 00 00 00       	mov    $0xf,%eax
    4000461c:	d9 05 0e c2 3f 00    	flds   0x3fc20e(%rip)        # 40400830 <states+0x1d0>
    40004622:	29 d8                	sub    %ebx,%eax
    40004624:	ff c8                	dec    %eax
    40004626:	83 f8 ff             	cmp    $0xffffffff,%eax
    40004629:	74 04                	je     4000462f <fmt_fp+0x218>
    4000462b:	d8 c9                	fmul   %st(1),%st
    4000462d:	eb f5                	jmp    40004624 <fmt_fp+0x20d>
    4000462f:	48 8b 85 a8 e2 ff ff 	mov    -0x1d58(%rbp),%rax
    40004636:	80 38 2d             	cmpb   $0x2d,(%rax)
    40004639:	75 10                	jne    4000464b <fmt_fp+0x234>
    4000463b:	d9 ca                	fxch   %st(2)
    4000463d:	d9 e0                	fchs   
    4000463f:	d8 e2                	fsub   %st(2),%st
    40004641:	de c2                	faddp  %st,%st(2)
    40004643:	d9 c9                	fxch   %st(1)
    40004645:	d9 e0                	fchs   
    40004647:	d9 c9                	fxch   %st(1)
    40004649:	eb 04                	jmp    4000464f <fmt_fp+0x238>
    4000464b:	dc c2                	fadd   %st,%st(2)
    4000464d:	de ea                	fsubrp %st,%st(2)
    4000464f:	db bd 90 e2 ff ff    	fstpt  -0x1d70(%rbp)
    40004655:	d9 c9                	fxch   %st(1)
    40004657:	48 8d 85 ff e2 ff ff 	lea    -0x1d01(%rbp),%rax
    4000465e:	8b bd f8 e2 ff ff    	mov    -0x1d08(%rbp),%edi
    40004664:	4c 8d 68 0c          	lea    0xc(%rax),%r13
    40004668:	8b 85 f8 e2 ff ff    	mov    -0x1d08(%rbp),%eax
    4000466e:	4c 89 ee             	mov    %r13,%rsi
    40004671:	c1 f8 1f             	sar    $0x1f,%eax
    40004674:	31 c7                	xor    %eax,%edi
    40004676:	db bd b0 e2 ff ff    	fstpt  -0x1d50(%rbp)
    4000467c:	29 c7                	sub    %eax,%edi
    4000467e:	48 63 ff             	movslq %edi,%rdi
    40004681:	db bd c0 e2 ff ff    	fstpt  -0x1d40(%rbp)
    40004687:	e8 30 fb ff ff       	callq  400041bc <fmt_u>
    4000468c:	4c 39 e8             	cmp    %r13,%rax
    4000468f:	db ad c0 e2 ff ff    	fldt   -0x1d40(%rbp)
    40004695:	db ad b0 e2 ff ff    	fldt   -0x1d50(%rbp)
    4000469b:	db ad 90 e2 ff ff    	fldt   -0x1d70(%rbp)
    400046a1:	75 12                	jne    400046b5 <fmt_fp+0x29e>
    400046a3:	48 8d 85 ff e2 ff ff 	lea    -0x1d01(%rbp),%rax
    400046aa:	c6 85 0a e3 ff ff 30 	movb   $0x30,-0x1cf6(%rbp)
    400046b1:	48 83 c0 0b          	add    $0xb,%rax
    400046b5:	8b 95 f8 e2 ff ff    	mov    -0x1d08(%rbp),%edx
    400046bb:	8b bd a0 e2 ff ff    	mov    -0x1d60(%rbp),%edi
    400046c1:	4c 8d 60 fe          	lea    -0x2(%rax),%r12
    400046c5:	c1 fa 1f             	sar    $0x1f,%edx
    400046c8:	40 88 fe             	mov    %dil,%sil
    400046cb:	40 88 f9             	mov    %dil,%cl
    400046ce:	83 e2 02             	and    $0x2,%edx
    400046d1:	8b bd d4 e2 ff ff    	mov    -0x1d2c(%rbp),%edi
    400046d7:	d9 ee                	fldz   
    400046d9:	d9 cb                	fxch   %st(3)
    400046db:	83 c2 2b             	add    $0x2b,%edx
    400046de:	83 e1 20             	and    $0x20,%ecx
    400046e1:	88 50 ff             	mov    %dl,-0x1(%rax)
    400046e4:	8d 56 0f             	lea    0xf(%rsi),%edx
    400046e7:	40 b6 01             	mov    $0x1,%sil
    400046ea:	83 e7 08             	and    $0x8,%edi
    400046ed:	88 50 fe             	mov    %dl,-0x2(%rax)
    400046f0:	d9 bd ee e2 ff ff    	fnstcw -0x1d12(%rbp)
    400046f6:	66 8b 95 ee e2 ff ff 	mov    -0x1d12(%rbp),%dx
    400046fd:	48 8d 85 0b e3 ff ff 	lea    -0x1cf5(%rbp),%rax
    40004704:	80 ce 0c             	or     $0xc,%dh
    40004707:	49 89 c7             	mov    %rax,%r15
    4000470a:	66 89 95 ec e2 ff ff 	mov    %dx,-0x1d14(%rbp)
    40004711:	d9 c0                	fld    %st(0)
    40004713:	d9 ad ec e2 ff ff    	fldcw  -0x1d14(%rbp)
    40004719:	db 9d e8 e2 ff ff    	fistpl -0x1d18(%rbp)
    4000471f:	d9 ad ee e2 ff ff    	fldcw  -0x1d12(%rbp)
    40004725:	41 88 c9             	mov    %cl,%r9b
    40004728:	4c 8d 68 01          	lea    0x1(%rax),%r13
    4000472c:	8b 95 e8 e2 ff ff    	mov    -0x1d18(%rbp),%edx
    40004732:	4c 63 c2             	movslq %edx,%r8
    40004735:	45 0a 88 50 06 40 40 	or     0x40400650(%r8),%r9b
    4000473c:	49 39 c7             	cmp    %rax,%r15
    4000473f:	44 88 08             	mov    %r9b,(%rax)
    40004742:	89 54 24 80          	mov    %edx,-0x80(%rsp)
    40004746:	da 64 24 80          	fisubl -0x80(%rsp)
    4000474a:	d8 c9                	fmul   %st(1),%st
    4000474c:	75 1c                	jne    4000476a <fmt_fp+0x353>
    4000474e:	db ea                	fucomi %st(2),%st
    40004750:	0f 9a c2             	setp   %dl
    40004753:	0f 45 d6             	cmovne %esi,%edx
    40004756:	84 d2                	test   %dl,%dl
    40004758:	75 08                	jne    40004762 <fmt_fp+0x34b>
    4000475a:	85 db                	test   %ebx,%ebx
    4000475c:	7f 04                	jg     40004762 <fmt_fp+0x34b>
    4000475e:	85 ff                	test   %edi,%edi
    40004760:	74 08                	je     4000476a <fmt_fp+0x353>
    40004762:	4c 8d 68 02          	lea    0x2(%rax),%r13
    40004766:	c6 40 01 2e          	movb   $0x2e,0x1(%rax)
    4000476a:	db ea                	fucomi %st(2),%st
    4000476c:	7a 04                	jp     40004772 <fmt_fp+0x35b>
    4000476e:	db eb                	fucomi %st(3),%st
    40004770:	74 05                	je     40004777 <fmt_fp+0x360>
    40004772:	4c 89 e8             	mov    %r13,%rax
    40004775:	eb 9a                	jmp    40004711 <fmt_fp+0x2fa>
    40004777:	dd d8                	fstp   %st(0)
    40004779:	dd d8                	fstp   %st(0)
    4000477b:	dd d8                	fstp   %st(0)
    4000477d:	dd d8                	fstp   %st(0)
    4000477f:	48 8d 85 ff e2 ff ff 	lea    -0x1d01(%rbp),%rax
    40004786:	4d 89 e2             	mov    %r12,%r10
    40004789:	49 63 f6             	movslq %r14d,%rsi
    4000478c:	48 63 cb             	movslq %ebx,%rcx
    4000478f:	48 83 c0 0c          	add    $0xc,%rax
    40004793:	49 29 c2             	sub    %rax,%r10
    40004796:	49 8d 92 fd ff ff 7f 	lea    0x7ffffffd(%r10),%rdx
    4000479d:	48 29 f2             	sub    %rsi,%rdx
    400047a0:	48 39 d1             	cmp    %rdx,%rcx
    400047a3:	7e 08                	jle    400047ad <fmt_fp+0x396>
    400047a5:	83 c8 ff             	or     $0xffffffff,%eax
    400047a8:	e9 86 09 00 00       	jmpq   40005133 <fmt_fp+0xd1c>
    400047ad:	85 db                	test   %ebx,%ebx
    400047af:	74 1b                	je     400047cc <fmt_fp+0x3b5>
    400047b1:	4c 89 ea             	mov    %r13,%rdx
    400047b4:	4c 29 fa             	sub    %r15,%rdx
    400047b7:	48 ff ca             	dec    %rdx
    400047ba:	48 39 ca             	cmp    %rcx,%rdx
    400047bd:	7f 0d                	jg     400047cc <fmt_fp+0x3b5>
    400047bf:	48 89 c2             	mov    %rax,%rdx
    400047c2:	4c 29 e2             	sub    %r12,%rdx
    400047c5:	44 8d 5c 13 02       	lea    0x2(%rbx,%rdx,1),%r11d
    400047ca:	eb 0f                	jmp    400047db <fmt_fp+0x3c4>
    400047cc:	4d 89 eb             	mov    %r13,%r11
    400047cf:	48 89 c2             	mov    %rax,%rdx
    400047d2:	4d 29 fb             	sub    %r15,%r11
    400047d5:	4c 29 e2             	sub    %r12,%rdx
    400047d8:	41 01 d3             	add    %edx,%r11d
    400047db:	43 8d 1c 1e          	lea    (%r14,%r11,1),%ebx
    400047df:	44 8b 85 d4 e2 ff ff 	mov    -0x1d2c(%rbp),%r8d
    400047e6:	8b 95 d0 e2 ff ff    	mov    -0x1d30(%rbp),%edx
    400047ec:	48 8b bd d8 e2 ff ff 	mov    -0x1d28(%rbp),%rdi
    400047f3:	be 20 00 00 00       	mov    $0x20,%esi
    400047f8:	48 89 85 b0 e2 ff ff 	mov    %rax,-0x1d50(%rbp)
    400047ff:	89 d9                	mov    %ebx,%ecx
    40004801:	4c 89 95 a0 e2 ff ff 	mov    %r10,-0x1d60(%rbp)
    40004808:	44 89 9d c0 e2 ff ff 	mov    %r11d,-0x1d40(%rbp)
    4000480f:	e8 8d fb ff ff       	callq  400043a1 <pad>
    40004814:	49 63 d6             	movslq %r14d,%rdx
    40004817:	4c 8b b5 d8 e2 ff ff 	mov    -0x1d28(%rbp),%r14
    4000481e:	48 8b b5 a8 e2 ff ff 	mov    -0x1d58(%rbp),%rsi
    40004825:	4c 89 f7             	mov    %r14,%rdi
    40004828:	e8 e9 f9 ff ff       	callq  40004216 <out>
    4000482d:	44 8b 85 d4 e2 ff ff 	mov    -0x1d2c(%rbp),%r8d
    40004834:	8b 95 d0 e2 ff ff    	mov    -0x1d30(%rbp),%edx
    4000483a:	89 d9                	mov    %ebx,%ecx
    4000483c:	be 30 00 00 00       	mov    $0x30,%esi
    40004841:	4c 89 f7             	mov    %r14,%rdi
    40004844:	41 81 f0 00 00 01 00 	xor    $0x10000,%r8d
    4000484b:	e8 51 fb ff ff       	callq  400043a1 <pad>
    40004850:	48 8d b5 0b e3 ff ff 	lea    -0x1cf5(%rbp),%rsi
    40004857:	4c 89 ea             	mov    %r13,%rdx
    4000485a:	4c 89 f7             	mov    %r14,%rdi
    4000485d:	4c 29 fa             	sub    %r15,%rdx
    40004860:	4d 29 ef             	sub    %r13,%r15
    40004863:	e8 ae f9 ff ff       	callq  40004216 <out>
    40004868:	4c 8b 95 a0 e2 ff ff 	mov    -0x1d60(%rbp),%r10
    4000486f:	44 8b 9d c0 e2 ff ff 	mov    -0x1d40(%rbp),%r11d
    40004876:	45 31 c0             	xor    %r8d,%r8d
    40004879:	31 c9                	xor    %ecx,%ecx
    4000487b:	be 30 00 00 00       	mov    $0x30,%esi
    40004880:	4c 89 f7             	mov    %r14,%rdi
    40004883:	45 01 d7             	add    %r10d,%r15d
    40004886:	43 8d 14 1f          	lea    (%r15,%r11,1),%edx
    4000488a:	e8 12 fb ff ff       	callq  400043a1 <pad>
    4000488f:	48 8b 85 b0 e2 ff ff 	mov    -0x1d50(%rbp),%rax
    40004896:	4c 89 e6             	mov    %r12,%rsi
    40004899:	4c 89 f7             	mov    %r14,%rdi
    4000489c:	48 89 c2             	mov    %rax,%rdx
    4000489f:	4c 29 e2             	sub    %r12,%rdx
    400048a2:	e8 6f f9 ff ff       	callq  40004216 <out>
    400048a7:	44 8b bd d0 e2 ff ff 	mov    -0x1d30(%rbp),%r15d
    400048ae:	44 8b 85 d4 e2 ff ff 	mov    -0x1d2c(%rbp),%r8d
    400048b5:	89 d9                	mov    %ebx,%ecx
    400048b7:	be 20 00 00 00       	mov    $0x20,%esi
    400048bc:	4c 89 f7             	mov    %r14,%rdi
    400048bf:	41 81 f0 00 20 00 00 	xor    $0x2000,%r8d
    400048c6:	44 89 fa             	mov    %r15d,%edx
    400048c9:	e8 d3 fa ff ff       	callq  400043a1 <pad>
    400048ce:	44 39 fb             	cmp    %r15d,%ebx
    400048d1:	44 89 f8             	mov    %r15d,%eax
    400048d4:	0f 4d c3             	cmovge %ebx,%eax
    400048d7:	e9 57 08 00 00       	jmpq   40005133 <fmt_fp+0xd1c>
    400048dc:	85 db                	test   %ebx,%ebx
    400048de:	b8 06 00 00 00       	mov    $0x6,%eax
    400048e3:	0f 48 d8             	cmovs  %eax,%ebx
    400048e6:	db e9                	fucomi %st(1),%st
    400048e8:	7a 06                	jp     400048f0 <fmt_fp+0x4d9>
    400048ea:	d9 ee                	fldz   
    400048ec:	df e9                	fucomip %st(1),%st
    400048ee:	74 0d                	je     400048fd <fmt_fp+0x4e6>
    400048f0:	d8 0d 4e bf 3f 00    	fmuls  0x3fbf4e(%rip)        # 40400844 <states+0x1e4>
    400048f6:	83 ad f8 e2 ff ff 1c 	subl   $0x1c,-0x1d08(%rbp)
    400048fd:	48 8d 85 24 e3 ff ff 	lea    -0x1cdc(%rbp),%rax
    40004904:	83 bd f8 e2 ff ff 00 	cmpl   $0x0,-0x1d08(%rbp)
    4000490b:	d9 bd ee e2 ff ff    	fnstcw -0x1d12(%rbp)
    40004911:	d9 05 31 bf 3f 00    	flds   0x3fbf31(%rip)        # 40400848 <states+0x1e8>
    40004917:	48 8d b8 a8 1b 00 00 	lea    0x1ba8(%rax),%rdi
    4000491e:	d9 ee                	fldz   
    40004920:	d9 ca                	fxch   %st(2)
    40004922:	48 0f 49 c7          	cmovns %rdi,%rax
    40004926:	48 89 85 b0 e2 ff ff 	mov    %rax,-0x1d50(%rbp)
    4000492d:	49 89 c4             	mov    %rax,%r12
    40004930:	66 8b 85 ee e2 ff ff 	mov    -0x1d12(%rbp),%ax
    40004937:	80 cc 0c             	or     $0xc,%ah
    4000493a:	66 89 85 ec e2 ff ff 	mov    %ax,-0x1d14(%rbp)
    40004941:	d9 c0                	fld    %st(0)
    40004943:	d9 ad ec e2 ff ff    	fldcw  -0x1d14(%rbp)
    40004949:	df bd e0 e2 ff ff    	fistpll -0x1d20(%rbp)
    4000494f:	d9 ad ee e2 ff ff    	fldcw  -0x1d12(%rbp)
    40004955:	49 83 c4 04          	add    $0x4,%r12
    40004959:	48 8b 85 e0 e2 ff ff 	mov    -0x1d20(%rbp),%rax
    40004960:	41 89 44 24 fc       	mov    %eax,-0x4(%r12)
    40004965:	89 c0                	mov    %eax,%eax
    40004967:	48 89 85 e0 e2 ff ff 	mov    %rax,-0x1d20(%rbp)
    4000496e:	df ad e0 e2 ff ff    	fildll -0x1d20(%rbp)
    40004974:	de e9                	fsubrp %st,%st(1)
    40004976:	d8 c9                	fmul   %st(1),%st
    40004978:	db eb                	fucomi %st(3),%st
    4000497a:	7a c5                	jp     40004941 <fmt_fp+0x52a>
    4000497c:	db ea                	fucomi %st(2),%st
    4000497e:	75 c1                	jne    40004941 <fmt_fp+0x52a>
    40004980:	dd d8                	fstp   %st(0)
    40004982:	dd d8                	fstp   %st(0)
    40004984:	dd d8                	fstp   %st(0)
    40004986:	dd d8                	fstp   %st(0)
    40004988:	8b b5 f8 e2 ff ff    	mov    -0x1d08(%rbp),%esi
    4000498e:	4c 8b ad b0 e2 ff ff 	mov    -0x1d50(%rbp),%r13
    40004995:	41 b8 1d 00 00 00    	mov    $0x1d,%r8d
    4000499b:	41 bb 00 ca 9a 3b    	mov    $0x3b9aca00,%r11d
    400049a1:	85 f6                	test   %esi,%esi
    400049a3:	7e 50                	jle    400049f5 <fmt_fp+0x5de>
    400049a5:	83 fe 1d             	cmp    $0x1d,%esi
    400049a8:	44 89 c1             	mov    %r8d,%ecx
    400049ab:	49 8d 7c 24 fc       	lea    -0x4(%r12),%rdi
    400049b0:	0f 4e ce             	cmovle %esi,%ecx
    400049b3:	31 c0                	xor    %eax,%eax
    400049b5:	4c 39 ef             	cmp    %r13,%rdi
    400049b8:	72 18                	jb     400049d2 <fmt_fp+0x5bb>
    400049ba:	8b 17                	mov    (%rdi),%edx
    400049bc:	89 c0                	mov    %eax,%eax
    400049be:	48 83 ef 04          	sub    $0x4,%rdi
    400049c2:	48 d3 e2             	shl    %cl,%rdx
    400049c5:	48 01 d0             	add    %rdx,%rax
    400049c8:	31 d2                	xor    %edx,%edx
    400049ca:	49 f7 f3             	div    %r11
    400049cd:	89 57 04             	mov    %edx,0x4(%rdi)
    400049d0:	eb e3                	jmp    400049b5 <fmt_fp+0x59e>
    400049d2:	85 c0                	test   %eax,%eax
    400049d4:	74 16                	je     400049ec <fmt_fp+0x5d5>
    400049d6:	41 89 45 fc          	mov    %eax,-0x4(%r13)
    400049da:	49 83 ed 04          	sub    $0x4,%r13
    400049de:	eb 0c                	jmp    400049ec <fmt_fp+0x5d5>
    400049e0:	41 83 7c 24 fc 00    	cmpl   $0x0,-0x4(%r12)
    400049e6:	75 09                	jne    400049f1 <fmt_fp+0x5da>
    400049e8:	49 83 ec 04          	sub    $0x4,%r12
    400049ec:	4d 39 ec             	cmp    %r13,%r12
    400049ef:	77 ef                	ja     400049e0 <fmt_fp+0x5c9>
    400049f1:	29 ce                	sub    %ecx,%esi
    400049f3:	eb ac                	jmp    400049a1 <fmt_fp+0x58a>
    400049f5:	8d 43 1d             	lea    0x1d(%rbx),%eax
    400049f8:	b9 09 00 00 00       	mov    $0x9,%ecx
    400049fd:	31 d2                	xor    %edx,%edx
    400049ff:	89 b5 f8 e2 ff ff    	mov    %esi,-0x1d08(%rbp)
    40004a05:	41 bf 00 ca 9a 3b    	mov    $0x3b9aca00,%r15d
    40004a0b:	f7 f1                	div    %ecx
    40004a0d:	89 f2                	mov    %esi,%edx
    40004a0f:	44 8d 70 01          	lea    0x1(%rax),%r14d
    40004a13:	4e 8d 0c b5 00 00 00 	lea    0x0(,%r14,4),%r9
    40004a1a:	00 
    40004a1b:	85 d2                	test   %edx,%edx
    40004a1d:	0f 89 93 00 00 00    	jns    40004ab6 <fmt_fp+0x69f>
    40004a23:	89 d1                	mov    %edx,%ecx
    40004a25:	b8 09 00 00 00       	mov    $0x9,%eax
    40004a2a:	41 b8 01 00 00 00    	mov    $0x1,%r8d
    40004a30:	f7 d9                	neg    %ecx
    40004a32:	4c 89 ee             	mov    %r13,%rsi
    40004a35:	83 f9 09             	cmp    $0x9,%ecx
    40004a38:	0f 4f c8             	cmovg  %eax,%ecx
    40004a3b:	44 89 f8             	mov    %r15d,%eax
    40004a3e:	d3 f8                	sar    %cl,%eax
    40004a40:	41 d3 e0             	shl    %cl,%r8d
    40004a43:	89 85 8c e2 ff ff    	mov    %eax,-0x1d74(%rbp)
    40004a49:	41 ff c8             	dec    %r8d
    40004a4c:	31 c0                	xor    %eax,%eax
    40004a4e:	4c 39 e6             	cmp    %r12,%rsi
    40004a51:	73 20                	jae    40004a73 <fmt_fp+0x65c>
    40004a53:	8b 3e                	mov    (%rsi),%edi
    40004a55:	48 83 c6 04          	add    $0x4,%rsi
    40004a59:	41 89 fb             	mov    %edi,%r11d
    40004a5c:	41 d3 eb             	shr    %cl,%r11d
    40004a5f:	44 01 d8             	add    %r11d,%eax
    40004a62:	89 46 fc             	mov    %eax,-0x4(%rsi)
    40004a65:	89 f8                	mov    %edi,%eax
    40004a67:	44 21 c0             	and    %r8d,%eax
    40004a6a:	0f af 85 8c e2 ff ff 	imul   -0x1d74(%rbp),%eax
    40004a71:	eb db                	jmp    40004a4e <fmt_fp+0x637>
    40004a73:	41 83 7d 00 00       	cmpl   $0x0,0x0(%r13)
    40004a78:	49 8d 75 04          	lea    0x4(%r13),%rsi
    40004a7c:	4c 0f 44 ee          	cmove  %rsi,%r13
    40004a80:	85 c0                	test   %eax,%eax
    40004a82:	74 08                	je     40004a8c <fmt_fp+0x675>
    40004a84:	41 89 04 24          	mov    %eax,(%r12)
    40004a88:	49 83 c4 04          	add    $0x4,%r12
    40004a8c:	48 8b b5 b0 e2 ff ff 	mov    -0x1d50(%rbp),%rsi
    40004a93:	41 83 fa 66          	cmp    $0x66,%r10d
    40004a97:	4c 89 e0             	mov    %r12,%rax
    40004a9a:	49 0f 45 f5          	cmovne %r13,%rsi
    40004a9e:	48 29 f0             	sub    %rsi,%rax
    40004aa1:	4c 01 ce             	add    %r9,%rsi
    40004aa4:	48 c1 f8 02          	sar    $0x2,%rax
    40004aa8:	4c 39 f0             	cmp    %r14,%rax
    40004aab:	4c 0f 4f e6          	cmovg  %rsi,%r12
    40004aaf:	01 ca                	add    %ecx,%edx
    40004ab1:	e9 65 ff ff ff       	jmpq   40004a1b <fmt_fp+0x604>
    40004ab6:	45 31 ff             	xor    %r15d,%r15d
    40004ab9:	4d 39 e5             	cmp    %r12,%r13
    40004abc:	89 95 f8 e2 ff ff    	mov    %edx,-0x1d08(%rbp)
    40004ac2:	73 27                	jae    40004aeb <fmt_fp+0x6d4>
    40004ac4:	4c 8b bd b0 e2 ff ff 	mov    -0x1d50(%rbp),%r15
    40004acb:	41 8b 55 00          	mov    0x0(%r13),%edx
    40004acf:	b8 0a 00 00 00       	mov    $0xa,%eax
    40004ad4:	4d 29 ef             	sub    %r13,%r15
    40004ad7:	49 c1 ff 02          	sar    $0x2,%r15
    40004adb:	47 8d 3c ff          	lea    (%r15,%r15,8),%r15d
    40004adf:	39 c2                	cmp    %eax,%edx
    40004ae1:	72 08                	jb     40004aeb <fmt_fp+0x6d4>
    40004ae3:	6b c0 0a             	imul   $0xa,%eax,%eax
    40004ae6:	41 ff c7             	inc    %r15d
    40004ae9:	eb f4                	jmp    40004adf <fmt_fp+0x6c8>
    40004aeb:	31 c0                	xor    %eax,%eax
    40004aed:	41 83 fa 66          	cmp    $0x66,%r10d
    40004af1:	89 de                	mov    %ebx,%esi
    40004af3:	0f 95 c0             	setne  %al
    40004af6:	31 c9                	xor    %ecx,%ecx
    40004af8:	41 0f af c7          	imul   %r15d,%eax
    40004afc:	29 c6                	sub    %eax,%esi
    40004afe:	41 83 fa 67          	cmp    $0x67,%r10d
    40004b02:	89 f0                	mov    %esi,%eax
    40004b04:	75 07                	jne    40004b0d <fmt_fp+0x6f6>
    40004b06:	31 c9                	xor    %ecx,%ecx
    40004b08:	85 db                	test   %ebx,%ebx
    40004b0a:	0f 95 c1             	setne  %cl
    40004b0d:	29 c8                	sub    %ecx,%eax
    40004b0f:	4c 89 e1             	mov    %r12,%rcx
    40004b12:	48 2b 8d b0 e2 ff ff 	sub    -0x1d50(%rbp),%rcx
    40004b19:	48 63 d0             	movslq %eax,%rdx
    40004b1c:	48 c1 f9 02          	sar    $0x2,%rcx
    40004b20:	48 ff c9             	dec    %rcx
    40004b23:	48 8d 0c c9          	lea    (%rcx,%rcx,8),%rcx
    40004b27:	48 39 ca             	cmp    %rcx,%rdx
    40004b2a:	0f 8d 3a 01 00 00    	jge    40004c6a <fmt_fp+0x853>
    40004b30:	05 00 40 02 00       	add    $0x24000,%eax
    40004b35:	b9 09 00 00 00       	mov    $0x9,%ecx
    40004b3a:	be 0a 00 00 00       	mov    $0xa,%esi
    40004b3f:	99                   	cltd   
    40004b40:	f7 f9                	idiv   %ecx
    40004b42:	48 8b 8d b0 e2 ff ff 	mov    -0x1d50(%rbp),%rcx
    40004b49:	48 98                	cltq   
    40004b4b:	ff c2                	inc    %edx
    40004b4d:	48 8d 8c 81 04 00 ff 	lea    -0xfffc(%rcx,%rax,4),%rcx
    40004b54:	ff 
    40004b55:	83 fa 09             	cmp    $0x9,%edx
    40004b58:	74 07                	je     40004b61 <fmt_fp+0x74a>
    40004b5a:	6b f6 0a             	imul   $0xa,%esi,%esi
    40004b5d:	ff c2                	inc    %edx
    40004b5f:	eb f4                	jmp    40004b55 <fmt_fp+0x73e>
    40004b61:	8b 39                	mov    (%rcx),%edi
    40004b63:	31 d2                	xor    %edx,%edx
    40004b65:	89 f8                	mov    %edi,%eax
    40004b67:	f7 f6                	div    %esi
    40004b69:	85 d2                	test   %edx,%edx
    40004b6b:	41 89 d0             	mov    %edx,%r8d
    40004b6e:	75 0d                	jne    40004b7d <fmt_fp+0x766>
    40004b70:	48 8d 41 04          	lea    0x4(%rcx),%rax
    40004b74:	49 39 c4             	cmp    %rax,%r12
    40004b77:	0f 84 d4 00 00 00    	je     40004c51 <fmt_fp+0x83a>
    40004b7d:	31 d2                	xor    %edx,%edx
    40004b7f:	89 f8                	mov    %edi,%eax
    40004b81:	f7 f6                	div    %esi
    40004b83:	a8 01                	test   $0x1,%al
    40004b85:	75 1b                	jne    40004ba2 <fmt_fp+0x78b>
    40004b87:	81 fe 00 ca 9a 3b    	cmp    $0x3b9aca00,%esi
    40004b8d:	75 0b                	jne    40004b9a <fmt_fp+0x783>
    40004b8f:	4c 39 e9             	cmp    %r13,%rcx
    40004b92:	76 06                	jbe    40004b9a <fmt_fp+0x783>
    40004b94:	f6 41 fc 01          	testb  $0x1,-0x4(%rcx)
    40004b98:	75 08                	jne    40004ba2 <fmt_fp+0x78b>
    40004b9a:	d9 05 94 bc 3f 00    	flds   0x3fbc94(%rip)        # 40400834 <states+0x1d4>
    40004ba0:	eb 06                	jmp    40004ba8 <fmt_fp+0x791>
    40004ba2:	db 2d a8 bc 3f 00    	fldt   0x3fbca8(%rip)        # 40400850 <states+0x1f0>
    40004ba8:	89 f0                	mov    %esi,%eax
    40004baa:	d1 f8                	sar    %eax
    40004bac:	41 39 c0             	cmp    %eax,%r8d
    40004baf:	72 0f                	jb     40004bc0 <fmt_fp+0x7a9>
    40004bb1:	75 17                	jne    40004bca <fmt_fp+0x7b3>
    40004bb3:	48 8d 41 04          	lea    0x4(%rcx),%rax
    40004bb7:	49 39 c4             	cmp    %rax,%r12
    40004bba:	d9 e8                	fld1   
    40004bbc:	75 0a                	jne    40004bc8 <fmt_fp+0x7b1>
    40004bbe:	eb 10                	jmp    40004bd0 <fmt_fp+0x7b9>
    40004bc0:	d9 05 72 bc 3f 00    	flds   0x3fbc72(%rip)        # 40400838 <states+0x1d8>
    40004bc6:	eb 08                	jmp    40004bd0 <fmt_fp+0x7b9>
    40004bc8:	dd d8                	fstp   %st(0)
    40004bca:	d9 05 6c bc 3f 00    	flds   0x3fbc6c(%rip)        # 4040083c <states+0x1dc>
    40004bd0:	83 bd c0 e2 ff ff 00 	cmpl   $0x0,-0x1d40(%rbp)
    40004bd7:	74 14                	je     40004bed <fmt_fp+0x7d6>
    40004bd9:	48 8b 85 a8 e2 ff ff 	mov    -0x1d58(%rbp),%rax
    40004be0:	80 38 2d             	cmpb   $0x2d,(%rax)
    40004be3:	75 08                	jne    40004bed <fmt_fp+0x7d6>
    40004be5:	d9 c9                	fxch   %st(1)
    40004be7:	d9 e0                	fchs   
    40004be9:	d9 c9                	fxch   %st(1)
    40004beb:	d9 e0                	fchs   
    40004bed:	d8 c1                	fadd   %st(1),%st
    40004bef:	44 29 c7             	sub    %r8d,%edi
    40004bf2:	df e9                	fucomip %st(1),%st
    40004bf4:	dd d8                	fstp   %st(0)
    40004bf6:	7a 06                	jp     40004bfe <fmt_fp+0x7e7>
    40004bf8:	75 04                	jne    40004bfe <fmt_fp+0x7e7>
    40004bfa:	89 39                	mov    %edi,(%rcx)
    40004bfc:	eb 53                	jmp    40004c51 <fmt_fp+0x83a>
    40004bfe:	01 f7                	add    %esi,%edi
    40004c00:	89 39                	mov    %edi,(%rcx)
    40004c02:	81 39 ff c9 9a 3b    	cmpl   $0x3b9ac9ff,(%rcx)
    40004c08:	76 20                	jbe    40004c2a <fmt_fp+0x813>
    40004c0a:	48 83 e9 04          	sub    $0x4,%rcx
    40004c0e:	c7 41 04 00 00 00 00 	movl   $0x0,0x4(%rcx)
    40004c15:	4c 39 e9             	cmp    %r13,%rcx
    40004c18:	73 0c                	jae    40004c26 <fmt_fp+0x80f>
    40004c1a:	41 c7 45 fc 00 00 00 	movl   $0x0,-0x4(%r13)
    40004c21:	00 
    40004c22:	49 83 ed 04          	sub    $0x4,%r13
    40004c26:	ff 01                	incl   (%rcx)
    40004c28:	eb d8                	jmp    40004c02 <fmt_fp+0x7eb>
    40004c2a:	4c 8b bd b0 e2 ff ff 	mov    -0x1d50(%rbp),%r15
    40004c31:	41 8b 55 00          	mov    0x0(%r13),%edx
    40004c35:	b8 0a 00 00 00       	mov    $0xa,%eax
    40004c3a:	4d 29 ef             	sub    %r13,%r15
    40004c3d:	49 c1 ff 02          	sar    $0x2,%r15
    40004c41:	47 8d 3c ff          	lea    (%r15,%r15,8),%r15d
    40004c45:	39 c2                	cmp    %eax,%edx
    40004c47:	72 08                	jb     40004c51 <fmt_fp+0x83a>
    40004c49:	6b c0 0a             	imul   $0xa,%eax,%eax
    40004c4c:	41 ff c7             	inc    %r15d
    40004c4f:	eb f4                	jmp    40004c45 <fmt_fp+0x82e>
    40004c51:	48 83 c1 04          	add    $0x4,%rcx
    40004c55:	4c 39 e1             	cmp    %r12,%rcx
    40004c58:	4c 0f 46 e1          	cmovbe %rcx,%r12
    40004c5c:	eb 0c                	jmp    40004c6a <fmt_fp+0x853>
    40004c5e:	41 83 7c 24 fc 00    	cmpl   $0x0,-0x4(%r12)
    40004c64:	75 09                	jne    40004c6f <fmt_fp+0x858>
    40004c66:	49 83 ec 04          	sub    $0x4,%r12
    40004c6a:	4d 39 ec             	cmp    %r13,%r12
    40004c6d:	77 ef                	ja     40004c5e <fmt_fp+0x847>
    40004c6f:	41 83 fa 67          	cmp    $0x67,%r10d
    40004c73:	0f 85 bb 00 00 00    	jne    40004d34 <fmt_fp+0x91d>
    40004c79:	85 db                	test   %ebx,%ebx
    40004c7b:	b8 01 00 00 00       	mov    $0x1,%eax
    40004c80:	0f 44 d8             	cmove  %eax,%ebx
    40004c83:	44 39 fb             	cmp    %r15d,%ebx
    40004c86:	7e 15                	jle    40004c9d <fmt_fp+0x886>
    40004c88:	41 83 ff fc          	cmp    $0xfffffffc,%r15d
    40004c8c:	7c 0f                	jl     40004c9d <fmt_fp+0x886>
    40004c8e:	44 89 f8             	mov    %r15d,%eax
    40004c91:	ff 8d a0 e2 ff ff    	decl   -0x1d60(%rbp)
    40004c97:	f7 d0                	not    %eax
    40004c99:	01 c3                	add    %eax,%ebx
    40004c9b:	eb 09                	jmp    40004ca6 <fmt_fp+0x88f>
    40004c9d:	83 ad a0 e2 ff ff 02 	subl   $0x2,-0x1d60(%rbp)
    40004ca4:	ff cb                	dec    %ebx
    40004ca6:	f6 85 d4 e2 ff ff 08 	testb  $0x8,-0x1d2c(%rbp)
    40004cad:	0f 85 81 00 00 00    	jne    40004d34 <fmt_fp+0x91d>
    40004cb3:	4d 39 ec             	cmp    %r13,%r12
    40004cb6:	b9 09 00 00 00       	mov    $0x9,%ecx
    40004cbb:	76 21                	jbe    40004cde <fmt_fp+0x8c7>
    40004cbd:	41 8b 7c 24 fc       	mov    -0x4(%r12),%edi
    40004cc2:	85 ff                	test   %edi,%edi
    40004cc4:	74 18                	je     40004cde <fmt_fp+0x8c7>
    40004cc6:	30 c9                	xor    %cl,%cl
    40004cc8:	be 0a 00 00 00       	mov    $0xa,%esi
    40004ccd:	31 d2                	xor    %edx,%edx
    40004ccf:	89 f8                	mov    %edi,%eax
    40004cd1:	f7 f6                	div    %esi
    40004cd3:	85 d2                	test   %edx,%edx
    40004cd5:	75 07                	jne    40004cde <fmt_fp+0x8c7>
    40004cd7:	6b f6 0a             	imul   $0xa,%esi,%esi
    40004cda:	ff c1                	inc    %ecx
    40004cdc:	eb ef                	jmp    40004ccd <fmt_fp+0x8b6>
    40004cde:	8b 85 a0 e2 ff ff    	mov    -0x1d60(%rbp),%eax
    40004ce4:	48 63 c9             	movslq %ecx,%rcx
    40004ce7:	83 c8 20             	or     $0x20,%eax
    40004cea:	83 f8 66             	cmp    $0x66,%eax
    40004ced:	48 63 c3             	movslq %ebx,%rax
    40004cf0:	4c 89 e3             	mov    %r12,%rbx
    40004cf3:	75 14                	jne    40004d09 <fmt_fp+0x8f2>
    40004cf5:	48 2b 9d b0 e2 ff ff 	sub    -0x1d50(%rbp),%rbx
    40004cfc:	48 c1 fb 02          	sar    $0x2,%rbx
    40004d00:	48 ff cb             	dec    %rbx
    40004d03:	48 8d 1c db          	lea    (%rbx,%rbx,8),%rbx
    40004d07:	eb 18                	jmp    40004d21 <fmt_fp+0x90a>
    40004d09:	48 2b 9d b0 e2 ff ff 	sub    -0x1d50(%rbp),%rbx
    40004d10:	49 63 d7             	movslq %r15d,%rdx
    40004d13:	48 c1 fb 02          	sar    $0x2,%rbx
    40004d17:	48 ff cb             	dec    %rbx
    40004d1a:	48 8d 1c db          	lea    (%rbx,%rbx,8),%rbx
    40004d1e:	48 01 d3             	add    %rdx,%rbx
    40004d21:	48 29 cb             	sub    %rcx,%rbx
    40004d24:	ba 00 00 00 00       	mov    $0x0,%edx
    40004d29:	48 0f 48 da          	cmovs  %rdx,%rbx
    40004d2d:	48 39 c3             	cmp    %rax,%rbx
    40004d30:	48 0f 4f d8          	cmovg  %rax,%rbx
    40004d34:	85 db                	test   %ebx,%ebx
    40004d36:	b8 01 00 00 00       	mov    $0x1,%eax
    40004d3b:	75 0c                	jne    40004d49 <fmt_fp+0x932>
    40004d3d:	8b 85 d4 e2 ff ff    	mov    -0x1d2c(%rbp),%eax
    40004d43:	c1 e8 03             	shr    $0x3,%eax
    40004d46:	83 e0 01             	and    $0x1,%eax
    40004d49:	ba fe ff ff 7f       	mov    $0x7ffffffe,%edx
    40004d4e:	29 c2                	sub    %eax,%edx
    40004d50:	39 d3                	cmp    %edx,%ebx
    40004d52:	0f 8f 4d fa ff ff    	jg     400047a5 <fmt_fp+0x38e>
    40004d58:	85 db                	test   %ebx,%ebx
    40004d5a:	44 8d 73 01          	lea    0x1(%rbx),%r14d
    40004d5e:	b8 01 00 00 00       	mov    $0x1,%eax
    40004d63:	75 0c                	jne    40004d71 <fmt_fp+0x95a>
    40004d65:	8b 85 d4 e2 ff ff    	mov    -0x1d2c(%rbp),%eax
    40004d6b:	c1 e8 03             	shr    $0x3,%eax
    40004d6e:	83 e0 01             	and    $0x1,%eax
    40004d71:	41 01 c6             	add    %eax,%r14d
    40004d74:	8b 85 a0 e2 ff ff    	mov    -0x1d60(%rbp),%eax
    40004d7a:	83 c8 20             	or     $0x20,%eax
    40004d7d:	83 f8 66             	cmp    $0x66,%eax
    40004d80:	89 85 8c e2 ff ff    	mov    %eax,-0x1d74(%rbp)
    40004d86:	75 1e                	jne    40004da6 <fmt_fp+0x98f>
    40004d88:	b8 ff ff ff 7f       	mov    $0x7fffffff,%eax
    40004d8d:	44 29 f0             	sub    %r14d,%eax
    40004d90:	41 39 c7             	cmp    %eax,%r15d
    40004d93:	0f 8f 0c fa ff ff    	jg     400047a5 <fmt_fp+0x38e>
    40004d99:	43 8d 04 3e          	lea    (%r14,%r15,1),%eax
    40004d9d:	45 85 ff             	test   %r15d,%r15d
    40004da0:	44 0f 4f f0          	cmovg  %eax,%r14d
    40004da4:	eb 73                	jmp    40004e19 <fmt_fp+0xa02>
    40004da6:	44 89 f8             	mov    %r15d,%eax
    40004da9:	48 8d b5 0b e3 ff ff 	lea    -0x1cf5(%rbp),%rsi
    40004db0:	c1 f8 1f             	sar    $0x1f,%eax
    40004db3:	89 c7                	mov    %eax,%edi
    40004db5:	44 31 ff             	xor    %r15d,%edi
    40004db8:	29 c7                	sub    %eax,%edi
    40004dba:	48 63 ff             	movslq %edi,%rdi
    40004dbd:	e8 fa f3 ff ff       	callq  400041bc <fmt_u>
    40004dc2:	48 8d 95 0b e3 ff ff 	lea    -0x1cf5(%rbp),%rdx
    40004dc9:	48 89 d1             	mov    %rdx,%rcx
    40004dcc:	48 29 c1             	sub    %rax,%rcx
    40004dcf:	48 ff c9             	dec    %rcx
    40004dd2:	7f 08                	jg     40004ddc <fmt_fp+0x9c5>
    40004dd4:	48 ff c8             	dec    %rax
    40004dd7:	c6 00 30             	movb   $0x30,(%rax)
    40004dda:	eb ed                	jmp    40004dc9 <fmt_fp+0x9b2>
    40004ddc:	41 c1 ff 1f          	sar    $0x1f,%r15d
    40004de0:	8a 8d a0 e2 ff ff    	mov    -0x1d60(%rbp),%cl
    40004de6:	48 8d 70 fe          	lea    -0x2(%rax),%rsi
    40004dea:	41 83 e7 02          	and    $0x2,%r15d
    40004dee:	41 83 c7 2b          	add    $0x2b,%r15d
    40004df2:	48 29 f2             	sub    %rsi,%rdx
    40004df5:	48 89 b5 90 e2 ff ff 	mov    %rsi,-0x1d70(%rbp)
    40004dfc:	44 88 78 ff          	mov    %r15b,-0x1(%rax)
    40004e00:	88 48 fe             	mov    %cl,-0x2(%rax)
    40004e03:	b8 ff ff ff 7f       	mov    $0x7fffffff,%eax
    40004e08:	44 29 f0             	sub    %r14d,%eax
    40004e0b:	48 98                	cltq   
    40004e0d:	48 39 c2             	cmp    %rax,%rdx
    40004e10:	0f 8f 8f f9 ff ff    	jg     400047a5 <fmt_fp+0x38e>
    40004e16:	41 01 d6             	add    %edx,%r14d
    40004e19:	8b b5 c0 e2 ff ff    	mov    -0x1d40(%rbp),%esi
    40004e1f:	b8 ff ff ff 7f       	mov    $0x7fffffff,%eax
    40004e24:	29 f0                	sub    %esi,%eax
    40004e26:	41 39 c6             	cmp    %eax,%r14d
    40004e29:	0f 8f 76 f9 ff ff    	jg     400047a5 <fmt_fp+0x38e>
    40004e2f:	44 8b bd d4 e2 ff ff 	mov    -0x1d2c(%rbp),%r15d
    40004e36:	8b 95 d0 e2 ff ff    	mov    -0x1d30(%rbp),%edx
    40004e3c:	41 01 f6             	add    %esi,%r14d
    40004e3f:	48 8b bd d8 e2 ff ff 	mov    -0x1d28(%rbp),%rdi
    40004e46:	44 89 f1             	mov    %r14d,%ecx
    40004e49:	be 20 00 00 00       	mov    $0x20,%esi
    40004e4e:	44 89 b5 a0 e2 ff ff 	mov    %r14d,-0x1d60(%rbp)
    40004e55:	45 89 f8             	mov    %r15d,%r8d
    40004e58:	e8 44 f5 ff ff       	callq  400043a1 <pad>
    40004e5d:	48 63 95 c0 e2 ff ff 	movslq -0x1d40(%rbp),%rdx
    40004e64:	48 8b b5 a8 e2 ff ff 	mov    -0x1d58(%rbp),%rsi
    40004e6b:	48 8b bd d8 e2 ff ff 	mov    -0x1d28(%rbp),%rdi
    40004e72:	e8 9f f3 ff ff       	callq  40004216 <out>
    40004e77:	8b 95 d0 e2 ff ff    	mov    -0x1d30(%rbp),%edx
    40004e7d:	48 8b bd d8 e2 ff ff 	mov    -0x1d28(%rbp),%rdi
    40004e84:	45 89 f8             	mov    %r15d,%r8d
    40004e87:	41 81 f0 00 00 01 00 	xor    $0x10000,%r8d
    40004e8e:	44 89 f1             	mov    %r14d,%ecx
    40004e91:	be 30 00 00 00       	mov    $0x30,%esi
    40004e96:	e8 06 f5 ff ff       	callq  400043a1 <pad>
    40004e9b:	83 bd 8c e2 ff ff 66 	cmpl   $0x66,-0x1d74(%rbp)
    40004ea2:	0f 85 14 01 00 00    	jne    40004fbc <fmt_fp+0xba5>
    40004ea8:	48 8b 85 b0 e2 ff ff 	mov    -0x1d50(%rbp),%rax
    40004eaf:	4d 89 ef             	mov    %r13,%r15
    40004eb2:	4c 8d b5 0b e3 ff ff 	lea    -0x1cf5(%rbp),%r14
    40004eb9:	49 39 c5             	cmp    %rax,%r13
    40004ebc:	4c 0f 47 f8          	cmova  %rax,%r15
    40004ec0:	4d 89 fd             	mov    %r15,%r13
    40004ec3:	4c 3b ad b0 e2 ff ff 	cmp    -0x1d50(%rbp),%r13
    40004eca:	77 5c                	ja     40004f28 <fmt_fp+0xb11>
    40004ecc:	41 8b 7d 00          	mov    0x0(%r13),%edi
    40004ed0:	49 8d 56 09          	lea    0x9(%r14),%rdx
    40004ed4:	48 89 d6             	mov    %rdx,%rsi
    40004ed7:	48 89 95 c0 e2 ff ff 	mov    %rdx,-0x1d40(%rbp)
    40004ede:	e8 d9 f2 ff ff       	callq  400041bc <fmt_u>
    40004ee3:	4d 39 fd             	cmp    %r15,%r13
    40004ee6:	48 8b 95 c0 e2 ff ff 	mov    -0x1d40(%rbp),%rdx
    40004eed:	74 0d                	je     40004efc <fmt_fp+0xae5>
    40004eef:	4c 39 f0             	cmp    %r14,%rax
    40004ef2:	76 18                	jbe    40004f0c <fmt_fp+0xaf5>
    40004ef4:	48 ff c8             	dec    %rax
    40004ef7:	c6 00 30             	movb   $0x30,(%rax)
    40004efa:	eb f3                	jmp    40004eef <fmt_fp+0xad8>
    40004efc:	48 39 d0             	cmp    %rdx,%rax
    40004eff:	75 0b                	jne    40004f0c <fmt_fp+0xaf5>
    40004f01:	49 8d 46 08          	lea    0x8(%r14),%rax
    40004f05:	c6 85 13 e3 ff ff 30 	movb   $0x30,-0x1ced(%rbp)
    40004f0c:	49 8d 56 09          	lea    0x9(%r14),%rdx
    40004f10:	48 8b bd d8 e2 ff ff 	mov    -0x1d28(%rbp),%rdi
    40004f17:	48 89 c6             	mov    %rax,%rsi
    40004f1a:	49 83 c5 04          	add    $0x4,%r13
    40004f1e:	48 29 c2             	sub    %rax,%rdx
    40004f21:	e8 f0 f2 ff ff       	callq  40004216 <out>
    40004f26:	eb 9b                	jmp    40004ec3 <fmt_fp+0xaac>
    40004f28:	85 db                	test   %ebx,%ebx
    40004f2a:	75 09                	jne    40004f35 <fmt_fp+0xb1e>
    40004f2c:	f6 85 d4 e2 ff ff 08 	testb  $0x8,-0x1d2c(%rbp)
    40004f33:	74 16                	je     40004f4b <fmt_fp+0xb34>
    40004f35:	48 8b bd d8 e2 ff ff 	mov    -0x1d28(%rbp),%rdi
    40004f3c:	ba 01 00 00 00       	mov    $0x1,%edx
    40004f41:	be 33 04 40 40       	mov    $0x40400433,%esi
    40004f46:	e8 cb f2 ff ff       	callq  40004216 <out>
    40004f4b:	4c 8d bd 0b e3 ff ff 	lea    -0x1cf5(%rbp),%r15
    40004f52:	85 db                	test   %ebx,%ebx
    40004f54:	7e 45                	jle    40004f9b <fmt_fp+0xb84>
    40004f56:	4d 39 e5             	cmp    %r12,%r13
    40004f59:	73 40                	jae    40004f9b <fmt_fp+0xb84>
    40004f5b:	41 8b 7d 00          	mov    0x0(%r13),%edi
    40004f5f:	49 8d 77 09          	lea    0x9(%r15),%rsi
    40004f63:	e8 54 f2 ff ff       	callq  400041bc <fmt_u>
    40004f68:	4c 39 f8             	cmp    %r15,%rax
    40004f6b:	76 08                	jbe    40004f75 <fmt_fp+0xb5e>
    40004f6d:	48 ff c8             	dec    %rax
    40004f70:	c6 00 30             	movb   $0x30,(%rax)
    40004f73:	eb f3                	jmp    40004f68 <fmt_fp+0xb51>
    40004f75:	83 fb 09             	cmp    $0x9,%ebx
    40004f78:	ba 09 00 00 00       	mov    $0x9,%edx
    40004f7d:	48 8b bd d8 e2 ff ff 	mov    -0x1d28(%rbp),%rdi
    40004f84:	0f 4e d3             	cmovle %ebx,%edx
    40004f87:	48 89 c6             	mov    %rax,%rsi
    40004f8a:	49 83 c5 04          	add    $0x4,%r13
    40004f8e:	48 63 d2             	movslq %edx,%rdx
    40004f91:	83 eb 09             	sub    $0x9,%ebx
    40004f94:	e8 7d f2 ff ff       	callq  40004216 <out>
    40004f99:	eb b7                	jmp    40004f52 <fmt_fp+0xb3b>
    40004f9b:	48 8b bd d8 e2 ff ff 	mov    -0x1d28(%rbp),%rdi
    40004fa2:	8d 53 09             	lea    0x9(%rbx),%edx
    40004fa5:	45 31 c0             	xor    %r8d,%r8d
    40004fa8:	b9 09 00 00 00       	mov    $0x9,%ecx
    40004fad:	be 30 00 00 00       	mov    $0x30,%esi
    40004fb2:	e8 ea f3 ff ff       	callq  400043a1 <pad>
    40004fb7:	e9 29 01 00 00       	jmpq   400050e5 <fmt_fp+0xcce>
    40004fbc:	49 8d 45 04          	lea    0x4(%r13),%rax
    40004fc0:	4d 39 ec             	cmp    %r13,%r12
    40004fc3:	4c 8d bd 0b e3 ff ff 	lea    -0x1cf5(%rbp),%r15
    40004fca:	4c 89 ad c0 e2 ff ff 	mov    %r13,-0x1d40(%rbp)
    40004fd1:	4c 0f 46 e0          	cmovbe %rax,%r12
    40004fd5:	89 d8                	mov    %ebx,%eax
    40004fd7:	83 e8 00             	sub    $0x0,%eax
    40004fda:	0f 88 cd 00 00 00    	js     400050ad <fmt_fp+0xc96>
    40004fe0:	4c 39 a5 c0 e2 ff ff 	cmp    %r12,-0x1d40(%rbp)
    40004fe7:	0f 83 c0 00 00 00    	jae    400050ad <fmt_fp+0xc96>
    40004fed:	48 8b 85 c0 e2 ff ff 	mov    -0x1d40(%rbp),%rax
    40004ff4:	4d 8d 77 09          	lea    0x9(%r15),%r14
    40004ff8:	4c 89 f6             	mov    %r14,%rsi
    40004ffb:	8b 38                	mov    (%rax),%edi
    40004ffd:	e8 ba f1 ff ff       	callq  400041bc <fmt_u>
    40005002:	4c 39 f0             	cmp    %r14,%rax
    40005005:	75 0b                	jne    40005012 <fmt_fp+0xbfb>
    40005007:	49 8d 47 08          	lea    0x8(%r15),%rax
    4000500b:	c6 85 13 e3 ff ff 30 	movb   $0x30,-0x1ced(%rbp)
    40005012:	4c 39 ad c0 e2 ff ff 	cmp    %r13,-0x1d40(%rbp)
    40005019:	74 11                	je     4000502c <fmt_fp+0xc15>
    4000501b:	49 89 c6             	mov    %rax,%r14
    4000501e:	4d 39 fe             	cmp    %r15,%r14
    40005021:	76 44                	jbe    40005067 <fmt_fp+0xc50>
    40005023:	49 ff ce             	dec    %r14
    40005026:	41 c6 06 30          	movb   $0x30,(%r14)
    4000502a:	eb f2                	jmp    4000501e <fmt_fp+0xc07>
    4000502c:	48 8b bd d8 e2 ff ff 	mov    -0x1d28(%rbp),%rdi
    40005033:	ba 01 00 00 00       	mov    $0x1,%edx
    40005038:	48 89 c6             	mov    %rax,%rsi
    4000503b:	4c 8d 70 01          	lea    0x1(%rax),%r14
    4000503f:	e8 d2 f1 ff ff       	callq  40004216 <out>
    40005044:	85 db                	test   %ebx,%ebx
    40005046:	75 09                	jne    40005051 <fmt_fp+0xc3a>
    40005048:	f6 85 d4 e2 ff ff 08 	testb  $0x8,-0x1d2c(%rbp)
    4000504f:	74 16                	je     40005067 <fmt_fp+0xc50>
    40005051:	48 8b bd d8 e2 ff ff 	mov    -0x1d28(%rbp),%rdi
    40005058:	ba 01 00 00 00       	mov    $0x1,%edx
    4000505d:	be 33 04 40 40       	mov    $0x40400433,%esi
    40005062:	e8 af f1 ff ff       	callq  40004216 <out>
    40005067:	49 8d 47 09          	lea    0x9(%r15),%rax
    4000506b:	48 63 d3             	movslq %ebx,%rdx
    4000506e:	48 8b bd d8 e2 ff ff 	mov    -0x1d28(%rbp),%rdi
    40005075:	48 89 c6             	mov    %rax,%rsi
    40005078:	48 89 85 b0 e2 ff ff 	mov    %rax,-0x1d50(%rbp)
    4000507f:	4c 29 f6             	sub    %r14,%rsi
    40005082:	48 39 d6             	cmp    %rdx,%rsi
    40005085:	48 0f 4e d6          	cmovle %rsi,%rdx
    40005089:	4c 89 f6             	mov    %r14,%rsi
    4000508c:	e8 85 f1 ff ff       	callq  40004216 <out>
    40005091:	48 8b 85 b0 e2 ff ff 	mov    -0x1d50(%rbp),%rax
    40005098:	4c 89 f1             	mov    %r14,%rcx
    4000509b:	48 83 85 c0 e2 ff ff 	addq   $0x4,-0x1d40(%rbp)
    400050a2:	04 
    400050a3:	48 29 c1             	sub    %rax,%rcx
    400050a6:	01 cb                	add    %ecx,%ebx
    400050a8:	e9 28 ff ff ff       	jmpq   40004fd5 <fmt_fp+0xbbe>
    400050ad:	8d 53 12             	lea    0x12(%rbx),%edx
    400050b0:	48 8b 9d d8 e2 ff ff 	mov    -0x1d28(%rbp),%rbx
    400050b7:	be 30 00 00 00       	mov    $0x30,%esi
    400050bc:	45 31 c0             	xor    %r8d,%r8d
    400050bf:	b9 12 00 00 00       	mov    $0x12,%ecx
    400050c4:	48 89 df             	mov    %rbx,%rdi
    400050c7:	e8 d5 f2 ff ff       	callq  400043a1 <pad>
    400050cc:	48 8b b5 90 e2 ff ff 	mov    -0x1d70(%rbp),%rsi
    400050d3:	48 8d 95 0b e3 ff ff 	lea    -0x1cf5(%rbp),%rdx
    400050da:	48 89 df             	mov    %rbx,%rdi
    400050dd:	48 29 f2             	sub    %rsi,%rdx
    400050e0:	e8 31 f1 ff ff       	callq  40004216 <out>
    400050e5:	44 8b bd a0 e2 ff ff 	mov    -0x1d60(%rbp),%r15d
    400050ec:	8b 9d d0 e2 ff ff    	mov    -0x1d30(%rbp),%ebx
    400050f2:	be 20 00 00 00       	mov    $0x20,%esi
    400050f7:	44 8b 85 d4 e2 ff ff 	mov    -0x1d2c(%rbp),%r8d
    400050fe:	48 8b bd d8 e2 ff ff 	mov    -0x1d28(%rbp),%rdi
    40005105:	44 89 f9             	mov    %r15d,%ecx
    40005108:	89 da                	mov    %ebx,%edx
    4000510a:	41 81 f0 00 20 00 00 	xor    $0x2000,%r8d
    40005111:	e8 8b f2 ff ff       	callq  400043a1 <pad>
    40005116:	89 d8                	mov    %ebx,%eax
    40005118:	41 39 df             	cmp    %ebx,%r15d
    4000511b:	41 0f 4d c7          	cmovge %r15d,%eax
    4000511f:	eb 12                	jmp    40005133 <fmt_fp+0xd1c>
    40005121:	41 bd 2f 04 40 40    	mov    $0x4040042f,%r13d
    40005127:	b8 2b 04 40 40       	mov    $0x4040042b,%eax
    4000512c:	df e8                	fucomip %st(0),%st
    4000512e:	e9 e9 f3 ff ff       	jmpq   4000451c <fmt_fp+0x105>
    40005133:	48 8d 65 d8          	lea    -0x28(%rbp),%rsp
    40005137:	5b                   	pop    %rbx
    40005138:	41 5c                	pop    %r12
    4000513a:	41 5d                	pop    %r13
    4000513c:	41 5e                	pop    %r14
    4000513e:	41 5f                	pop    %r15
    40005140:	5d                   	pop    %rbp
    40005141:	c3                   	retq   

0000000040005142 <printf_core>:
    40005142:	55                   	push   %rbp
    40005143:	48 89 e5             	mov    %rsp,%rbp
    40005146:	41 57                	push   %r15
    40005148:	41 56                	push   %r14
    4000514a:	41 55                	push   %r13
    4000514c:	41 54                	push   %r12
    4000514e:	53                   	push   %rbx
    4000514f:	48 81 ec b8 00 00 00 	sub    $0xb8,%rsp
    40005156:	48 89 bd 68 ff ff ff 	mov    %rdi,-0x98(%rbp)
    4000515d:	48 89 95 50 ff ff ff 	mov    %rdx,-0xb0(%rbp)
    40005164:	48 89 8d 38 ff ff ff 	mov    %rcx,-0xc8(%rbp)
    4000516b:	4c 89 85 40 ff ff ff 	mov    %r8,-0xc0(%rbp)
    40005172:	48 89 75 80          	mov    %rsi,-0x80(%rbp)
    40005176:	c7 85 58 ff ff ff 00 	movl   $0x0,-0xa8(%rbp)
    4000517d:	00 00 00 
    40005180:	c7 85 64 ff ff ff 00 	movl   $0x0,-0x9c(%rbp)
    40005187:	00 00 00 
    4000518a:	c7 85 4c ff ff ff 00 	movl   $0x0,-0xb4(%rbp)
    40005191:	00 00 00 
    40005194:	b8 ff ff ff 7f       	mov    $0x7fffffff,%eax
    40005199:	2b 85 64 ff ff ff    	sub    -0x9c(%rbp),%eax
    4000519f:	8b bd 58 ff ff ff    	mov    -0xa8(%rbp),%edi
    400051a5:	39 c7                	cmp    %eax,%edi
    400051a7:	0f 8f 92 08 00 00    	jg     40005a3f <printf_core+0x8fd>
    400051ad:	4c 8b 7d 80          	mov    -0x80(%rbp),%r15
    400051b1:	01 bd 64 ff ff ff    	add    %edi,-0x9c(%rbp)
    400051b7:	41 80 3f 00          	cmpb   $0x0,(%r15)
    400051bb:	0f 84 05 08 00 00    	je     400059c6 <printf_core+0x884>
    400051c1:	4c 8b 65 80          	mov    -0x80(%rbp),%r12
    400051c5:	41 8a 04 24          	mov    (%r12),%al
    400051c9:	3c 25                	cmp    $0x25,%al
    400051cb:	74 1e                	je     400051eb <printf_core+0xa9>
    400051cd:	84 c0                	test   %al,%al
    400051cf:	74 1a                	je     400051eb <printf_core+0xa9>
    400051d1:	49 ff c4             	inc    %r12
    400051d4:	4c 89 65 80          	mov    %r12,-0x80(%rbp)
    400051d8:	eb e7                	jmp    400051c1 <printf_core+0x7f>
    400051da:	80 78 01 25          	cmpb   $0x25,0x1(%rax)
    400051de:	75 14                	jne    400051f4 <printf_core+0xb2>
    400051e0:	48 83 c0 02          	add    $0x2,%rax
    400051e4:	49 ff c4             	inc    %r12
    400051e7:	48 89 45 80          	mov    %rax,-0x80(%rbp)
    400051eb:	48 8b 45 80          	mov    -0x80(%rbp),%rax
    400051ef:	80 38 25             	cmpb   $0x25,(%rax)
    400051f2:	74 e6                	je     400051da <printf_core+0x98>
    400051f4:	c7 85 48 ff ff ff ff 	movl   $0x7fffffff,-0xb8(%rbp)
    400051fb:	ff ff 7f 
    400051fe:	8b 85 64 ff ff ff    	mov    -0x9c(%rbp),%eax
    40005204:	4d 29 fc             	sub    %r15,%r12
    40005207:	29 85 48 ff ff ff    	sub    %eax,-0xb8(%rbp)
    4000520d:	48 63 85 48 ff ff ff 	movslq -0xb8(%rbp),%rax
    40005214:	49 39 c4             	cmp    %rax,%r12
    40005217:	0f 8f 22 08 00 00    	jg     40005a3f <printf_core+0x8fd>
    4000521d:	48 8b bd 68 ff ff ff 	mov    -0x98(%rbp),%rdi
    40005224:	44 89 a5 58 ff ff ff 	mov    %r12d,-0xa8(%rbp)
    4000522b:	48 85 ff             	test   %rdi,%rdi
    4000522e:	74 0b                	je     4000523b <printf_core+0xf9>
    40005230:	49 63 d4             	movslq %r12d,%rdx
    40005233:	4c 89 fe             	mov    %r15,%rsi
    40005236:	e8 db ef ff ff       	callq  40004216 <out>
    4000523b:	45 85 e4             	test   %r12d,%r12d
    4000523e:	0f 85 50 ff ff ff    	jne    40005194 <printf_core+0x52>
    40005244:	48 8b 45 80          	mov    -0x80(%rbp),%rax
    40005248:	44 0f be 70 01       	movsbl 0x1(%rax),%r14d
    4000524d:	41 83 ee 30          	sub    $0x30,%r14d
    40005251:	41 83 fe 09          	cmp    $0x9,%r14d
    40005255:	77 1a                	ja     40005271 <printf_core+0x12f>
    40005257:	80 78 02 24          	cmpb   $0x24,0x2(%rax)
    4000525b:	75 14                	jne    40005271 <printf_core+0x12f>
    4000525d:	48 83 c0 03          	add    $0x3,%rax
    40005261:	c7 85 4c ff ff ff 01 	movl   $0x1,-0xb4(%rbp)
    40005268:	00 00 00 
    4000526b:	48 89 45 80          	mov    %rax,-0x80(%rbp)
    4000526f:	eb 0b                	jmp    4000527c <printf_core+0x13a>
    40005271:	48 ff c0             	inc    %rax
    40005274:	41 83 ce ff          	or     $0xffffffff,%r14d
    40005278:	48 89 45 80          	mov    %rax,-0x80(%rbp)
    4000527c:	31 db                	xor    %ebx,%ebx
    4000527e:	be 89 28 01 00       	mov    $0x12889,%esi
    40005283:	bf 01 00 00 00       	mov    $0x1,%edi
    40005288:	48 8b 45 80          	mov    -0x80(%rbp),%rax
    4000528c:	8a 10                	mov    (%rax),%dl
    4000528e:	0f be ca             	movsbl %dl,%ecx
    40005291:	83 e9 20             	sub    $0x20,%ecx
    40005294:	83 f9 1f             	cmp    $0x1f,%ecx
    40005297:	76 0b                	jbe    400052a4 <printf_core+0x162>
    40005299:	80 fa 2a             	cmp    $0x2a,%dl
    4000529c:	0f 85 ec 00 00 00    	jne    4000538e <printf_core+0x24c>
    400052a2:	eb 14                	jmp    400052b8 <printf_core+0x176>
    400052a4:	0f a3 ce             	bt     %ecx,%esi
    400052a7:	73 f0                	jae    40005299 <printf_core+0x157>
    400052a9:	89 fa                	mov    %edi,%edx
    400052ab:	48 ff c0             	inc    %rax
    400052ae:	d3 e2                	shl    %cl,%edx
    400052b0:	48 89 45 80          	mov    %rax,-0x80(%rbp)
    400052b4:	09 d3                	or     %edx,%ebx
    400052b6:	eb d0                	jmp    40005288 <printf_core+0x146>
    400052b8:	48 0f be 50 01       	movsbq 0x1(%rax),%rdx
    400052bd:	0f be ca             	movsbl %dl,%ecx
    400052c0:	83 e9 30             	sub    $0x30,%ecx
    400052c3:	83 f9 09             	cmp    $0x9,%ecx
    400052c6:	77 49                	ja     40005311 <printf_core+0x1cf>
    400052c8:	80 78 02 24          	cmpb   $0x24,0x2(%rax)
    400052cc:	75 43                	jne    40005311 <printf_core+0x1cf>
    400052ce:	48 8b b5 40 ff ff ff 	mov    -0xc0(%rbp),%rsi
    400052d5:	48 83 c0 03          	add    $0x3,%rax
    400052d9:	c7 85 4c ff ff ff 01 	movl   $0x1,-0xb4(%rbp)
    400052e0:	00 00 00 
    400052e3:	c7 84 96 40 ff ff ff 	movl   $0xa,-0xc0(%rsi,%rdx,4)
    400052ea:	0a 00 00 00 
    400052ee:	48 0f be 50 fe       	movsbq -0x2(%rax),%rdx
    400052f3:	48 8b b5 38 ff ff ff 	mov    -0xc8(%rbp),%rsi
    400052fa:	48 c1 e2 04          	shl    $0x4,%rdx
    400052fe:	8b b4 16 00 fd ff ff 	mov    -0x300(%rsi,%rdx,1),%esi
    40005305:	48 89 45 80          	mov    %rax,-0x80(%rbp)
    40005309:	89 b5 60 ff ff ff    	mov    %esi,-0xa0(%rbp)
    4000530f:	eb 69                	jmp    4000537a <printf_core+0x238>
    40005311:	83 bd 4c ff ff ff 00 	cmpl   $0x0,-0xb4(%rbp)
    40005318:	74 10                	je     4000532a <printf_core+0x1e8>
    4000531a:	e8 a4 d0 ff ff       	callq  400023c3 <__tls_errno_location>
    4000531f:	c7 00 16 00 00 00    	movl   $0x16,(%rax)
    40005325:	e9 20 07 00 00       	jmpq   40005a4a <printf_core+0x908>
    4000532a:	48 83 bd 68 ff ff ff 	cmpq   $0x0,-0x98(%rbp)
    40005331:	00 
    40005332:	74 38                	je     4000536c <printf_core+0x22a>
    40005334:	48 8b bd 50 ff ff ff 	mov    -0xb0(%rbp),%rdi
    4000533b:	8b 0f                	mov    (%rdi),%ecx
    4000533d:	83 f9 30             	cmp    $0x30,%ecx
    40005340:	73 0d                	jae    4000534f <printf_core+0x20d>
    40005342:	89 ca                	mov    %ecx,%edx
    40005344:	83 c1 08             	add    $0x8,%ecx
    40005347:	48 03 57 10          	add    0x10(%rdi),%rdx
    4000534b:	89 0f                	mov    %ecx,(%rdi)
    4000534d:	eb 13                	jmp    40005362 <printf_core+0x220>
    4000534f:	48 8b bd 50 ff ff ff 	mov    -0xb0(%rbp),%rdi
    40005356:	48 8b 57 08          	mov    0x8(%rdi),%rdx
    4000535a:	48 8d 4a 08          	lea    0x8(%rdx),%rcx
    4000535e:	48 89 4f 08          	mov    %rcx,0x8(%rdi)
    40005362:	8b 32                	mov    (%rdx),%esi
    40005364:	89 b5 60 ff ff ff    	mov    %esi,-0xa0(%rbp)
    4000536a:	eb 07                	jmp    40005373 <printf_core+0x231>
    4000536c:	44 89 a5 60 ff ff ff 	mov    %r12d,-0xa0(%rbp)
    40005373:	48 ff c0             	inc    %rax
    40005376:	48 89 45 80          	mov    %rax,-0x80(%rbp)
    4000537a:	83 bd 60 ff ff ff 00 	cmpl   $0x0,-0xa0(%rbp)
    40005381:	79 22                	jns    400053a5 <printf_core+0x263>
    40005383:	80 cf 20             	or     $0x20,%bh
    40005386:	f7 9d 60 ff ff ff    	negl   -0xa0(%rbp)
    4000538c:	eb 17                	jmp    400053a5 <printf_core+0x263>
    4000538e:	48 8d 7d 80          	lea    -0x80(%rbp),%rdi
    40005392:	e8 48 ee ff ff       	callq  400041df <getint>
    40005397:	85 c0                	test   %eax,%eax
    40005399:	89 85 60 ff ff ff    	mov    %eax,-0xa0(%rbp)
    4000539f:	0f 88 9a 06 00 00    	js     40005a3f <printf_core+0x8fd>
    400053a5:	48 8b 45 80          	mov    -0x80(%rbp),%rax
    400053a9:	45 31 e4             	xor    %r12d,%r12d
    400053ac:	49 83 cd ff          	or     $0xffffffffffffffff,%r13
    400053b0:	80 38 2e             	cmpb   $0x2e,(%rax)
    400053b3:	0f 85 ca 00 00 00    	jne    40005483 <printf_core+0x341>
    400053b9:	80 78 01 2a          	cmpb   $0x2a,0x1(%rax)
    400053bd:	0f 85 a7 00 00 00    	jne    4000546a <printf_core+0x328>
    400053c3:	48 0f be 50 02       	movsbq 0x2(%rax),%rdx
    400053c8:	0f be ca             	movsbl %dl,%ecx
    400053cb:	83 e9 30             	sub    $0x30,%ecx
    400053ce:	83 f9 09             	cmp    $0x9,%ecx
    400053d1:	77 36                	ja     40005409 <printf_core+0x2c7>
    400053d3:	80 78 03 24          	cmpb   $0x24,0x3(%rax)
    400053d7:	75 30                	jne    40005409 <printf_core+0x2c7>
    400053d9:	48 8b b5 40 ff ff ff 	mov    -0xc0(%rbp),%rsi
    400053e0:	48 8b bd 38 ff ff ff 	mov    -0xc8(%rbp),%rdi
    400053e7:	48 83 c0 04          	add    $0x4,%rax
    400053eb:	c7 84 96 40 ff ff ff 	movl   $0xa,-0xc0(%rsi,%rdx,4)
    400053f2:	0a 00 00 00 
    400053f6:	48 0f be 50 fe       	movsbq -0x2(%rax),%rdx
    400053fb:	48 c1 e2 04          	shl    $0x4,%rdx
    400053ff:	4c 63 ac 17 00 fd ff 	movslq -0x300(%rdi,%rdx,1),%r13
    40005406:	ff 
    40005407:	eb 51                	jmp    4000545a <printf_core+0x318>
    40005409:	83 bd 4c ff ff ff 00 	cmpl   $0x0,-0xb4(%rbp)
    40005410:	0f 85 04 ff ff ff    	jne    4000531a <printf_core+0x1d8>
    40005416:	48 83 bd 68 ff ff ff 	cmpq   $0x0,-0x98(%rbp)
    4000541d:	00 
    4000541e:	74 33                	je     40005453 <printf_core+0x311>
    40005420:	48 8b b5 50 ff ff ff 	mov    -0xb0(%rbp),%rsi
    40005427:	8b 0e                	mov    (%rsi),%ecx
    40005429:	83 f9 30             	cmp    $0x30,%ecx
    4000542c:	73 0d                	jae    4000543b <printf_core+0x2f9>
    4000542e:	89 ca                	mov    %ecx,%edx
    40005430:	83 c1 08             	add    $0x8,%ecx
    40005433:	48 03 56 10          	add    0x10(%rsi),%rdx
    40005437:	89 0e                	mov    %ecx,(%rsi)
    40005439:	eb 13                	jmp    4000544e <printf_core+0x30c>
    4000543b:	48 8b b5 50 ff ff ff 	mov    -0xb0(%rbp),%rsi
    40005442:	48 8b 56 08          	mov    0x8(%rsi),%rdx
    40005446:	48 8d 4a 08          	lea    0x8(%rdx),%rcx
    4000544a:	48 89 4e 08          	mov    %rcx,0x8(%rsi)
    4000544e:	4c 63 2a             	movslq (%rdx),%r13
    40005451:	eb 03                	jmp    40005456 <printf_core+0x314>
    40005453:	45 31 ed             	xor    %r13d,%r13d
    40005456:	48 83 c0 02          	add    $0x2,%rax
    4000545a:	45 89 ec             	mov    %r13d,%r12d
    4000545d:	48 89 45 80          	mov    %rax,-0x80(%rbp)
    40005461:	41 f7 d4             	not    %r12d
    40005464:	41 c1 ec 1f          	shr    $0x1f,%r12d
    40005468:	eb 19                	jmp    40005483 <printf_core+0x341>
    4000546a:	48 8d 7d 80          	lea    -0x80(%rbp),%rdi
    4000546e:	48 ff c0             	inc    %rax
    40005471:	41 bc 01 00 00 00    	mov    $0x1,%r12d
    40005477:	48 89 45 80          	mov    %rax,-0x80(%rbp)
    4000547b:	e8 5f ed ff ff       	callq  400041df <getint>
    40005480:	4c 63 e8             	movslq %eax,%r13
    40005483:	31 c0                	xor    %eax,%eax
    40005485:	48 8b 55 80          	mov    -0x80(%rbp),%rdx
    40005489:	0f be 0a             	movsbl (%rdx),%ecx
    4000548c:	83 e9 41             	sub    $0x41,%ecx
    4000548f:	83 f9 39             	cmp    $0x39,%ecx
    40005492:	0f 87 82 fe ff ff    	ja     4000531a <printf_core+0x1d8>
    40005498:	48 8d 4a 01          	lea    0x1(%rdx),%rcx
    4000549c:	48 89 4d 80          	mov    %rcx,-0x80(%rbp)
    400054a0:	0f be 0a             	movsbl (%rdx),%ecx
    400054a3:	89 c2                	mov    %eax,%edx
    400054a5:	48 6b d2 3a          	imul   $0x3a,%rdx,%rdx
    400054a9:	83 e9 41             	sub    $0x41,%ecx
    400054ac:	48 63 c9             	movslq %ecx,%rcx
    400054af:	0f b6 b4 11 60 06 40 	movzbl 0x40400660(%rcx,%rdx,1),%esi
    400054b6:	40 
    400054b7:	8d 56 ff             	lea    -0x1(%rsi),%edx
    400054ba:	83 fa 07             	cmp    $0x7,%edx
    400054bd:	77 04                	ja     400054c3 <printf_core+0x381>
    400054bf:	89 f0                	mov    %esi,%eax
    400054c1:	eb c2                	jmp    40005485 <printf_core+0x343>
    400054c3:	85 f6                	test   %esi,%esi
    400054c5:	0f 84 4f fe ff ff    	je     4000531a <printf_core+0x1d8>
    400054cb:	83 fe 15             	cmp    $0x15,%esi
    400054ce:	75 0a                	jne    400054da <printf_core+0x398>
    400054d0:	45 85 f6             	test   %r14d,%r14d
    400054d3:	78 63                	js     40005538 <printf_core+0x3f6>
    400054d5:	e9 40 fe ff ff       	jmpq   4000531a <printf_core+0x1d8>
    400054da:	45 85 f6             	test   %r14d,%r14d
    400054dd:	78 2a                	js     40005509 <printf_core+0x3c7>
    400054df:	48 8b bd 40 ff ff ff 	mov    -0xc0(%rbp),%rdi
    400054e6:	4d 63 f6             	movslq %r14d,%r14
    400054e9:	42 89 34 b7          	mov    %esi,(%rdi,%r14,4)
    400054ed:	49 c1 e6 04          	shl    $0x4,%r14
    400054f1:	4c 03 b5 38 ff ff ff 	add    -0xc8(%rbp),%r14
    400054f8:	49 8b 16             	mov    (%r14),%rdx
    400054fb:	48 89 55 90          	mov    %rdx,-0x70(%rbp)
    400054ff:	49 8b 56 08          	mov    0x8(%r14),%rdx
    40005503:	48 89 55 98          	mov    %rdx,-0x68(%rbp)
    40005507:	eb 2f                	jmp    40005538 <printf_core+0x3f6>
    40005509:	48 83 bd 68 ff ff ff 	cmpq   $0x0,-0x98(%rbp)
    40005510:	00 
    40005511:	75 07                	jne    4000551a <printf_core+0x3d8>
    40005513:	31 c0                	xor    %eax,%eax
    40005515:	e9 e3 05 00 00       	jmpq   40005afd <printf_core+0x9bb>
    4000551a:	48 8b 95 50 ff ff ff 	mov    -0xb0(%rbp),%rdx
    40005521:	48 8d 7d 90          	lea    -0x70(%rbp),%rdi
    40005525:	89 85 34 ff ff ff    	mov    %eax,-0xcc(%rbp)
    4000552b:	e8 fd ec ff ff       	callq  4000422d <pop_arg>
    40005530:	8b 85 34 ff ff ff    	mov    -0xcc(%rbp),%eax
    40005536:	eb 0e                	jmp    40005546 <printf_core+0x404>
    40005538:	48 83 bd 68 ff ff ff 	cmpq   $0x0,-0x98(%rbp)
    4000553f:	00 
    40005540:	0f 84 4e fc ff ff    	je     40005194 <printf_core+0x52>
    40005546:	48 8b 55 80          	mov    -0x80(%rbp),%rdx
    4000554a:	85 c0                	test   %eax,%eax
    4000554c:	44 8a 4a ff          	mov    -0x1(%rdx),%r9b
    40005550:	45 0f be c1          	movsbl %r9b,%r8d
    40005554:	74 13                	je     40005569 <printf_core+0x427>
    40005556:	44 88 ca             	mov    %r9b,%dl
    40005559:	83 e2 0f             	and    $0xf,%edx
    4000555c:	80 fa 03             	cmp    $0x3,%dl
    4000555f:	75 08                	jne    40005569 <printf_core+0x427>
    40005561:	41 83 e1 df          	and    $0xffffffdf,%r9d
    40005565:	45 0f be c1          	movsbl %r9b,%r8d
    40005569:	89 da                	mov    %ebx,%edx
    4000556b:	81 e2 ff ff fe ff    	and    $0xfffeffff,%edx
    40005571:	f6 c7 20             	test   $0x20,%bh
    40005574:	0f 45 da             	cmovne %edx,%ebx
    40005577:	41 8d 50 bf          	lea    -0x41(%r8),%edx
    4000557b:	83 fa 37             	cmp    $0x37,%edx
    4000557e:	0f 87 34 03 00 00    	ja     400058b8 <printf_core+0x776>
    40005584:	ff 24 d5 48 04 40 40 	jmpq   *0x40400448(,%rdx,8)
    4000558b:	83 f8 07             	cmp    $0x7,%eax
    4000558e:	0f 87 00 fc ff ff    	ja     40005194 <printf_core+0x52>
    40005594:	ff 24 c5 08 06 40 40 	jmpq   *0x40400608(,%rax,8)
    4000559b:	48 8b 45 90          	mov    -0x70(%rbp),%rax
    4000559f:	8b 9d 64 ff ff ff    	mov    -0x9c(%rbp),%ebx
    400055a5:	89 18                	mov    %ebx,(%rax)
    400055a7:	e9 e8 fb ff ff       	jmpq   40005194 <printf_core+0x52>
    400055ac:	48 8b 45 90          	mov    -0x70(%rbp),%rax
    400055b0:	8b 9d 64 ff ff ff    	mov    -0x9c(%rbp),%ebx
    400055b6:	66 89 18             	mov    %bx,(%rax)
    400055b9:	e9 d6 fb ff ff       	jmpq   40005194 <printf_core+0x52>
    400055be:	48 8b 45 90          	mov    -0x70(%rbp),%rax
    400055c2:	8a 9d 64 ff ff ff    	mov    -0x9c(%rbp),%bl
    400055c8:	88 18                	mov    %bl,(%rax)
    400055ca:	e9 c5 fb ff ff       	jmpq   40005194 <printf_core+0x52>
    400055cf:	48 63 95 64 ff ff ff 	movslq -0x9c(%rbp),%rdx
    400055d6:	48 8b 45 90          	mov    -0x70(%rbp),%rax
    400055da:	48 89 10             	mov    %rdx,(%rax)
    400055dd:	e9 b2 fb ff ff       	jmpq   40005194 <printf_core+0x52>
    400055e2:	41 83 fd 10          	cmp    $0x10,%r13d
    400055e6:	b8 10 00 00 00       	mov    $0x10,%eax
    400055eb:	41 b8 78 00 00 00    	mov    $0x78,%r8d
    400055f1:	4c 0f 42 e8          	cmovb  %rax,%r13
    400055f5:	83 cb 08             	or     $0x8,%ebx
    400055f8:	48 8b 45 90          	mov    -0x70(%rbp),%rax
    400055fc:	44 89 c2             	mov    %r8d,%edx
    400055ff:	4c 8d 7d d0          	lea    -0x30(%rbp),%r15
    40005603:	83 e2 20             	and    $0x20,%edx
    40005606:	48 85 c0             	test   %rax,%rax
    40005609:	74 1c                	je     40005627 <printf_core+0x4e5>
    4000560b:	48 89 c1             	mov    %rax,%rcx
    4000560e:	40 88 d7             	mov    %dl,%dil
    40005611:	49 ff cf             	dec    %r15
    40005614:	83 e1 0f             	and    $0xf,%ecx
    40005617:	48 c1 e8 04          	shr    $0x4,%rax
    4000561b:	40 0a b9 50 06 40 40 	or     0x40400650(%rcx),%dil
    40005622:	41 88 3f             	mov    %dil,(%r15)
    40005625:	eb df                	jmp    40005606 <printf_core+0x4c4>
    40005627:	48 83 7d 90 00       	cmpq   $0x0,-0x70(%rbp)
    4000562c:	0f 84 f7 00 00 00    	je     40005729 <printf_core+0x5e7>
    40005632:	f6 c3 08             	test   $0x8,%bl
    40005635:	0f 84 ee 00 00 00    	je     40005729 <printf_core+0x5e7>
    4000563b:	41 c1 f8 04          	sar    $0x4,%r8d
    4000563f:	41 ba 02 00 00 00    	mov    $0x2,%r10d
    40005645:	4d 63 c8             	movslq %r8d,%r9
    40005648:	49 81 c1 35 04 40 40 	add    $0x40400435,%r9
    4000564f:	e9 de 00 00 00       	jmpq   40005732 <printf_core+0x5f0>
    40005654:	48 8b 45 90          	mov    -0x70(%rbp),%rax
    40005658:	4c 8d 7d d0          	lea    -0x30(%rbp),%r15
    4000565c:	48 85 c0             	test   %rax,%rax
    4000565f:	74 14                	je     40005675 <printf_core+0x533>
    40005661:	88 c2                	mov    %al,%dl
    40005663:	49 ff cf             	dec    %r15
    40005666:	48 c1 e8 03          	shr    $0x3,%rax
    4000566a:	83 e2 07             	and    $0x7,%edx
    4000566d:	83 c2 30             	add    $0x30,%edx
    40005670:	41 88 17             	mov    %dl,(%r15)
    40005673:	eb e7                	jmp    4000565c <printf_core+0x51a>
    40005675:	f6 c3 08             	test   $0x8,%bl
    40005678:	0f 84 ab 00 00 00    	je     40005729 <printf_core+0x5e7>
    4000567e:	48 8d 55 d0          	lea    -0x30(%rbp),%rdx
    40005682:	49 63 c5             	movslq %r13d,%rax
    40005685:	45 31 d2             	xor    %r10d,%r10d
    40005688:	41 b9 35 04 40 40    	mov    $0x40400435,%r9d
    4000568e:	4c 29 fa             	sub    %r15,%rdx
    40005691:	48 39 c2             	cmp    %rax,%rdx
    40005694:	b8 3a 04 40 40       	mov    $0x4040043a,%eax
    40005699:	41 0f 9d c2          	setge  %r10b
    4000569d:	4c 0f 4d c8          	cmovge %rax,%r9
    400056a1:	e9 8c 00 00 00       	jmpq   40005732 <printf_core+0x5f0>
    400056a6:	48 8b 45 90          	mov    -0x70(%rbp),%rax
    400056aa:	48 85 c0             	test   %rax,%rax
    400056ad:	79 0f                	jns    400056be <printf_core+0x57c>
    400056af:	48 f7 d8             	neg    %rax
    400056b2:	41 ba 01 00 00 00    	mov    $0x1,%r10d
    400056b8:	48 89 45 90          	mov    %rax,-0x70(%rbp)
    400056bc:	eb 29                	jmp    400056e7 <printf_core+0x5a5>
    400056be:	f6 c7 08             	test   $0x8,%bh
    400056c1:	75 2c                	jne    400056ef <printf_core+0x5ad>
    400056c3:	89 d8                	mov    %ebx,%eax
    400056c5:	41 b9 37 04 40 40    	mov    $0x40400437,%r9d
    400056cb:	83 e0 01             	and    $0x1,%eax
    400056ce:	83 f8 01             	cmp    $0x1,%eax
    400056d1:	45 19 d2             	sbb    %r10d,%r10d
    400056d4:	41 ff c2             	inc    %r10d
    400056d7:	85 c0                	test   %eax,%eax
    400056d9:	b8 35 04 40 40       	mov    $0x40400435,%eax
    400056de:	4c 0f 44 c8          	cmove  %rax,%r9
    400056e2:	eb 17                	jmp    400056fb <printf_core+0x5b9>
    400056e4:	45 31 d2             	xor    %r10d,%r10d
    400056e7:	41 b9 35 04 40 40    	mov    $0x40400435,%r9d
    400056ed:	eb 0c                	jmp    400056fb <printf_core+0x5b9>
    400056ef:	41 ba 01 00 00 00    	mov    $0x1,%r10d
    400056f5:	41 b9 36 04 40 40    	mov    $0x40400436,%r9d
    400056fb:	48 8b 7d 90          	mov    -0x70(%rbp),%rdi
    400056ff:	48 8d 75 d0          	lea    -0x30(%rbp),%rsi
    40005703:	44 89 95 34 ff ff ff 	mov    %r10d,-0xcc(%rbp)
    4000570a:	4c 89 8d 58 ff ff ff 	mov    %r9,-0xa8(%rbp)
    40005711:	e8 a6 ea ff ff       	callq  400041bc <fmt_u>
    40005716:	4c 8b 8d 58 ff ff ff 	mov    -0xa8(%rbp),%r9
    4000571d:	49 89 c7             	mov    %rax,%r15
    40005720:	44 8b 95 34 ff ff ff 	mov    -0xcc(%rbp),%r10d
    40005727:	eb 09                	jmp    40005732 <printf_core+0x5f0>
    40005729:	45 31 d2             	xor    %r10d,%r10d
    4000572c:	41 b9 35 04 40 40    	mov    $0x40400435,%r9d
    40005732:	44 89 e8             	mov    %r13d,%eax
    40005735:	c1 e8 1f             	shr    $0x1f,%eax
    40005738:	74 09                	je     40005743 <printf_core+0x601>
    4000573a:	45 85 e4             	test   %r12d,%r12d
    4000573d:	0f 85 fc 02 00 00    	jne    40005a3f <printf_core+0x8fd>
    40005743:	48 8b 55 90          	mov    -0x70(%rbp),%rdx
    40005747:	89 d8                	mov    %ebx,%eax
    40005749:	25 ff ff fe ff       	and    $0xfffeffff,%eax
    4000574e:	45 85 ed             	test   %r13d,%r13d
    40005751:	0f 49 d8             	cmovns %eax,%ebx
    40005754:	48 85 d2             	test   %rdx,%rdx
    40005757:	75 09                	jne    40005762 <printf_core+0x620>
    40005759:	45 85 ed             	test   %r13d,%r13d
    4000575c:	0f 84 65 01 00 00    	je     400058c7 <printf_core+0x785>
    40005762:	48 8d 4d d0          	lea    -0x30(%rbp),%rcx
    40005766:	31 c0                	xor    %eax,%eax
    40005768:	4c 29 f9             	sub    %r15,%rcx
    4000576b:	48 85 d2             	test   %rdx,%rdx
    4000576e:	0f 94 c0             	sete   %al
    40005771:	48 01 c8             	add    %rcx,%rax
    40005774:	4c 39 e8             	cmp    %r13,%rax
    40005777:	4c 0f 4d e8          	cmovge %rax,%r13
    4000577b:	e9 41 01 00 00       	jmpq   400058c1 <printf_core+0x77f>
    40005780:	48 8b 45 90          	mov    -0x70(%rbp),%rax
    40005784:	81 e3 ff ff fe ff    	and    $0xfffeffff,%ebx
    4000578a:	45 31 d2             	xor    %r10d,%r10d
    4000578d:	41 b9 35 04 40 40    	mov    $0x40400435,%r9d
    40005793:	41 bd 01 00 00 00    	mov    $0x1,%r13d
    40005799:	4c 8d 75 d0          	lea    -0x30(%rbp),%r14
    4000579d:	88 45 cf             	mov    %al,-0x31(%rbp)
    400057a0:	48 8d 45 a5          	lea    -0x5b(%rbp),%rax
    400057a4:	4c 8d 78 2a          	lea    0x2a(%rax),%r15
    400057a8:	e9 21 01 00 00       	jmpq   400058ce <printf_core+0x78c>
    400057ad:	e8 11 cc ff ff       	callq  400023c3 <__tls_errno_location>
    400057b2:	8b 38                	mov    (%rax),%edi
    400057b4:	e8 02 0a 00 00       	callq  400061bb <strerror>
    400057b9:	49 89 c7             	mov    %rax,%r15
    400057bc:	eb 10                	jmp    400057ce <printf_core+0x68c>
    400057be:	4c 8b 7d 90          	mov    -0x70(%rbp),%r15
    400057c2:	b8 3f 04 40 40       	mov    $0x4040043f,%eax
    400057c7:	4d 85 ff             	test   %r15,%r15
    400057ca:	4c 0f 44 f8          	cmove  %rax,%r15
    400057ce:	45 85 ed             	test   %r13d,%r13d
    400057d1:	78 05                	js     400057d8 <printf_core+0x696>
    400057d3:	49 63 f5             	movslq %r13d,%rsi
    400057d6:	eb 05                	jmp    400057dd <printf_core+0x69b>
    400057d8:	be ff ff ff 7f       	mov    $0x7fffffff,%esi
    400057dd:	4c 89 ff             	mov    %r15,%rdi
    400057e0:	e8 5b 07 00 00       	callq  40005f40 <strnlen>
    400057e5:	45 85 ed             	test   %r13d,%r13d
    400057e8:	4d 8d 34 07          	lea    (%r15,%rax,1),%r14
    400057ec:	79 0a                	jns    400057f8 <printf_core+0x6b6>
    400057ee:	41 80 3e 00          	cmpb   $0x0,(%r14)
    400057f2:	0f 85 47 02 00 00    	jne    40005a3f <printf_core+0x8fd>
    400057f8:	45 89 f5             	mov    %r14d,%r13d
    400057fb:	81 e3 ff ff fe ff    	and    $0xfffeffff,%ebx
    40005801:	45 31 d2             	xor    %r10d,%r10d
    40005804:	45 29 fd             	sub    %r15d,%r13d
    40005807:	41 b9 35 04 40 40    	mov    $0x40400435,%r9d
    4000580d:	e9 bc 00 00 00       	jmpq   400058ce <printf_core+0x78c>
    40005812:	48 8b 45 90          	mov    -0x70(%rbp),%rax
    40005816:	c7 45 8c 00 00 00 00 	movl   $0x0,-0x74(%rbp)
    4000581d:	49 83 cd ff          	or     $0xffffffffffffffff,%r13
    40005821:	89 45 88             	mov    %eax,-0x78(%rbp)
    40005824:	48 8d 45 88          	lea    -0x78(%rbp),%rax
    40005828:	48 89 45 90          	mov    %rax,-0x70(%rbp)
    4000582c:	4c 8b 75 90          	mov    -0x70(%rbp),%r14
    40005830:	45 31 e4             	xor    %r12d,%r12d
    40005833:	4d 39 ec             	cmp    %r13,%r12
    40005836:	0f 83 20 02 00 00    	jae    40005a5c <printf_core+0x91a>
    4000583c:	41 8b 36             	mov    (%r14),%esi
    4000583f:	85 f6                	test   %esi,%esi
    40005841:	0f 84 15 02 00 00    	je     40005a5c <printf_core+0x91a>
    40005847:	48 8d bd 7c ff ff ff 	lea    -0x84(%rbp),%rdi
    4000584e:	49 83 c6 04          	add    $0x4,%r14
    40005852:	e8 94 0b 00 00       	callq  400063eb <wctomb>
    40005857:	85 c0                	test   %eax,%eax
    40005859:	0f 88 eb 01 00 00    	js     40005a4a <printf_core+0x908>
    4000585f:	4c 89 ea             	mov    %r13,%rdx
    40005862:	48 98                	cltq   
    40005864:	4c 29 e2             	sub    %r12,%rdx
    40005867:	48 39 d0             	cmp    %rdx,%rax
    4000586a:	0f 87 ec 01 00 00    	ja     40005a5c <printf_core+0x91a>
    40005870:	49 01 c4             	add    %rax,%r12
    40005873:	eb be                	jmp    40005833 <printf_core+0x6f1>
    40005875:	44 89 e8             	mov    %r13d,%eax
    40005878:	c1 e8 1f             	shr    $0x1f,%eax
    4000587b:	74 09                	je     40005886 <printf_core+0x744>
    4000587d:	45 85 e4             	test   %r12d,%r12d
    40005880:	0f 85 b9 01 00 00    	jne    40005a3f <printf_core+0x8fd>
    40005886:	8b b5 60 ff ff ff    	mov    -0xa0(%rbp),%esi
    4000588c:	48 8b bd 68 ff ff ff 	mov    -0x98(%rbp),%rdi
    40005893:	89 d9                	mov    %ebx,%ecx
    40005895:	ff 75 98             	pushq  -0x68(%rbp)
    40005898:	ff 75 90             	pushq  -0x70(%rbp)
    4000589b:	44 89 ea             	mov    %r13d,%edx
    4000589e:	e8 74 eb ff ff       	callq  40004417 <fmt_fp>
    400058a3:	5a                   	pop    %rdx
    400058a4:	85 c0                	test   %eax,%eax
    400058a6:	89 85 58 ff ff ff    	mov    %eax,-0xa8(%rbp)
    400058ac:	59                   	pop    %rcx
    400058ad:	0f 89 e1 f8 ff ff    	jns    40005194 <printf_core+0x52>
    400058b3:	e9 87 01 00 00       	jmpq   40005a3f <printf_core+0x8fd>
    400058b8:	45 31 d2             	xor    %r10d,%r10d
    400058bb:	41 b9 35 04 40 40    	mov    $0x40400435,%r9d
    400058c1:	4c 8d 75 d0          	lea    -0x30(%rbp),%r14
    400058c5:	eb 07                	jmp    400058ce <printf_core+0x78c>
    400058c7:	4c 8d 75 d0          	lea    -0x30(%rbp),%r14
    400058cb:	4d 89 f7             	mov    %r14,%r15
    400058ce:	49 63 c5             	movslq %r13d,%rax
    400058d1:	4d 29 fe             	sub    %r15,%r14
    400058d4:	4c 89 8d 28 ff ff ff 	mov    %r9,-0xd8(%rbp)
    400058db:	4c 39 f0             	cmp    %r14,%rax
    400058de:	b8 ff ff ff 7f       	mov    $0x7fffffff,%eax
    400058e3:	45 0f 4c ee          	cmovl  %r14d,%r13d
    400058e7:	44 29 d0             	sub    %r10d,%eax
    400058ea:	41 39 c5             	cmp    %eax,%r13d
    400058ed:	0f 8f 4c 01 00 00    	jg     40005a3f <printf_core+0x8fd>
    400058f3:	8b 85 60 ff ff ff    	mov    -0xa0(%rbp),%eax
    400058f9:	47 8d 24 2a          	lea    (%r10,%r13,1),%r12d
    400058fd:	44 89 95 34 ff ff ff 	mov    %r10d,-0xcc(%rbp)
    40005904:	41 39 c4             	cmp    %eax,%r12d
    40005907:	41 0f 4d c4          	cmovge %r12d,%eax
    4000590b:	3b 85 48 ff ff ff    	cmp    -0xb8(%rbp),%eax
    40005911:	89 85 58 ff ff ff    	mov    %eax,-0xa8(%rbp)
    40005917:	0f 8f 22 01 00 00    	jg     40005a3f <printf_core+0x8fd>
    4000591d:	48 8b bd 68 ff ff ff 	mov    -0x98(%rbp),%rdi
    40005924:	89 c2                	mov    %eax,%edx
    40005926:	41 89 d8             	mov    %ebx,%r8d
    40005929:	44 89 e1             	mov    %r12d,%ecx
    4000592c:	be 20 00 00 00       	mov    $0x20,%esi
    40005931:	e8 6b ea ff ff       	callq  400043a1 <pad>
    40005936:	44 8b 95 34 ff ff ff 	mov    -0xcc(%rbp),%r10d
    4000593d:	4c 8b 8d 28 ff ff ff 	mov    -0xd8(%rbp),%r9
    40005944:	48 8b bd 68 ff ff ff 	mov    -0x98(%rbp),%rdi
    4000594b:	49 63 d2             	movslq %r10d,%rdx
    4000594e:	4c 89 ce             	mov    %r9,%rsi
    40005951:	e8 c0 e8 ff ff       	callq  40004216 <out>
    40005956:	8b 95 58 ff ff ff    	mov    -0xa8(%rbp),%edx
    4000595c:	48 8b bd 68 ff ff ff 	mov    -0x98(%rbp),%rdi
    40005963:	41 89 d8             	mov    %ebx,%r8d
    40005966:	41 81 f0 00 00 01 00 	xor    $0x10000,%r8d
    4000596d:	44 89 e1             	mov    %r12d,%ecx
    40005970:	be 30 00 00 00       	mov    $0x30,%esi
    40005975:	80 f7 20             	xor    $0x20,%bh
    40005978:	e8 24 ea ff ff       	callq  400043a1 <pad>
    4000597d:	44 89 ea             	mov    %r13d,%edx
    40005980:	4c 8b ad 68 ff ff ff 	mov    -0x98(%rbp),%r13
    40005987:	45 31 c0             	xor    %r8d,%r8d
    4000598a:	44 89 f1             	mov    %r14d,%ecx
    4000598d:	be 30 00 00 00       	mov    $0x30,%esi
    40005992:	4c 89 ef             	mov    %r13,%rdi
    40005995:	e8 07 ea ff ff       	callq  400043a1 <pad>
    4000599a:	4c 89 f2             	mov    %r14,%rdx
    4000599d:	4c 89 fe             	mov    %r15,%rsi
    400059a0:	4c 89 ef             	mov    %r13,%rdi
    400059a3:	e8 6e e8 ff ff       	callq  40004216 <out>
    400059a8:	8b 95 58 ff ff ff    	mov    -0xa8(%rbp),%edx
    400059ae:	41 89 d8             	mov    %ebx,%r8d
    400059b1:	44 89 e1             	mov    %r12d,%ecx
    400059b4:	be 20 00 00 00       	mov    $0x20,%esi
    400059b9:	4c 89 ef             	mov    %r13,%rdi
    400059bc:	e8 e0 e9 ff ff       	callq  400043a1 <pad>
    400059c1:	e9 ce f7 ff ff       	jmpq   40005194 <printf_core+0x52>
    400059c6:	48 83 bd 68 ff ff ff 	cmpq   $0x0,-0x98(%rbp)
    400059cd:	00 
    400059ce:	8b 85 64 ff ff ff    	mov    -0x9c(%rbp),%eax
    400059d4:	0f 85 23 01 00 00    	jne    40005afd <printf_core+0x9bb>
    400059da:	83 bd 4c ff ff ff 00 	cmpl   $0x0,-0xb4(%rbp)
    400059e1:	0f 84 2c fb ff ff    	je     40005513 <printf_core+0x3d1>
    400059e7:	4c 8b a5 38 ff ff ff 	mov    -0xc8(%rbp),%r12
    400059ee:	bb 01 00 00 00       	mov    $0x1,%ebx
    400059f3:	49 83 c4 10          	add    $0x10,%r12
    400059f7:	48 8b 85 40 ff ff ff 	mov    -0xc0(%rbp),%rax
    400059fe:	8b 34 98             	mov    (%rax,%rbx,4),%esi
    40005a01:	85 f6                	test   %esi,%esi
    40005a03:	74 32                	je     40005a37 <printf_core+0x8f5>
    40005a05:	48 8b 95 50 ff ff ff 	mov    -0xb0(%rbp),%rdx
    40005a0c:	4c 89 e7             	mov    %r12,%rdi
    40005a0f:	48 ff c3             	inc    %rbx
    40005a12:	49 83 c4 10          	add    $0x10,%r12
    40005a16:	e8 12 e8 ff ff       	callq  4000422d <pop_arg>
    40005a1b:	48 83 fb 0a          	cmp    $0xa,%rbx
    40005a1f:	75 d6                	jne    400059f7 <printf_core+0x8b5>
    40005a21:	eb 14                	jmp    40005a37 <printf_core+0x8f5>
    40005a23:	48 8b 85 40 ff ff ff 	mov    -0xc0(%rbp),%rax
    40005a2a:	83 3c 98 00          	cmpl   $0x0,(%rax,%rbx,4)
    40005a2e:	0f 85 e6 f8 ff ff    	jne    4000531a <printf_core+0x1d8>
    40005a34:	48 ff c3             	inc    %rbx
    40005a37:	48 83 fb 0a          	cmp    $0xa,%rbx
    40005a3b:	75 e6                	jne    40005a23 <printf_core+0x8e1>
    40005a3d:	eb 13                	jmp    40005a52 <printf_core+0x910>
    40005a3f:	e8 7f c9 ff ff       	callq  400023c3 <__tls_errno_location>
    40005a44:	c7 00 4b 00 00 00    	movl   $0x4b,(%rax)
    40005a4a:	83 c8 ff             	or     $0xffffffff,%eax
    40005a4d:	e9 ab 00 00 00       	jmpq   40005afd <printf_core+0x9bb>
    40005a52:	b8 01 00 00 00       	mov    $0x1,%eax
    40005a57:	e9 a1 00 00 00       	jmpq   40005afd <printf_core+0x9bb>
    40005a5c:	49 81 fc ff ff ff 7f 	cmp    $0x7fffffff,%r12
    40005a63:	77 da                	ja     40005a3f <printf_core+0x8fd>
    40005a65:	8b 95 60 ff ff ff    	mov    -0xa0(%rbp),%edx
    40005a6b:	48 8b bd 68 ff ff ff 	mov    -0x98(%rbp),%rdi
    40005a72:	41 89 d8             	mov    %ebx,%r8d
    40005a75:	44 89 e1             	mov    %r12d,%ecx
    40005a78:	be 20 00 00 00       	mov    $0x20,%esi
    40005a7d:	45 89 e6             	mov    %r12d,%r14d
    40005a80:	45 31 ed             	xor    %r13d,%r13d
    40005a83:	e8 19 e9 ff ff       	callq  400043a1 <pad>
    40005a88:	4c 8b 7d 90          	mov    -0x70(%rbp),%r15
    40005a8c:	4d 39 e5             	cmp    %r12,%r13
    40005a8f:	72 35                	jb     40005ac6 <printf_core+0x984>
    40005a91:	80 f7 20             	xor    $0x20,%bh
    40005a94:	48 8b bd 68 ff ff ff 	mov    -0x98(%rbp),%rdi
    40005a9b:	44 89 f1             	mov    %r14d,%ecx
    40005a9e:	41 89 d8             	mov    %ebx,%r8d
    40005aa1:	8b 9d 60 ff ff ff    	mov    -0xa0(%rbp),%ebx
    40005aa7:	be 20 00 00 00       	mov    $0x20,%esi
    40005aac:	89 da                	mov    %ebx,%edx
    40005aae:	e8 ee e8 ff ff       	callq  400043a1 <pad>
    40005ab3:	41 39 de             	cmp    %ebx,%r14d
    40005ab6:	44 0f 4c f3          	cmovl  %ebx,%r14d
    40005aba:	44 89 b5 58 ff ff ff 	mov    %r14d,-0xa8(%rbp)
    40005ac1:	e9 ce f6 ff ff       	jmpq   40005194 <printf_core+0x52>
    40005ac6:	41 8b 37             	mov    (%r15),%esi
    40005ac9:	85 f6                	test   %esi,%esi
    40005acb:	74 c4                	je     40005a91 <printf_core+0x94f>
    40005acd:	48 8d bd 7c ff ff ff 	lea    -0x84(%rbp),%rdi
    40005ad4:	49 83 c7 04          	add    $0x4,%r15
    40005ad8:	e8 0e 09 00 00       	callq  400063eb <wctomb>
    40005add:	48 63 d0             	movslq %eax,%rdx
    40005ae0:	49 01 d5             	add    %rdx,%r13
    40005ae3:	4d 39 e5             	cmp    %r12,%r13
    40005ae6:	77 a9                	ja     40005a91 <printf_core+0x94f>
    40005ae8:	48 8b bd 68 ff ff ff 	mov    -0x98(%rbp),%rdi
    40005aef:	48 8d b5 7c ff ff ff 	lea    -0x84(%rbp),%rsi
    40005af6:	e8 1b e7 ff ff       	callq  40004216 <out>
    40005afb:	eb 8f                	jmp    40005a8c <printf_core+0x94a>
    40005afd:	48 8d 65 d8          	lea    -0x28(%rbp),%rsp
    40005b01:	5b                   	pop    %rbx
    40005b02:	41 5c                	pop    %r12
    40005b04:	41 5d                	pop    %r13
    40005b06:	41 5e                	pop    %r14
    40005b08:	41 5f                	pop    %r15
    40005b0a:	5d                   	pop    %rbp
    40005b0b:	c3                   	retq   

0000000040005b0c <vfprintf>:
    40005b0c:	41 57                	push   %r15
    40005b0e:	31 c0                	xor    %eax,%eax
    40005b10:	b9 0a 00 00 00       	mov    $0xa,%ecx
    40005b15:	41 56                	push   %r14
    40005b17:	41 55                	push   %r13
    40005b19:	49 89 f5             	mov    %rsi,%r13
    40005b1c:	48 89 d6             	mov    %rdx,%rsi
    40005b1f:	41 54                	push   %r12
    40005b21:	55                   	push   %rbp
    40005b22:	53                   	push   %rbx
    40005b23:	48 89 fb             	mov    %rdi,%rbx
    40005b26:	48 81 ec 38 01 00 00 	sub    $0x138,%rsp
    40005b2d:	48 8d 7c 24 18       	lea    0x18(%rsp),%rdi
    40005b32:	4c 8d 44 24 18       	lea    0x18(%rsp),%r8
    40005b37:	48 89 e2             	mov    %rsp,%rdx
    40005b3a:	48 89 e5             	mov    %rsp,%rbp
    40005b3d:	f3 ab                	rep stos %eax,%es:(%rdi)
    40005b3f:	48 89 e7             	mov    %rsp,%rdi
    40005b42:	b1 06                	mov    $0x6,%cl
    40005b44:	f3 a5                	rep movsl %ds:(%rsi),%es:(%rdi)
    40005b46:	48 8d 8c 24 90 00 00 	lea    0x90(%rsp),%rcx
    40005b4d:	00 
    40005b4e:	31 ff                	xor    %edi,%edi
    40005b50:	4c 89 ee             	mov    %r13,%rsi
    40005b53:	e8 ea f5 ff ff       	callq  40005142 <printf_core>
    40005b58:	85 c0                	test   %eax,%eax
    40005b5a:	79 08                	jns    40005b64 <vfprintf+0x58>
    40005b5c:	83 c8 ff             	or     $0xffffffff,%eax
    40005b5f:	e9 e0 00 00 00       	jmpq   40005c44 <vfprintf+0x138>
    40005b64:	8b 83 8c 00 00 00    	mov    0x8c(%rbx),%eax
    40005b6a:	45 31 e4             	xor    %r12d,%r12d
    40005b6d:	85 c0                	test   %eax,%eax
    40005b6f:	78 0b                	js     40005b7c <vfprintf+0x70>
    40005b71:	48 89 df             	mov    %rbx,%rdi
    40005b74:	e8 71 0a 00 00       	callq  400065ea <__lockfile>
    40005b79:	41 89 c4             	mov    %eax,%r12d
    40005b7c:	8b 03                	mov    (%rbx),%eax
    40005b7e:	41 89 c6             	mov    %eax,%r14d
    40005b81:	41 83 e6 20          	and    $0x20,%r14d
    40005b85:	80 bb 8a 00 00 00 00 	cmpb   $0x0,0x8a(%rbx)
    40005b8c:	7f 05                	jg     40005b93 <vfprintf+0x87>
    40005b8e:	83 e0 df             	and    $0xffffffdf,%eax
    40005b91:	89 03                	mov    %eax,(%rbx)
    40005b93:	45 31 ff             	xor    %r15d,%r15d
    40005b96:	48 83 7b 60 00       	cmpq   $0x0,0x60(%rbx)
    40005b9b:	75 29                	jne    40005bc6 <vfprintf+0xba>
    40005b9d:	48 8d 44 24 40       	lea    0x40(%rsp),%rax
    40005ba2:	4c 8b 7b 58          	mov    0x58(%rbx),%r15
    40005ba6:	48 c7 43 60 50 00 00 	movq   $0x50,0x60(%rbx)
    40005bad:	00 
    40005bae:	48 89 43 58          	mov    %rax,0x58(%rbx)
    40005bb2:	48 89 43 38          	mov    %rax,0x38(%rbx)
    40005bb6:	48 89 43 28          	mov    %rax,0x28(%rbx)
    40005bba:	48 8d 84 24 90 00 00 	lea    0x90(%rsp),%rax
    40005bc1:	00 
    40005bc2:	48 89 43 20          	mov    %rax,0x20(%rbx)
    40005bc6:	4c 8d 44 24 18       	lea    0x18(%rsp),%r8
    40005bcb:	48 8d 8c 24 90 00 00 	lea    0x90(%rsp),%rcx
    40005bd2:	00 
    40005bd3:	48 89 ea             	mov    %rbp,%rdx
    40005bd6:	4c 89 ee             	mov    %r13,%rsi
    40005bd9:	48 89 df             	mov    %rbx,%rdi
    40005bdc:	e8 61 f5 ff ff       	callq  40005142 <printf_core>
    40005be1:	4d 85 ff             	test   %r15,%r15
    40005be4:	89 c5                	mov    %eax,%ebp
    40005be6:	74 3b                	je     40005c23 <vfprintf+0x117>
    40005be8:	31 d2                	xor    %edx,%edx
    40005bea:	31 f6                	xor    %esi,%esi
    40005bec:	48 89 df             	mov    %rbx,%rdi
    40005bef:	ff 53 48             	callq  *0x48(%rbx)
    40005bf2:	48 83 7b 28 00       	cmpq   $0x0,0x28(%rbx)
    40005bf7:	b8 ff ff ff ff       	mov    $0xffffffff,%eax
    40005bfc:	4c 89 7b 58          	mov    %r15,0x58(%rbx)
    40005c00:	48 c7 43 60 00 00 00 	movq   $0x0,0x60(%rbx)
    40005c07:	00 
    40005c08:	48 c7 43 20 00 00 00 	movq   $0x0,0x20(%rbx)
    40005c0f:	00 
    40005c10:	48 c7 43 38 00 00 00 	movq   $0x0,0x38(%rbx)
    40005c17:	00 
    40005c18:	48 c7 43 28 00 00 00 	movq   $0x0,0x28(%rbx)
    40005c1f:	00 
    40005c20:	0f 44 e8             	cmove  %eax,%ebp
    40005c23:	8b 03                	mov    (%rbx),%eax
    40005c25:	ba ff ff ff ff       	mov    $0xffffffff,%edx
    40005c2a:	a8 20                	test   $0x20,%al
    40005c2c:	0f 45 ea             	cmovne %edx,%ebp
    40005c2f:	41 09 c6             	or     %eax,%r14d
    40005c32:	45 85 e4             	test   %r12d,%r12d
    40005c35:	44 89 33             	mov    %r14d,(%rbx)
    40005c38:	74 08                	je     40005c42 <vfprintf+0x136>
    40005c3a:	48 89 df             	mov    %rbx,%rdi
    40005c3d:	e8 fe 09 00 00       	callq  40006640 <__unlockfile>
    40005c42:	89 e8                	mov    %ebp,%eax
    40005c44:	48 81 c4 38 01 00 00 	add    $0x138,%rsp
    40005c4b:	5b                   	pop    %rbx
    40005c4c:	5d                   	pop    %rbp
    40005c4d:	41 5c                	pop    %r12
    40005c4f:	41 5d                	pop    %r13
    40005c51:	41 5e                	pop    %r14
    40005c53:	41 5f                	pop    %r15
    40005c55:	c3                   	retq   

0000000040005c56 <do_read>:
    40005c56:	e9 7a 0c 00 00       	jmpq   400068d5 <__string_read>

0000000040005c5b <vsscanf>:
    40005c5b:	48 81 ec f8 00 00 00 	sub    $0xf8,%rsp
    40005c62:	49 89 f9             	mov    %rdi,%r9
    40005c65:	31 c0                	xor    %eax,%eax
    40005c67:	48 8d 7c 24 08       	lea    0x8(%rsp),%rdi
    40005c6c:	b9 3a 00 00 00       	mov    $0x3a,%ecx
    40005c71:	f3 ab                	rep stos %eax,%es:(%rdi)
    40005c73:	48 8d 7c 24 08       	lea    0x8(%rsp),%rdi
    40005c78:	48 c7 44 24 48 56 5c 	movq   $0x40005c56,0x48(%rsp)
    40005c7f:	00 40 
    40005c81:	4c 89 4c 24 60       	mov    %r9,0x60(%rsp)
    40005c86:	c7 84 24 94 00 00 00 	movl   $0xffffffff,0x94(%rsp)
    40005c8d:	ff ff ff ff 
    40005c91:	4c 89 8c 24 a0 00 00 	mov    %r9,0xa0(%rsp)
    40005c98:	00 
    40005c99:	e8 ad 0e 00 00       	callq  40006b4b <vfscanf>
    40005c9e:	48 81 c4 f8 00 00 00 	add    $0xf8,%rsp
    40005ca5:	c3                   	retq   
    40005ca6:	66 2e 0f 1f 84 00 00 	nopw   %cs:0x0(%rax,%rax,1)
    40005cad:	00 00 00 

0000000040005cb0 <memchr>:
    40005cb0:	40 f6 c7 07          	test   $0x7,%dil
    40005cb4:	40 0f b6 f6          	movzbl %sil,%esi
    40005cb8:	75 1f                	jne    40005cd9 <memchr+0x29>
    40005cba:	eb 2c                	jmp    40005ce8 <memchr+0x38>
    40005cbc:	0f 1f 40 00          	nopl   0x0(%rax)
    40005cc0:	0f b6 07             	movzbl (%rdi),%eax
    40005cc3:	39 f0                	cmp    %esi,%eax
    40005cc5:	0f 84 d5 00 00 00    	je     40005da0 <memchr+0xf0>
    40005ccb:	48 83 c7 01          	add    $0x1,%rdi
    40005ccf:	48 83 ea 01          	sub    $0x1,%rdx
    40005cd3:	40 f6 c7 07          	test   $0x7,%dil
    40005cd7:	74 0f                	je     40005ce8 <memchr+0x38>
    40005cd9:	48 85 d2             	test   %rdx,%rdx
    40005cdc:	75 e2                	jne    40005cc0 <memchr+0x10>
    40005cde:	31 c0                	xor    %eax,%eax
    40005ce0:	c3                   	retq   
    40005ce1:	0f 1f 80 00 00 00 00 	nopl   0x0(%rax)
    40005ce8:	31 c0                	xor    %eax,%eax
    40005cea:	48 85 d2             	test   %rdx,%rdx
    40005ced:	0f 84 b0 00 00 00    	je     40005da3 <memchr+0xf3>
    40005cf3:	0f b6 07             	movzbl (%rdi),%eax
    40005cf6:	39 c6                	cmp    %eax,%esi
    40005cf8:	0f 84 a2 00 00 00    	je     40005da0 <memchr+0xf0>
    40005cfe:	4c 63 c6             	movslq %esi,%r8
    40005d01:	48 b9 01 01 01 01 01 	movabs $0x101010101010101,%rcx
    40005d08:	01 01 01 
    40005d0b:	4c 0f af c1          	imul   %rcx,%r8
    40005d0f:	48 83 fa 07          	cmp    $0x7,%rdx
    40005d13:	76 5f                	jbe    40005d74 <memchr+0xc4>
    40005d15:	4d 89 c1             	mov    %r8,%r9
    40005d18:	4c 33 0f             	xor    (%rdi),%r9
    40005d1b:	4c 89 c8             	mov    %r9,%rax
    40005d1e:	49 29 c9             	sub    %rcx,%r9
    40005d21:	48 f7 d0             	not    %rax
    40005d24:	4c 21 c8             	and    %r9,%rax
    40005d27:	49 b9 80 80 80 80 80 	movabs $0x8080808080808080,%r9
    40005d2e:	80 80 80 
    40005d31:	4c 85 c8             	test   %r9,%rax
    40005d34:	75 3e                	jne    40005d74 <memchr+0xc4>
    40005d36:	49 ba ff fe fe fe fe 	movabs $0xfefefefefefefeff,%r10
    40005d3d:	fe fe fe 
    40005d40:	eb 1b                	jmp    40005d5d <memchr+0xad>
    40005d42:	66 0f 1f 44 00 00    	nopw   0x0(%rax,%rax,1)
    40005d48:	4c 89 c1             	mov    %r8,%rcx
    40005d4b:	48 33 0f             	xor    (%rdi),%rcx
    40005d4e:	4a 8d 04 11          	lea    (%rcx,%r10,1),%rax
    40005d52:	48 f7 d1             	not    %rcx
    40005d55:	48 21 c8             	and    %rcx,%rax
    40005d58:	4c 85 c8             	test   %r9,%rax
    40005d5b:	75 17                	jne    40005d74 <memchr+0xc4>
    40005d5d:	48 83 ea 08          	sub    $0x8,%rdx
    40005d61:	48 83 c7 08          	add    $0x8,%rdi
    40005d65:	48 83 fa 07          	cmp    $0x7,%rdx
    40005d69:	77 dd                	ja     40005d48 <memchr+0x98>
    40005d6b:	48 85 d2             	test   %rdx,%rdx
    40005d6e:	0f 84 6a ff ff ff    	je     40005cde <memchr+0x2e>
    40005d74:	0f b6 0f             	movzbl (%rdi),%ecx
    40005d77:	48 01 fa             	add    %rdi,%rdx
    40005d7a:	48 8d 47 01          	lea    0x1(%rdi),%rax
    40005d7e:	39 f1                	cmp    %esi,%ecx
    40005d80:	75 11                	jne    40005d93 <memchr+0xe3>
    40005d82:	eb 1c                	jmp    40005da0 <memchr+0xf0>
    40005d84:	0f 1f 40 00          	nopl   0x0(%rax)
    40005d88:	0f b6 0f             	movzbl (%rdi),%ecx
    40005d8b:	48 83 c0 01          	add    $0x1,%rax
    40005d8f:	39 f1                	cmp    %esi,%ecx
    40005d91:	74 0d                	je     40005da0 <memchr+0xf0>
    40005d93:	48 39 d0             	cmp    %rdx,%rax
    40005d96:	48 89 c7             	mov    %rax,%rdi
    40005d99:	75 ed                	jne    40005d88 <memchr+0xd8>
    40005d9b:	e9 3e ff ff ff       	jmpq   40005cde <memchr+0x2e>
    40005da0:	48 89 f8             	mov    %rdi,%rax
    40005da3:	f3 c3                	repz retq 
    40005da5:	66 2e 0f 1f 84 00 00 	nopw   %cs:0x0(%rax,%rax,1)
    40005dac:	00 00 00 
    40005daf:	90                   	nop

0000000040005db0 <strchr>:
    40005db0:	53                   	push   %rbx
    40005db1:	89 f3                	mov    %esi,%ebx
    40005db3:	e8 18 00 00 00       	callq  40005dd0 <__strchrnul>
    40005db8:	31 d2                	xor    %edx,%edx
    40005dba:	38 18                	cmp    %bl,(%rax)
    40005dbc:	5b                   	pop    %rbx
    40005dbd:	48 0f 44 d0          	cmove  %rax,%rdx
    40005dc1:	48 89 d0             	mov    %rdx,%rax
    40005dc4:	c3                   	retq   
    40005dc5:	66 2e 0f 1f 84 00 00 	nopw   %cs:0x0(%rax,%rax,1)
    40005dcc:	00 00 00 
    40005dcf:	90                   	nop

0000000040005dd0 <__strchrnul>:
    40005dd0:	40 0f b6 f6          	movzbl %sil,%esi
    40005dd4:	53                   	push   %rbx
    40005dd5:	48 89 fb             	mov    %rdi,%rbx
    40005dd8:	85 f6                	test   %esi,%esi
    40005dda:	75 23                	jne    40005dff <__strchrnul+0x2f>
    40005ddc:	e9 c4 00 00 00       	jmpq   40005ea5 <__strchrnul+0xd5>
    40005de1:	0f 1f 80 00 00 00 00 	nopl   0x0(%rax)
    40005de8:	0f b6 03             	movzbl (%rbx),%eax
    40005deb:	84 c0                	test   %al,%al
    40005ded:	0f 84 ad 00 00 00    	je     40005ea0 <__strchrnul+0xd0>
    40005df3:	39 f0                	cmp    %esi,%eax
    40005df5:	0f 84 a5 00 00 00    	je     40005ea0 <__strchrnul+0xd0>
    40005dfb:	48 83 c3 01          	add    $0x1,%rbx
    40005dff:	f6 c3 07             	test   $0x7,%bl
    40005e02:	75 e4                	jne    40005de8 <__strchrnul+0x18>
    40005e04:	48 b9 01 01 01 01 01 	movabs $0x101010101010101,%rcx
    40005e0b:	01 01 01 
    40005e0e:	4c 63 c6             	movslq %esi,%r8
    40005e11:	48 8b 3b             	mov    (%rbx),%rdi
    40005e14:	4c 0f af c1          	imul   %rcx,%r8
    40005e18:	49 b9 80 80 80 80 80 	movabs $0x8080808080808080,%r9
    40005e1f:	80 80 80 
    40005e22:	48 89 fa             	mov    %rdi,%rdx
    40005e25:	4c 31 c2             	xor    %r8,%rdx
    40005e28:	48 89 d0             	mov    %rdx,%rax
    40005e2b:	48 29 ca             	sub    %rcx,%rdx
    40005e2e:	48 f7 d0             	not    %rax
    40005e31:	48 21 d0             	and    %rdx,%rax
    40005e34:	48 89 fa             	mov    %rdi,%rdx
    40005e37:	48 29 cf             	sub    %rcx,%rdi
    40005e3a:	48 f7 d2             	not    %rdx
    40005e3d:	48 21 fa             	and    %rdi,%rdx
    40005e40:	48 09 d0             	or     %rdx,%rax
    40005e43:	4c 85 c8             	test   %r9,%rax
    40005e46:	75 3d                	jne    40005e85 <__strchrnul+0xb5>
    40005e48:	48 bf ff fe fe fe fe 	movabs $0xfefefefefefefeff,%rdi
    40005e4f:	fe fe fe 
    40005e52:	66 0f 1f 44 00 00    	nopw   0x0(%rax,%rax,1)
    40005e58:	48 83 c3 08          	add    $0x8,%rbx
    40005e5c:	48 8b 0b             	mov    (%rbx),%rcx
    40005e5f:	4c 89 c2             	mov    %r8,%rdx
    40005e62:	48 31 ca             	xor    %rcx,%rdx
    40005e65:	48 89 d0             	mov    %rdx,%rax
    40005e68:	48 01 fa             	add    %rdi,%rdx
    40005e6b:	48 f7 d0             	not    %rax
    40005e6e:	48 21 d0             	and    %rdx,%rax
    40005e71:	48 89 ca             	mov    %rcx,%rdx
    40005e74:	48 01 f9             	add    %rdi,%rcx
    40005e77:	48 f7 d2             	not    %rdx
    40005e7a:	48 21 ca             	and    %rcx,%rdx
    40005e7d:	48 09 d0             	or     %rdx,%rax
    40005e80:	4c 85 c8             	test   %r9,%rax
    40005e83:	74 d3                	je     40005e58 <__strchrnul+0x88>
    40005e85:	0f b6 03             	movzbl (%rbx),%eax
    40005e88:	84 c0                	test   %al,%al
    40005e8a:	75 0f                	jne    40005e9b <__strchrnul+0xcb>
    40005e8c:	eb 12                	jmp    40005ea0 <__strchrnul+0xd0>
    40005e8e:	66 90                	xchg   %ax,%ax
    40005e90:	48 83 c3 01          	add    $0x1,%rbx
    40005e94:	0f b6 03             	movzbl (%rbx),%eax
    40005e97:	84 c0                	test   %al,%al
    40005e99:	74 05                	je     40005ea0 <__strchrnul+0xd0>
    40005e9b:	39 f0                	cmp    %esi,%eax
    40005e9d:	75 f1                	jne    40005e90 <__strchrnul+0xc0>
    40005e9f:	90                   	nop
    40005ea0:	48 89 d8             	mov    %rbx,%rax
    40005ea3:	5b                   	pop    %rbx
    40005ea4:	c3                   	retq   
    40005ea5:	e8 16 00 00 00       	callq  40005ec0 <strlen>
    40005eaa:	48 01 d8             	add    %rbx,%rax
    40005ead:	5b                   	pop    %rbx
    40005eae:	c3                   	retq   
    40005eaf:	90                   	nop

0000000040005eb0 <strcpy>:
    40005eb0:	53                   	push   %rbx
    40005eb1:	48 89 fb             	mov    %rdi,%rbx
    40005eb4:	e8 b7 15 00 00       	callq  40007470 <__stpcpy>
    40005eb9:	48 89 d8             	mov    %rbx,%rax
    40005ebc:	5b                   	pop    %rbx
    40005ebd:	c3                   	retq   
    40005ebe:	66 90                	xchg   %ax,%ax

0000000040005ec0 <strlen>:
    40005ec0:	40 f6 c7 07          	test   $0x7,%dil
    40005ec4:	74 67                	je     40005f2d <strlen+0x6d>
    40005ec6:	80 3f 00             	cmpb   $0x0,(%rdi)
    40005ec9:	48 89 f8             	mov    %rdi,%rax
    40005ecc:	75 07                	jne    40005ed5 <strlen+0x15>
    40005ece:	eb 62                	jmp    40005f32 <strlen+0x72>
    40005ed0:	80 38 00             	cmpb   $0x0,(%rax)
    40005ed3:	74 54                	je     40005f29 <strlen+0x69>
    40005ed5:	48 83 c0 01          	add    $0x1,%rax
    40005ed9:	a8 07                	test   $0x7,%al
    40005edb:	75 f3                	jne    40005ed0 <strlen+0x10>
    40005edd:	48 8b 08             	mov    (%rax),%rcx
    40005ee0:	49 b8 ff fe fe fe fe 	movabs $0xfefefefefefefeff,%r8
    40005ee7:	fe fe fe 
    40005eea:	48 be 80 80 80 80 80 	movabs $0x8080808080808080,%rsi
    40005ef1:	80 80 80 
    40005ef4:	4a 8d 14 01          	lea    (%rcx,%r8,1),%rdx
    40005ef8:	48 f7 d1             	not    %rcx
    40005efb:	48 21 ca             	and    %rcx,%rdx
    40005efe:	48 85 f2             	test   %rsi,%rdx
    40005f01:	75 21                	jne    40005f24 <strlen+0x64>
    40005f03:	0f 1f 44 00 00       	nopl   0x0(%rax,%rax,1)
    40005f08:	48 83 c0 08          	add    $0x8,%rax
    40005f0c:	48 8b 08             	mov    (%rax),%rcx
    40005f0f:	4a 8d 14 01          	lea    (%rcx,%r8,1),%rdx
    40005f13:	48 f7 d1             	not    %rcx
    40005f16:	48 21 ca             	and    %rcx,%rdx
    40005f19:	48 85 f2             	test   %rsi,%rdx
    40005f1c:	74 ea                	je     40005f08 <strlen+0x48>
    40005f1e:	eb 04                	jmp    40005f24 <strlen+0x64>
    40005f20:	48 83 c0 01          	add    $0x1,%rax
    40005f24:	80 38 00             	cmpb   $0x0,(%rax)
    40005f27:	75 f7                	jne    40005f20 <strlen+0x60>
    40005f29:	48 29 f8             	sub    %rdi,%rax
    40005f2c:	c3                   	retq   
    40005f2d:	48 89 f8             	mov    %rdi,%rax
    40005f30:	eb ab                	jmp    40005edd <strlen+0x1d>
    40005f32:	31 c0                	xor    %eax,%eax
    40005f34:	c3                   	retq   
    40005f35:	66 2e 0f 1f 84 00 00 	nopw   %cs:0x0(%rax,%rax,1)
    40005f3c:	00 00 00 
    40005f3f:	90                   	nop

0000000040005f40 <strnlen>:
    40005f40:	55                   	push   %rbp
    40005f41:	48 89 f2             	mov    %rsi,%rdx
    40005f44:	48 89 fd             	mov    %rdi,%rbp
    40005f47:	53                   	push   %rbx
    40005f48:	48 89 f3             	mov    %rsi,%rbx
    40005f4b:	31 f6                	xor    %esi,%esi
    40005f4d:	48 83 ec 08          	sub    $0x8,%rsp
    40005f51:	e8 5a fd ff ff       	callq  40005cb0 <memchr>
    40005f56:	48 89 c2             	mov    %rax,%rdx
    40005f59:	48 29 ea             	sub    %rbp,%rdx
    40005f5c:	48 85 c0             	test   %rax,%rax
    40005f5f:	48 89 d8             	mov    %rbx,%rax
    40005f62:	48 0f 45 c2          	cmovne %rdx,%rax
    40005f66:	48 83 c4 08          	add    $0x8,%rsp
    40005f6a:	5b                   	pop    %rbx
    40005f6b:	5d                   	pop    %rbp
    40005f6c:	c3                   	retq   

0000000040005f6d <memcpy>:
    40005f6d:	48 89 f8             	mov    %rdi,%rax
    40005f70:	48 83 fa 08          	cmp    $0x8,%rdx
    40005f74:	72 14                	jb     40005f8a <memcpy+0x1d>
    40005f76:	f7 c7 07 00 00 00    	test   $0x7,%edi
    40005f7c:	74 0c                	je     40005f8a <memcpy+0x1d>
    40005f7e:	a4                   	movsb  %ds:(%rsi),%es:(%rdi)
    40005f7f:	48 ff ca             	dec    %rdx
    40005f82:	f7 c7 07 00 00 00    	test   $0x7,%edi
    40005f88:	75 f4                	jne    40005f7e <memcpy+0x11>
    40005f8a:	48 89 d1             	mov    %rdx,%rcx
    40005f8d:	48 c1 e9 03          	shr    $0x3,%rcx
    40005f91:	f3 48 a5             	rep movsq %ds:(%rsi),%es:(%rdi)
    40005f94:	83 e2 07             	and    $0x7,%edx
    40005f97:	74 05                	je     40005f9e <memcpy+0x31>
    40005f99:	a4                   	movsb  %ds:(%rsi),%es:(%rdi)
    40005f9a:	ff ca                	dec    %edx
    40005f9c:	75 fb                	jne    40005f99 <memcpy+0x2c>
    40005f9e:	c3                   	retq   

0000000040005f9f <memset>:
    40005f9f:	48 0f b6 c6          	movzbq %sil,%rax
    40005fa3:	49 b8 01 01 01 01 01 	movabs $0x101010101010101,%r8
    40005faa:	01 01 01 
    40005fad:	49 0f af c0          	imul   %r8,%rax
    40005fb1:	48 83 fa 7e          	cmp    $0x7e,%rdx
    40005fb5:	77 78                	ja     4000602f <memset+0x90>
    40005fb7:	85 d2                	test   %edx,%edx
    40005fb9:	74 70                	je     4000602b <memset+0x8c>
    40005fbb:	40 88 37             	mov    %sil,(%rdi)
    40005fbe:	40 88 74 17 ff       	mov    %sil,-0x1(%rdi,%rdx,1)
    40005fc3:	83 fa 02             	cmp    $0x2,%edx
    40005fc6:	76 63                	jbe    4000602b <memset+0x8c>
    40005fc8:	66 89 47 01          	mov    %ax,0x1(%rdi)
    40005fcc:	66 89 44 17 fd       	mov    %ax,-0x3(%rdi,%rdx,1)
    40005fd1:	83 fa 06             	cmp    $0x6,%edx
    40005fd4:	76 55                	jbe    4000602b <memset+0x8c>
    40005fd6:	89 47 03             	mov    %eax,0x3(%rdi)
    40005fd9:	89 44 17 f9          	mov    %eax,-0x7(%rdi,%rdx,1)
    40005fdd:	83 fa 0e             	cmp    $0xe,%edx
    40005fe0:	76 49                	jbe    4000602b <memset+0x8c>
    40005fe2:	48 89 47 07          	mov    %rax,0x7(%rdi)
    40005fe6:	48 89 44 17 f1       	mov    %rax,-0xf(%rdi,%rdx,1)
    40005feb:	83 fa 1e             	cmp    $0x1e,%edx
    40005fee:	76 3b                	jbe    4000602b <memset+0x8c>
    40005ff0:	48 89 47 0f          	mov    %rax,0xf(%rdi)
    40005ff4:	48 89 47 17          	mov    %rax,0x17(%rdi)
    40005ff8:	48 89 44 17 e1       	mov    %rax,-0x1f(%rdi,%rdx,1)
    40005ffd:	48 89 44 17 e9       	mov    %rax,-0x17(%rdi,%rdx,1)
    40006002:	83 fa 3e             	cmp    $0x3e,%edx
    40006005:	76 24                	jbe    4000602b <memset+0x8c>
    40006007:	48 89 47 1f          	mov    %rax,0x1f(%rdi)
    4000600b:	48 89 47 27          	mov    %rax,0x27(%rdi)
    4000600f:	48 89 47 2f          	mov    %rax,0x2f(%rdi)
    40006013:	48 89 47 37          	mov    %rax,0x37(%rdi)
    40006017:	48 89 44 17 c1       	mov    %rax,-0x3f(%rdi,%rdx,1)
    4000601c:	48 89 44 17 c9       	mov    %rax,-0x37(%rdi,%rdx,1)
    40006021:	48 89 44 17 d1       	mov    %rax,-0x2f(%rdi,%rdx,1)
    40006026:	48 89 44 17 d9       	mov    %rax,-0x27(%rdi,%rdx,1)
    4000602b:	48 89 f8             	mov    %rdi,%rax
    4000602e:	c3                   	retq   
    4000602f:	f7 c7 0f 00 00 00    	test   $0xf,%edi
    40006035:	49 89 f8             	mov    %rdi,%r8
    40006038:	48 89 44 17 f8       	mov    %rax,-0x8(%rdi,%rdx,1)
    4000603d:	48 89 d1             	mov    %rdx,%rcx
    40006040:	75 0b                	jne    4000604d <memset+0xae>
    40006042:	48 c1 e9 03          	shr    $0x3,%rcx
    40006046:	f3 48 ab             	rep stos %rax,%es:(%rdi)
    40006049:	4c 89 c0             	mov    %r8,%rax
    4000604c:	c3                   	retq   
    4000604d:	31 d2                	xor    %edx,%edx
    4000604f:	29 fa                	sub    %edi,%edx
    40006051:	83 e2 0f             	and    $0xf,%edx
    40006054:	48 89 07             	mov    %rax,(%rdi)
    40006057:	48 89 47 08          	mov    %rax,0x8(%rdi)
    4000605b:	48 29 d1             	sub    %rdx,%rcx
    4000605e:	48 01 d7             	add    %rdx,%rdi
    40006061:	eb df                	jmp    40006042 <memset+0xa3>

0000000040006063 <__lock>:
    40006063:	55                   	push   %rbp
    40006064:	48 8d 6f 04          	lea    0x4(%rdi),%rbp
    40006068:	53                   	push   %rbx
    40006069:	48 89 fb             	mov    %rdi,%rbx
    4000606c:	52                   	push   %rdx
    4000606d:	8b 05 39 f8 3f 00    	mov    0x3ff839(%rip),%eax        # 404058ac <__libc+0xc>
    40006073:	85 c0                	test   %eax,%eax
    40006075:	74 22                	je     40006099 <__lock+0x36>
    40006077:	b8 01 00 00 00       	mov    $0x1,%eax
    4000607c:	87 03                	xchg   %eax,(%rbx)
    4000607e:	85 c0                	test   %eax,%eax
    40006080:	74 17                	je     40006099 <__lock+0x36>
    40006082:	b9 01 00 00 00       	mov    $0x1,%ecx
    40006087:	ba 01 00 00 00       	mov    $0x1,%edx
    4000608c:	48 89 ee             	mov    %rbp,%rsi
    4000608f:	48 89 df             	mov    %rbx,%rdi
    40006092:	e8 57 00 00 00       	callq  400060ee <__wait>
    40006097:	eb de                	jmp    40006077 <__lock+0x14>
    40006099:	58                   	pop    %rax
    4000609a:	5b                   	pop    %rbx
    4000609b:	5d                   	pop    %rbp
    4000609c:	c3                   	retq   

000000004000609d <__unlock>:
    4000609d:	53                   	push   %rbx
    4000609e:	8b 07                	mov    (%rdi),%eax
    400060a0:	48 89 fb             	mov    %rdi,%rbx
    400060a3:	85 c0                	test   %eax,%eax
    400060a5:	74 45                	je     400060ec <__unlock+0x4f>
    400060a7:	31 c0                	xor    %eax,%eax
    400060a9:	89 07                	mov    %eax,(%rdi)
    400060ab:	f0 83 0c 24 00       	lock orl $0x0,(%rsp)
    400060b0:	8b 47 04             	mov    0x4(%rdi),%eax
    400060b3:	85 c0                	test   %eax,%eax
    400060b5:	74 35                	je     400060ec <__unlock+0x4f>
    400060b7:	48 89 fe             	mov    %rdi,%rsi
    400060ba:	b9 01 00 00 00       	mov    $0x1,%ecx
    400060bf:	ba 81 00 00 00       	mov    $0x81,%edx
    400060c4:	bf ca 00 00 00       	mov    $0xca,%edi
    400060c9:	e8 28 40 00 00       	callq  4000a0f6 <ocall_syscall3>
    400060ce:	48 83 f8 da          	cmp    $0xffffffffffffffda,%rax
    400060d2:	75 18                	jne    400060ec <__unlock+0x4f>
    400060d4:	48 89 de             	mov    %rbx,%rsi
    400060d7:	b9 01 00 00 00       	mov    $0x1,%ecx
    400060dc:	ba 01 00 00 00       	mov    $0x1,%edx
    400060e1:	5b                   	pop    %rbx
    400060e2:	bf ca 00 00 00       	mov    $0xca,%edi
    400060e7:	e9 0a 40 00 00       	jmpq   4000a0f6 <ocall_syscall3>
    400060ec:	5b                   	pop    %rbx
    400060ed:	c3                   	retq   

00000000400060ee <__wait>:
    400060ee:	41 56                	push   %r14
    400060f0:	89 c8                	mov    %ecx,%eax
    400060f2:	85 c9                	test   %ecx,%ecx
    400060f4:	41 55                	push   %r13
    400060f6:	41 54                	push   %r12
    400060f8:	41 89 d4             	mov    %edx,%r12d
    400060fb:	ba 80 00 00 00       	mov    $0x80,%edx
    40006100:	0f 45 c2             	cmovne %edx,%eax
    40006103:	b2 65                	mov    $0x65,%dl
    40006105:	55                   	push   %rbp
    40006106:	48 89 fd             	mov    %rdi,%rbp
    40006109:	53                   	push   %rbx
    4000610a:	48 89 f3             	mov    %rsi,%rbx
    4000610d:	ff ca                	dec    %edx
    4000610f:	74 19                	je     4000612a <__wait+0x3c>
    40006111:	48 85 db             	test   %rbx,%rbx
    40006114:	75 0c                	jne    40006122 <__wait+0x34>
    40006116:	8b 4d 00             	mov    0x0(%rbp),%ecx
    40006119:	44 39 e1             	cmp    %r12d,%ecx
    4000611c:	75 5d                	jne    4000617b <__wait+0x8d>
    4000611e:	f3 90                	pause  
    40006120:	eb eb                	jmp    4000610d <__wait+0x1f>
    40006122:	8b 0b                	mov    (%rbx),%ecx
    40006124:	85 c9                	test   %ecx,%ecx
    40006126:	74 ee                	je     40006116 <__wait+0x28>
    40006128:	eb 05                	jmp    4000612f <__wait+0x41>
    4000612a:	48 85 db             	test   %rbx,%rbx
    4000612d:	74 03                	je     40006132 <__wait+0x44>
    4000612f:	f0 ff 03             	lock incl (%rbx)
    40006132:	4d 63 ec             	movslq %r12d,%r13
    40006135:	4c 63 f0             	movslq %eax,%r14
    40006138:	8b 45 00             	mov    0x0(%rbp),%eax
    4000613b:	44 39 e0             	cmp    %r12d,%eax
    4000613e:	75 33                	jne    40006173 <__wait+0x85>
    40006140:	45 31 c0             	xor    %r8d,%r8d
    40006143:	4c 89 e9             	mov    %r13,%rcx
    40006146:	4c 89 f2             	mov    %r14,%rdx
    40006149:	48 89 ee             	mov    %rbp,%rsi
    4000614c:	bf ca 00 00 00       	mov    $0xca,%edi
    40006151:	e8 a2 44 00 00       	callq  4000a5f8 <ocall_syscall4>
    40006156:	48 83 f8 da          	cmp    $0xffffffffffffffda,%rax
    4000615a:	75 dc                	jne    40006138 <__wait+0x4a>
    4000615c:	45 31 c0             	xor    %r8d,%r8d
    4000615f:	4c 89 e9             	mov    %r13,%rcx
    40006162:	31 d2                	xor    %edx,%edx
    40006164:	48 89 ee             	mov    %rbp,%rsi
    40006167:	bf ca 00 00 00       	mov    $0xca,%edi
    4000616c:	e8 87 44 00 00       	callq  4000a5f8 <ocall_syscall4>
    40006171:	eb c5                	jmp    40006138 <__wait+0x4a>
    40006173:	48 85 db             	test   %rbx,%rbx
    40006176:	74 03                	je     4000617b <__wait+0x8d>
    40006178:	f0 ff 0b             	lock decl (%rbx)
    4000617b:	5b                   	pop    %rbx
    4000617c:	5d                   	pop    %rbp
    4000617d:	41 5c                	pop    %r12
    4000617f:	41 5d                	pop    %r13
    40006181:	41 5e                	pop    %r14
    40006183:	c3                   	retq   

0000000040006184 <__strerror_l>:
    40006184:	31 c0                	xor    %eax,%eax
    40006186:	0f b6 88 70 0f 40 40 	movzbl 0x40400f70(%rax),%ecx
    4000618d:	89 c2                	mov    %eax,%edx
    4000618f:	84 c9                	test   %cl,%cl
    40006191:	75 07                	jne    4000619a <__strerror_l+0x16>
    40006193:	bf 60 08 40 40       	mov    $0x40400860,%edi
    40006198:	eb 14                	jmp    400061ae <__strerror_l+0x2a>
    4000619a:	48 ff c0             	inc    %rax
    4000619d:	39 f9                	cmp    %edi,%ecx
    4000619f:	75 e5                	jne    40006186 <__strerror_l+0x2>
    400061a1:	eb f0                	jmp    40006193 <__strerror_l+0xf>
    400061a3:	80 3f 00             	cmpb   $0x0,(%rdi)
    400061a6:	48 8d 7f 01          	lea    0x1(%rdi),%rdi
    400061aa:	75 f7                	jne    400061a3 <__strerror_l+0x1f>
    400061ac:	ff ca                	dec    %edx
    400061ae:	85 d2                	test   %edx,%edx
    400061b0:	75 f1                	jne    400061a3 <__strerror_l+0x1f>
    400061b2:	48 8b 76 28          	mov    0x28(%rsi),%rsi
    400061b6:	e9 6c 00 00 00       	jmpq   40006227 <__lctrans>

00000000400061bb <strerror>:
    400061bb:	64 48 8b 04 25 00 00 	mov    %fs:0x0,%rax
    400061c2:	00 00 
    400061c4:	48 8b b0 c8 00 00 00 	mov    0xc8(%rax),%rsi
    400061cb:	e9 b4 ff ff ff       	jmpq   40006184 <__strerror_l>

00000000400061d0 <_Exit>:
    400061d0:	53                   	push   %rbx
    400061d1:	48 63 df             	movslq %edi,%rbx
    400061d4:	bf e7 00 00 00       	mov    $0xe7,%edi
    400061d9:	48 89 de             	mov    %rbx,%rsi
    400061dc:	e8 99 3a 00 00       	callq  40009c7a <ocall_syscall1>
    400061e1:	48 89 de             	mov    %rbx,%rsi
    400061e4:	bf 3c 00 00 00       	mov    $0x3c,%edi
    400061e9:	eb f1                	jmp    400061dc <_Exit+0xc>
    400061eb:	0f 1f 44 00 00       	nopl   0x0(%rax,%rax,1)

00000000400061f0 <__syscall_ret>:
    400061f0:	48 81 ff 00 f0 ff ff 	cmp    $0xfffffffffffff000,%rdi
    400061f7:	77 07                	ja     40006200 <__syscall_ret+0x10>
    400061f9:	48 89 f8             	mov    %rdi,%rax
    400061fc:	c3                   	retq   
    400061fd:	0f 1f 00             	nopl   (%rax)
    40006200:	48 83 ec 18          	sub    $0x18,%rsp
    40006204:	48 89 7c 24 08       	mov    %rdi,0x8(%rsp)
    40006209:	e8 b5 c1 ff ff       	callq  400023c3 <__tls_errno_location>
    4000620e:	48 8b 7c 24 08       	mov    0x8(%rsp),%rdi
    40006213:	f7 df                	neg    %edi
    40006215:	89 38                	mov    %edi,(%rax)
    40006217:	48 c7 c0 ff ff ff ff 	mov    $0xffffffffffffffff,%rax
    4000621e:	48 83 c4 18          	add    $0x18,%rsp
    40006222:	c3                   	retq   

0000000040006223 <__lctrans_impl>:
    40006223:	48 89 f8             	mov    %rdi,%rax
    40006226:	c3                   	retq   

0000000040006227 <__lctrans>:
    40006227:	e9 f7 ff ff ff       	jmpq   40006223 <__lctrans_impl>

000000004000622c <__lctrans_cur>:
    4000622c:	64 48 8b 04 25 00 00 	mov    %fs:0x0,%rax
    40006233:	00 00 
    40006235:	48 8b 80 c8 00 00 00 	mov    0xc8(%rax),%rax
    4000623c:	48 8b 70 28          	mov    0x28(%rax),%rsi
    40006240:	e9 de ff ff ff       	jmpq   40006223 <__lctrans_impl>
    40006245:	66 2e 0f 1f 84 00 00 	nopw   %cs:0x0(%rax,%rax,1)
    4000624c:	00 00 00 
    4000624f:	90                   	nop

0000000040006250 <__expand_heap>:
    40006250:	55                   	push   %rbp
    40006251:	48 ba ff ef ff ff ff 	movabs $0x7fffffffffffefff,%rdx
    40006258:	ff ff 7f 
    4000625b:	48 89 fd             	mov    %rdi,%rbp
    4000625e:	53                   	push   %rbx
    4000625f:	48 83 ec 08          	sub    $0x8,%rsp
    40006263:	48 8b 07             	mov    (%rdi),%rax
    40006266:	48 39 d0             	cmp    %rdx,%rax
    40006269:	0f 87 99 00 00 00    	ja     40006308 <__expand_heap+0xb8>
    4000626f:	48 89 c3             	mov    %rax,%rbx
    40006272:	48 8b 35 37 f3 3f 00 	mov    0x3ff337(%rip),%rsi        # 404055b0 <brk.1934>
    40006279:	48 f7 db             	neg    %rbx
    4000627c:	81 e3 ff 0f 00 00    	and    $0xfff,%ebx
    40006282:	48 01 c3             	add    %rax,%rbx
    40006285:	48 85 f6             	test   %rsi,%rsi
    40006288:	74 56                	je     400062e0 <__expand_heap+0x90>
    4000628a:	48 89 f0             	mov    %rsi,%rax
    4000628d:	48 f7 d0             	not    %rax
    40006290:	48 39 c3             	cmp    %rax,%rbx
    40006293:	73 3b                	jae    400062d0 <__expand_heap+0x80>
    40006295:	48 01 de             	add    %rbx,%rsi
    40006298:	bf 0c 00 00 00       	mov    $0xc,%edi
    4000629d:	e8 d8 39 00 00       	callq  40009c7a <ocall_syscall1>
    400062a2:	48 8b 15 07 f3 3f 00 	mov    0x3ff307(%rip),%rdx        # 404055b0 <brk.1934>
    400062a9:	48 8d 0c 13          	lea    (%rbx,%rdx,1),%rcx
    400062ad:	48 39 c8             	cmp    %rcx,%rax
    400062b0:	75 1e                	jne    400062d0 <__expand_heap+0x80>
    400062b2:	48 89 05 f7 f2 3f 00 	mov    %rax,0x3ff2f7(%rip)        # 404055b0 <brk.1934>
    400062b9:	48 89 5d 00          	mov    %rbx,0x0(%rbp)
    400062bd:	48 89 d0             	mov    %rdx,%rax
    400062c0:	48 83 c4 08          	add    $0x8,%rsp
    400062c4:	5b                   	pop    %rbx
    400062c5:	5d                   	pop    %rbp
    400062c6:	c3                   	retq   
    400062c7:	66 0f 1f 84 00 00 00 	nopw   0x0(%rax,%rax,1)
    400062ce:	00 00 
    400062d0:	48 83 c4 08          	add    $0x8,%rsp
    400062d4:	31 c0                	xor    %eax,%eax
    400062d6:	5b                   	pop    %rbx
    400062d7:	5d                   	pop    %rbp
    400062d8:	c3                   	retq   
    400062d9:	0f 1f 80 00 00 00 00 	nopl   0x0(%rax)
    400062e0:	bf 0c 00 00 00       	mov    $0xc,%edi
    400062e5:	e8 90 39 00 00       	callq  40009c7a <ocall_syscall1>
    400062ea:	48 89 c2             	mov    %rax,%rdx
    400062ed:	48 f7 da             	neg    %rdx
    400062f0:	81 e2 ff 0f 00 00    	and    $0xfff,%edx
    400062f6:	48 8d 34 02          	lea    (%rdx,%rax,1),%rsi
    400062fa:	48 89 35 af f2 3f 00 	mov    %rsi,0x3ff2af(%rip)        # 404055b0 <brk.1934>
    40006301:	eb 87                	jmp    4000628a <__expand_heap+0x3a>
    40006303:	0f 1f 44 00 00       	nopl   0x0(%rax,%rax,1)
    40006308:	e8 b6 c0 ff ff       	callq  400023c3 <__tls_errno_location>
    4000630d:	c7 00 0c 00 00 00    	movl   $0xc,(%rax)
    40006313:	31 c0                	xor    %eax,%eax
    40006315:	eb a9                	jmp    400062c0 <__expand_heap+0x70>

0000000040006317 <__fpclassifyl>:
    40006317:	db 6c 24 08          	fldt   0x8(%rsp)
    4000631b:	db 7c 24 e8          	fstpt  -0x18(%rsp)
    4000631f:	8b 4c 24 f0          	mov    -0x10(%rsp),%ecx
    40006323:	48 8b 54 24 e8       	mov    -0x18(%rsp),%rdx
    40006328:	81 e1 ff 7f 00 00    	and    $0x7fff,%ecx
    4000632e:	48 89 d6             	mov    %rdx,%rsi
    40006331:	48 c1 ee 3f          	shr    $0x3f,%rsi
    40006335:	89 c8                	mov    %ecx,%eax
    40006337:	09 f0                	or     %esi,%eax
    40006339:	75 0a                	jne    40006345 <__fpclassifyl+0x2e>
    4000633b:	48 83 fa 01          	cmp    $0x1,%rdx
    4000633f:	19 c0                	sbb    %eax,%eax
    40006341:	83 c0 03             	add    $0x3,%eax
    40006344:	c3                   	retq   
    40006345:	31 c0                	xor    %eax,%eax
    40006347:	85 f6                	test   %esi,%esi
    40006349:	74 15                	je     40006360 <__fpclassifyl+0x49>
    4000634b:	81 f9 ff 7f 00 00    	cmp    $0x7fff,%ecx
    40006351:	b0 04                	mov    $0x4,%al
    40006353:	75 0b                	jne    40006360 <__fpclassifyl+0x49>
    40006355:	48 01 d2             	add    %rdx,%rdx
    40006358:	31 c0                	xor    %eax,%eax
    4000635a:	48 85 d2             	test   %rdx,%rdx
    4000635d:	0f 94 c0             	sete   %al
    40006360:	c3                   	retq   

0000000040006361 <__signbitl>:
    40006361:	db 6c 24 08          	fldt   0x8(%rsp)
    40006365:	db 7c 24 e8          	fstpt  -0x18(%rsp)
    40006369:	8b 44 24 f0          	mov    -0x10(%rsp),%eax
    4000636d:	66 c1 e8 0f          	shr    $0xf,%ax
    40006371:	0f b7 c0             	movzwl %ax,%eax
    40006374:	c3                   	retq   

0000000040006375 <frexpl>:
    40006375:	55                   	push   %rbp
    40006376:	48 89 e5             	mov    %rsp,%rbp
    40006379:	53                   	push   %rbx
    4000637a:	48 89 fb             	mov    %rdi,%rbx
    4000637d:	48 83 ec 18          	sub    $0x18,%rsp
    40006381:	db 6d 10             	fldt   0x10(%rbp)
    40006384:	d9 c0                	fld    %st(0)
    40006386:	db 7d e0             	fstpt  -0x20(%rbp)
    40006389:	8b 45 e8             	mov    -0x18(%rbp),%eax
    4000638c:	89 c2                	mov    %eax,%edx
    4000638e:	81 e2 ff 7f 00 00    	and    $0x7fff,%edx
    40006394:	75 2e                	jne    400063c4 <frexpl+0x4f>
    40006396:	d9 ee                	fldz   
    40006398:	d9 c9                	fxch   %st(1)
    4000639a:	db e9                	fucomi %st(1),%st
    4000639c:	dd d9                	fstp   %st(1)
    4000639e:	7a 02                	jp     400063a2 <frexpl+0x2d>
    400063a0:	74 1a                	je     400063bc <frexpl+0x47>
    400063a2:	d8 0d 20 ac 3f 00    	fmuls  0x3fac20(%rip)        # 40400fc8 <errid+0x58>
    400063a8:	50                   	push   %rax
    400063a9:	48 89 df             	mov    %rbx,%rdi
    400063ac:	50                   	push   %rax
    400063ad:	db 3c 24             	fstpt  (%rsp)
    400063b0:	e8 c0 ff ff ff       	callq  40006375 <frexpl>
    400063b5:	5a                   	pop    %rdx
    400063b6:	83 2b 78             	subl   $0x78,(%rbx)
    400063b9:	59                   	pop    %rcx
    400063ba:	eb 29                	jmp    400063e5 <frexpl+0x70>
    400063bc:	c7 07 00 00 00 00    	movl   $0x0,(%rdi)
    400063c2:	eb 21                	jmp    400063e5 <frexpl+0x70>
    400063c4:	81 fa ff 7f 00 00    	cmp    $0x7fff,%edx
    400063ca:	74 19                	je     400063e5 <frexpl+0x70>
    400063cc:	dd d8                	fstp   %st(0)
    400063ce:	66 25 00 80          	and    $0x8000,%ax
    400063d2:	81 ea fe 3f 00 00    	sub    $0x3ffe,%edx
    400063d8:	66 0d fe 3f          	or     $0x3ffe,%ax
    400063dc:	89 17                	mov    %edx,(%rdi)
    400063de:	66 89 45 e8          	mov    %ax,-0x18(%rbp)
    400063e2:	db 6d e0             	fldt   -0x20(%rbp)
    400063e5:	48 8b 5d f8          	mov    -0x8(%rbp),%rbx
    400063e9:	c9                   	leaveq 
    400063ea:	c3                   	retq   

00000000400063eb <wctomb>:
    400063eb:	48 85 ff             	test   %rdi,%rdi
    400063ee:	74 0a                	je     400063fa <wctomb+0xf>
    400063f0:	51                   	push   %rcx
    400063f1:	31 d2                	xor    %edx,%edx
    400063f3:	e8 1e 35 00 00       	callq  40009916 <wcrtomb>
    400063f8:	5a                   	pop    %rdx
    400063f9:	c3                   	retq   
    400063fa:	31 c0                	xor    %eax,%eax
    400063fc:	c3                   	retq   

00000000400063fd <__fdopen>:
    400063fd:	41 54                	push   %r12
    400063ff:	41 89 fc             	mov    %edi,%r12d
    40006402:	bf 9c 03 40 40       	mov    $0x4040039c,%edi
    40006407:	55                   	push   %rbp
    40006408:	48 89 f5             	mov    %rsi,%rbp
    4000640b:	53                   	push   %rbx
    4000640c:	48 83 ec 10          	sub    $0x10,%rsp
    40006410:	0f be 36             	movsbl (%rsi),%esi
    40006413:	e8 98 f9 ff ff       	callq  40005db0 <strchr>
    40006418:	48 85 c0             	test   %rax,%rax
    4000641b:	75 10                	jne    4000642d <__fdopen+0x30>
    4000641d:	e8 a1 bf ff ff       	callq  400023c3 <__tls_errno_location>
    40006422:	c7 00 16 00 00 00    	movl   $0x16,(%rax)
    40006428:	e9 33 01 00 00       	jmpq   40006560 <__fdopen+0x163>
    4000642d:	bf f0 04 00 00       	mov    $0x4f0,%edi
    40006432:	e8 c9 cb ff ff       	callq  40003000 <malloc>
    40006437:	48 85 c0             	test   %rax,%rax
    4000643a:	48 89 c3             	mov    %rax,%rbx
    4000643d:	0f 84 1d 01 00 00    	je     40006560 <__fdopen+0x163>
    40006443:	31 f6                	xor    %esi,%esi
    40006445:	ba e8 00 00 00       	mov    $0xe8,%edx
    4000644a:	48 89 c7             	mov    %rax,%rdi
    4000644d:	e8 4d fb ff ff       	callq  40005f9f <memset>
    40006452:	be 2b 00 00 00       	mov    $0x2b,%esi
    40006457:	48 89 ef             	mov    %rbp,%rdi
    4000645a:	e8 51 f9 ff ff       	callq  40005db0 <strchr>
    4000645f:	48 85 c0             	test   %rax,%rax
    40006462:	75 12                	jne    40006476 <__fdopen+0x79>
    40006464:	31 c0                	xor    %eax,%eax
    40006466:	80 7d 00 72          	cmpb   $0x72,0x0(%rbp)
    4000646a:	0f 94 c0             	sete   %al
    4000646d:	8d 04 85 04 00 00 00 	lea    0x4(,%rax,4),%eax
    40006474:	89 03                	mov    %eax,(%rbx)
    40006476:	be 65 00 00 00       	mov    $0x65,%esi
    4000647b:	48 89 ef             	mov    %rbp,%rdi
    4000647e:	e8 2d f9 ff ff       	callq  40005db0 <strchr>
    40006483:	48 85 c0             	test   %rax,%rax
    40006486:	74 17                	je     4000649f <__fdopen+0xa2>
    40006488:	49 63 f4             	movslq %r12d,%rsi
    4000648b:	b9 01 00 00 00       	mov    $0x1,%ecx
    40006490:	ba 02 00 00 00       	mov    $0x2,%edx
    40006495:	bf 48 00 00 00       	mov    $0x48,%edi
    4000649a:	e8 57 3c 00 00       	callq  4000a0f6 <ocall_syscall3>
    4000649f:	80 7d 00 61          	cmpb   $0x61,0x0(%rbp)
    400064a3:	75 38                	jne    400064dd <__fdopen+0xe0>
    400064a5:	49 63 ec             	movslq %r12d,%rbp
    400064a8:	ba 03 00 00 00       	mov    $0x3,%edx
    400064ad:	bf 48 00 00 00       	mov    $0x48,%edi
    400064b2:	48 89 ee             	mov    %rbp,%rsi
    400064b5:	e8 10 39 00 00       	callq  40009dca <ocall_syscall2>
    400064ba:	f6 c4 04             	test   $0x4,%ah
    400064bd:	75 18                	jne    400064d7 <__fdopen+0xda>
    400064bf:	80 cc 04             	or     $0x4,%ah
    400064c2:	ba 04 00 00 00       	mov    $0x4,%edx
    400064c7:	48 89 ee             	mov    %rbp,%rsi
    400064ca:	48 63 c8             	movslq %eax,%rcx
    400064cd:	bf 48 00 00 00       	mov    $0x48,%edi
    400064d2:	e8 1f 3c 00 00       	callq  4000a0f6 <ocall_syscall3>
    400064d7:	81 0b 80 00 00 00    	orl    $0x80,(%rbx)
    400064dd:	f6 03 08             	testb  $0x8,(%rbx)
    400064e0:	48 8d 83 f0 00 00 00 	lea    0xf0(%rbx),%rax
    400064e7:	44 89 63 78          	mov    %r12d,0x78(%rbx)
    400064eb:	48 c7 43 60 00 04 00 	movq   $0x400,0x60(%rbx)
    400064f2:	00 
    400064f3:	c6 83 8b 00 00 00 ff 	movb   $0xff,0x8b(%rbx)
    400064fa:	48 89 43 58          	mov    %rax,0x58(%rbx)
    400064fe:	75 23                	jne    40006523 <__fdopen+0x126>
    40006500:	48 8d 4c 24 08       	lea    0x8(%rsp),%rcx
    40006505:	49 63 f4             	movslq %r12d,%rsi
    40006508:	ba 13 54 00 00       	mov    $0x5413,%edx
    4000650d:	bf 10 00 00 00       	mov    $0x10,%edi
    40006512:	e8 df 3b 00 00       	callq  4000a0f6 <ocall_syscall3>
    40006517:	48 85 c0             	test   %rax,%rax
    4000651a:	75 07                	jne    40006523 <__fdopen+0x126>
    4000651c:	c6 83 8b 00 00 00 0a 	movb   $0xa,0x8b(%rbx)
    40006523:	83 3d 7a f3 3f 00 00 	cmpl   $0x0,0x3ff37a(%rip)        # 404058a4 <__libc+0x4>
    4000652a:	48 c7 43 40 25 67 00 	movq   $0x40006725,0x40(%rbx)
    40006531:	40 
    40006532:	48 c7 43 48 ed 67 00 	movq   $0x400067ed,0x48(%rbx)
    40006539:	40 
    4000653a:	48 c7 43 50 cc 67 00 	movq   $0x400067cc,0x50(%rbx)
    40006541:	40 
    40006542:	48 c7 43 18 05 67 00 	movq   $0x40006705,0x18(%rbx)
    40006549:	40 
    4000654a:	75 0a                	jne    40006556 <__fdopen+0x159>
    4000654c:	c7 83 8c 00 00 00 ff 	movl   $0xffffffff,0x8c(%rbx)
    40006553:	ff ff ff 
    40006556:	48 89 df             	mov    %rbx,%rdi
    40006559:	e8 3d 05 00 00       	callq  40006a9b <__ofl_add>
    4000655e:	eb 02                	jmp    40006562 <__fdopen+0x165>
    40006560:	31 c0                	xor    %eax,%eax
    40006562:	48 83 c4 10          	add    $0x10,%rsp
    40006566:	5b                   	pop    %rbx
    40006567:	5d                   	pop    %rbp
    40006568:	41 5c                	pop    %r12
    4000656a:	c3                   	retq   

000000004000656b <__fmodeflags>:
    4000656b:	55                   	push   %rbp
    4000656c:	be 2b 00 00 00       	mov    $0x2b,%esi
    40006571:	48 89 fd             	mov    %rdi,%rbp
    40006574:	53                   	push   %rbx
    40006575:	bb 02 00 00 00       	mov    $0x2,%ebx
    4000657a:	51                   	push   %rcx
    4000657b:	e8 30 f8 ff ff       	callq  40005db0 <strchr>
    40006580:	48 85 c0             	test   %rax,%rax
    40006583:	75 09                	jne    4000658e <__fmodeflags+0x23>
    40006585:	31 db                	xor    %ebx,%ebx
    40006587:	80 7d 00 72          	cmpb   $0x72,0x0(%rbp)
    4000658b:	0f 95 c3             	setne  %bl
    4000658e:	be 78 00 00 00       	mov    $0x78,%esi
    40006593:	48 89 ef             	mov    %rbp,%rdi
    40006596:	e8 15 f8 ff ff       	callq  40005db0 <strchr>
    4000659b:	89 da                	mov    %ebx,%edx
    4000659d:	be 65 00 00 00       	mov    $0x65,%esi
    400065a2:	48 89 ef             	mov    %rbp,%rdi
    400065a5:	80 ca 80             	or     $0x80,%dl
    400065a8:	48 85 c0             	test   %rax,%rax
    400065ab:	0f 45 da             	cmovne %edx,%ebx
    400065ae:	e8 fd f7 ff ff       	callq  40005db0 <strchr>
    400065b3:	89 da                	mov    %ebx,%edx
    400065b5:	81 ca 00 00 08 00    	or     $0x80000,%edx
    400065bb:	48 85 c0             	test   %rax,%rax
    400065be:	8a 45 00             	mov    0x0(%rbp),%al
    400065c1:	0f 45 da             	cmovne %edx,%ebx
    400065c4:	3c 72                	cmp    $0x72,%al
    400065c6:	74 1c                	je     400065e4 <__fmodeflags+0x79>
    400065c8:	3c 77                	cmp    $0x77,%al
    400065ca:	75 08                	jne    400065d4 <__fmodeflags+0x69>
    400065cc:	81 cb 40 02 00 00    	or     $0x240,%ebx
    400065d2:	eb 10                	jmp    400065e4 <__fmodeflags+0x79>
    400065d4:	89 da                	mov    %ebx,%edx
    400065d6:	81 cb 40 04 00 00    	or     $0x440,%ebx
    400065dc:	83 ca 40             	or     $0x40,%edx
    400065df:	3c 61                	cmp    $0x61,%al
    400065e1:	0f 45 da             	cmovne %edx,%ebx
    400065e4:	5a                   	pop    %rdx
    400065e5:	89 d8                	mov    %ebx,%eax
    400065e7:	5b                   	pop    %rbx
    400065e8:	5d                   	pop    %rbp
    400065e9:	c3                   	retq   

00000000400065ea <__lockfile>:
    400065ea:	41 54                	push   %r12
    400065ec:	55                   	push   %rbp
    400065ed:	48 89 fd             	mov    %rdi,%rbp
    400065f0:	53                   	push   %rbx
    400065f1:	64 48 8b 04 25 00 00 	mov    %fs:0x0,%rax
    400065f8:	00 00 
    400065fa:	8b 58 38             	mov    0x38(%rax),%ebx
    400065fd:	8b 87 8c 00 00 00    	mov    0x8c(%rdi),%eax
    40006603:	39 d8                	cmp    %ebx,%eax
    40006605:	74 32                	je     40006639 <__lockfile+0x4f>
    40006607:	4c 8d a7 8c 00 00 00 	lea    0x8c(%rdi),%r12
    4000660e:	31 c0                	xor    %eax,%eax
    40006610:	f0 41 0f b1 1c 24    	lock cmpxchg %ebx,(%r12)
    40006616:	85 c0                	test   %eax,%eax
    40006618:	89 c2                	mov    %eax,%edx
    4000661a:	74 16                	je     40006632 <__lockfile+0x48>
    4000661c:	48 8d b5 90 00 00 00 	lea    0x90(%rbp),%rsi
    40006623:	b9 01 00 00 00       	mov    $0x1,%ecx
    40006628:	4c 89 e7             	mov    %r12,%rdi
    4000662b:	e8 be fa ff ff       	callq  400060ee <__wait>
    40006630:	eb dc                	jmp    4000660e <__lockfile+0x24>
    40006632:	b8 01 00 00 00       	mov    $0x1,%eax
    40006637:	eb 02                	jmp    4000663b <__lockfile+0x51>
    40006639:	31 c0                	xor    %eax,%eax
    4000663b:	5b                   	pop    %rbx
    4000663c:	5d                   	pop    %rbp
    4000663d:	41 5c                	pop    %r12
    4000663f:	c3                   	retq   

0000000040006640 <__unlockfile>:
    40006640:	53                   	push   %rbx
    40006641:	31 c0                	xor    %eax,%eax
    40006643:	48 8d 9f 8c 00 00 00 	lea    0x8c(%rdi),%rbx
    4000664a:	89 87 8c 00 00 00    	mov    %eax,0x8c(%rdi)
    40006650:	f0 83 0c 24 00       	lock orl $0x0,(%rsp)
    40006655:	8b 87 90 00 00 00    	mov    0x90(%rdi),%eax
    4000665b:	85 c0                	test   %eax,%eax
    4000665d:	74 35                	je     40006694 <__unlockfile+0x54>
    4000665f:	b9 01 00 00 00       	mov    $0x1,%ecx
    40006664:	ba 81 00 00 00       	mov    $0x81,%edx
    40006669:	48 89 de             	mov    %rbx,%rsi
    4000666c:	bf ca 00 00 00       	mov    $0xca,%edi
    40006671:	e8 80 3a 00 00       	callq  4000a0f6 <ocall_syscall3>
    40006676:	48 83 f8 da          	cmp    $0xffffffffffffffda,%rax
    4000667a:	75 18                	jne    40006694 <__unlockfile+0x54>
    4000667c:	48 89 de             	mov    %rbx,%rsi
    4000667f:	b9 01 00 00 00       	mov    $0x1,%ecx
    40006684:	ba 01 00 00 00       	mov    $0x1,%edx
    40006689:	5b                   	pop    %rbx
    4000668a:	bf ca 00 00 00       	mov    $0xca,%edi
    4000668f:	e9 62 3a 00 00       	jmpq   4000a0f6 <ocall_syscall3>
    40006694:	5b                   	pop    %rbx
    40006695:	c3                   	retq   

0000000040006696 <__overflow>:
    40006696:	53                   	push   %rbx
    40006697:	48 89 fb             	mov    %rdi,%rbx
    4000669a:	48 83 ec 10          	sub    $0x10,%rsp
    4000669e:	48 83 7f 20 00       	cmpq   $0x0,0x20(%rdi)
    400066a3:	40 88 74 24 0f       	mov    %sil,0xf(%rsp)
    400066a8:	74 0c                	je     400066b6 <__overflow+0x20>
    400066aa:	48 8b 53 28          	mov    0x28(%rbx),%rdx
    400066ae:	48 3b 53 20          	cmp    0x20(%rbx),%rdx
    400066b2:	72 10                	jb     400066c4 <__overflow+0x2e>
    400066b4:	eb 2c                	jmp    400066e2 <__overflow+0x4c>
    400066b6:	e8 8e 02 00 00       	callq  40006949 <__towrite>
    400066bb:	85 c0                	test   %eax,%eax
    400066bd:	74 eb                	je     400066aa <__overflow+0x14>
    400066bf:	83 c8 ff             	or     $0xffffffff,%eax
    400066c2:	eb 38                	jmp    400066fc <__overflow+0x66>
    400066c4:	8a 4c 24 0f          	mov    0xf(%rsp),%cl
    400066c8:	0f be b3 8b 00 00 00 	movsbl 0x8b(%rbx),%esi
    400066cf:	0f b6 c1             	movzbl %cl,%eax
    400066d2:	39 f0                	cmp    %esi,%eax
    400066d4:	74 0c                	je     400066e2 <__overflow+0x4c>
    400066d6:	48 8d 72 01          	lea    0x1(%rdx),%rsi
    400066da:	48 89 73 28          	mov    %rsi,0x28(%rbx)
    400066de:	88 0a                	mov    %cl,(%rdx)
    400066e0:	eb 1a                	jmp    400066fc <__overflow+0x66>
    400066e2:	ba 01 00 00 00       	mov    $0x1,%edx
    400066e7:	48 8d 74 24 0f       	lea    0xf(%rsp),%rsi
    400066ec:	48 89 df             	mov    %rbx,%rdi
    400066ef:	ff 53 48             	callq  *0x48(%rbx)
    400066f2:	48 ff c8             	dec    %rax
    400066f5:	75 c8                	jne    400066bf <__overflow+0x29>
    400066f7:	0f b6 44 24 0f       	movzbl 0xf(%rsp),%eax
    400066fc:	48 83 c4 10          	add    $0x10,%rsp
    40006700:	5b                   	pop    %rbx
    40006701:	c3                   	retq   

0000000040006702 <__aio_close>:
    40006702:	89 f8                	mov    %edi,%eax
    40006704:	c3                   	retq   

0000000040006705 <__stdio_close>:
    40006705:	50                   	push   %rax
    40006706:	8b 7f 78             	mov    0x78(%rdi),%edi
    40006709:	e8 f4 ff ff ff       	callq  40006702 <__aio_close>
    4000670e:	bf 03 00 00 00       	mov    $0x3,%edi
    40006713:	48 63 f0             	movslq %eax,%rsi
    40006716:	e8 5f 35 00 00       	callq  40009c7a <ocall_syscall1>
    4000671b:	48 89 c7             	mov    %rax,%rdi
    4000671e:	e8 cd fa ff ff       	callq  400061f0 <__syscall_ret>
    40006723:	5a                   	pop    %rdx
    40006724:	c3                   	retq   

0000000040006725 <__stdio_read>:
    40006725:	41 54                	push   %r12
    40006727:	49 89 d4             	mov    %rdx,%r12
    4000672a:	31 d2                	xor    %edx,%edx
    4000672c:	b9 02 00 00 00       	mov    $0x2,%ecx
    40006731:	55                   	push   %rbp
    40006732:	48 89 f5             	mov    %rsi,%rbp
    40006735:	53                   	push   %rbx
    40006736:	48 89 fb             	mov    %rdi,%rbx
    40006739:	48 83 ec 20          	sub    $0x20,%rsp
    4000673d:	48 8b 47 60          	mov    0x60(%rdi),%rax
    40006741:	4c 89 e7             	mov    %r12,%rdi
    40006744:	48 89 34 24          	mov    %rsi,(%rsp)
    40006748:	48 63 73 78          	movslq 0x78(%rbx),%rsi
    4000674c:	48 85 c0             	test   %rax,%rax
    4000674f:	48 89 44 24 18       	mov    %rax,0x18(%rsp)
    40006754:	0f 95 c2             	setne  %dl
    40006757:	48 29 d7             	sub    %rdx,%rdi
    4000675a:	48 8b 53 58          	mov    0x58(%rbx),%rdx
    4000675e:	48 89 7c 24 08       	mov    %rdi,0x8(%rsp)
    40006763:	bf 13 00 00 00       	mov    $0x13,%edi
    40006768:	48 89 54 24 10       	mov    %rdx,0x10(%rsp)
    4000676d:	48 89 e2             	mov    %rsp,%rdx
    40006770:	e8 81 39 00 00       	callq  4000a0f6 <ocall_syscall3>
    40006775:	48 89 c7             	mov    %rax,%rdi
    40006778:	e8 73 fa ff ff       	callq  400061f0 <__syscall_ret>
    4000677d:	48 85 c0             	test   %rax,%rax
    40006780:	7f 0c                	jg     4000678e <__stdio_read+0x69>
    40006782:	89 c2                	mov    %eax,%edx
    40006784:	83 e2 30             	and    $0x30,%edx
    40006787:	83 f2 10             	xor    $0x10,%edx
    4000678a:	09 13                	or     %edx,(%rbx)
    4000678c:	eb 35                	jmp    400067c3 <__stdio_read+0x9e>
    4000678e:	48 8b 54 24 08       	mov    0x8(%rsp),%rdx
    40006793:	48 39 d0             	cmp    %rdx,%rax
    40006796:	76 2b                	jbe    400067c3 <__stdio_read+0x9e>
    40006798:	48 8b 4b 58          	mov    0x58(%rbx),%rcx
    4000679c:	48 29 d0             	sub    %rdx,%rax
    4000679f:	48 01 c8             	add    %rcx,%rax
    400067a2:	48 83 7b 60 00       	cmpq   $0x0,0x60(%rbx)
    400067a7:	48 89 4b 08          	mov    %rcx,0x8(%rbx)
    400067ab:	48 89 43 10          	mov    %rax,0x10(%rbx)
    400067af:	4c 89 e0             	mov    %r12,%rax
    400067b2:	74 0f                	je     400067c3 <__stdio_read+0x9e>
    400067b4:	48 8d 51 01          	lea    0x1(%rcx),%rdx
    400067b8:	48 89 53 08          	mov    %rdx,0x8(%rbx)
    400067bc:	8a 11                	mov    (%rcx),%dl
    400067be:	42 88 54 25 ff       	mov    %dl,-0x1(%rbp,%r12,1)
    400067c3:	48 83 c4 20          	add    $0x20,%rsp
    400067c7:	5b                   	pop    %rbx
    400067c8:	5d                   	pop    %rbp
    400067c9:	41 5c                	pop    %r12
    400067cb:	c3                   	retq   

00000000400067cc <__stdio_seek>:
    400067cc:	50                   	push   %rax
    400067cd:	48 89 f0             	mov    %rsi,%rax
    400067d0:	48 63 77 78          	movslq 0x78(%rdi),%rsi
    400067d4:	48 63 ca             	movslq %edx,%rcx
    400067d7:	bf 08 00 00 00       	mov    $0x8,%edi
    400067dc:	48 89 c2             	mov    %rax,%rdx
    400067df:	e8 12 39 00 00       	callq  4000a0f6 <ocall_syscall3>
    400067e4:	5a                   	pop    %rdx
    400067e5:	48 89 c7             	mov    %rax,%rdi
    400067e8:	e9 03 fa ff ff       	jmpq   400061f0 <__syscall_ret>

00000000400067ed <__stdio_write>:
    400067ed:	41 56                	push   %r14
    400067ef:	41 55                	push   %r13
    400067f1:	49 89 d5             	mov    %rdx,%r13
    400067f4:	41 54                	push   %r12
    400067f6:	41 bc 02 00 00 00    	mov    $0x2,%r12d
    400067fc:	55                   	push   %rbp
    400067fd:	53                   	push   %rbx
    400067fe:	48 89 fb             	mov    %rdi,%rbx
    40006801:	48 83 ec 20          	sub    $0x20,%rsp
    40006805:	48 8b 57 38          	mov    0x38(%rdi),%rdx
    40006809:	48 8b 47 28          	mov    0x28(%rdi),%rax
    4000680d:	48 89 74 24 10       	mov    %rsi,0x10(%rsp)
    40006812:	4c 89 6c 24 18       	mov    %r13,0x18(%rsp)
    40006817:	48 89 e5             	mov    %rsp,%rbp
    4000681a:	48 29 d0             	sub    %rdx,%rax
    4000681d:	48 89 14 24          	mov    %rdx,(%rsp)
    40006821:	4e 8d 34 28          	lea    (%rax,%r13,1),%r14
    40006825:	48 89 44 24 08       	mov    %rax,0x8(%rsp)
    4000682a:	48 63 73 78          	movslq 0x78(%rbx),%rsi
    4000682e:	49 63 cc             	movslq %r12d,%rcx
    40006831:	48 89 ea             	mov    %rbp,%rdx
    40006834:	bf 14 00 00 00       	mov    $0x14,%edi
    40006839:	e8 b8 38 00 00       	callq  4000a0f6 <ocall_syscall3>
    4000683e:	48 89 c7             	mov    %rax,%rdi
    40006841:	e8 aa f9 ff ff       	callq  400061f0 <__syscall_ret>
    40006846:	4c 39 f0             	cmp    %r14,%rax
    40006849:	75 1c                	jne    40006867 <__stdio_write+0x7a>
    4000684b:	48 8b 43 58          	mov    0x58(%rbx),%rax
    4000684f:	48 89 c2             	mov    %rax,%rdx
    40006852:	48 03 53 60          	add    0x60(%rbx),%rdx
    40006856:	48 89 43 38          	mov    %rax,0x38(%rbx)
    4000685a:	48 89 43 28          	mov    %rax,0x28(%rbx)
    4000685e:	4c 89 e8             	mov    %r13,%rax
    40006861:	48 89 53 20          	mov    %rdx,0x20(%rbx)
    40006865:	eb 54                	jmp    400068bb <__stdio_write+0xce>
    40006867:	48 85 c0             	test   %rax,%rax
    4000686a:	79 2a                	jns    40006896 <__stdio_write+0xa9>
    4000686c:	83 0b 20             	orl    $0x20,(%rbx)
    4000686f:	41 83 fc 02          	cmp    $0x2,%r12d
    40006873:	48 c7 43 20 00 00 00 	movq   $0x0,0x20(%rbx)
    4000687a:	00 
    4000687b:	48 c7 43 38 00 00 00 	movq   $0x0,0x38(%rbx)
    40006882:	00 
    40006883:	48 c7 43 28 00 00 00 	movq   $0x0,0x28(%rbx)
    4000688a:	00 
    4000688b:	74 2c                	je     400068b9 <__stdio_write+0xcc>
    4000688d:	4c 89 e8             	mov    %r13,%rax
    40006890:	48 2b 45 08          	sub    0x8(%rbp),%rax
    40006894:	eb 25                	jmp    400068bb <__stdio_write+0xce>
    40006896:	48 8b 55 08          	mov    0x8(%rbp),%rdx
    4000689a:	49 29 c6             	sub    %rax,%r14
    4000689d:	48 39 d0             	cmp    %rdx,%rax
    400068a0:	76 0a                	jbe    400068ac <__stdio_write+0xbf>
    400068a2:	48 29 d0             	sub    %rdx,%rax
    400068a5:	48 83 c5 10          	add    $0x10,%rbp
    400068a9:	41 ff cc             	dec    %r12d
    400068ac:	48 01 45 00          	add    %rax,0x0(%rbp)
    400068b0:	48 29 45 08          	sub    %rax,0x8(%rbp)
    400068b4:	e9 71 ff ff ff       	jmpq   4000682a <__stdio_write+0x3d>
    400068b9:	31 c0                	xor    %eax,%eax
    400068bb:	48 83 c4 20          	add    $0x20,%rsp
    400068bf:	5b                   	pop    %rbx
    400068c0:	5d                   	pop    %rbp
    400068c1:	41 5c                	pop    %r12
    400068c3:	41 5d                	pop    %r13
    400068c5:	41 5e                	pop    %r14
    400068c7:	c3                   	retq   

00000000400068c8 <__stdout_write>:
    400068c8:	48 c7 47 48 ed 67 00 	movq   $0x400067ed,0x48(%rdi)
    400068cf:	40 
    400068d0:	e9 18 ff ff ff       	jmpq   400067ed <__stdio_write>

00000000400068d5 <__string_read>:
    400068d5:	41 56                	push   %r14
    400068d7:	49 89 f6             	mov    %rsi,%r14
    400068da:	31 f6                	xor    %esi,%esi
    400068dc:	41 55                	push   %r13
    400068de:	49 89 d5             	mov    %rdx,%r13
    400068e1:	41 54                	push   %r12
    400068e3:	49 89 fc             	mov    %rdi,%r12
    400068e6:	55                   	push   %rbp
    400068e7:	53                   	push   %rbx
    400068e8:	48 8b af 98 00 00 00 	mov    0x98(%rdi),%rbp
    400068ef:	48 8d 9a 00 01 00 00 	lea    0x100(%rdx),%rbx
    400068f6:	48 89 da             	mov    %rbx,%rdx
    400068f9:	48 89 ef             	mov    %rbp,%rdi
    400068fc:	e8 af f3 ff ff       	callq  40005cb0 <memchr>
    40006901:	48 89 c2             	mov    %rax,%rdx
    40006904:	48 89 ee             	mov    %rbp,%rsi
    40006907:	4c 89 f7             	mov    %r14,%rdi
    4000690a:	48 29 ea             	sub    %rbp,%rdx
    4000690d:	48 85 c0             	test   %rax,%rax
    40006910:	48 0f 45 da          	cmovne %rdx,%rbx
    40006914:	4c 39 eb             	cmp    %r13,%rbx
    40006917:	4c 0f 46 eb          	cmovbe %rbx,%r13
    4000691b:	48 01 eb             	add    %rbp,%rbx
    4000691e:	4c 89 ea             	mov    %r13,%rdx
    40006921:	e8 47 f6 ff ff       	callq  40005f6d <memcpy>
    40006926:	4a 8d 44 2d 00       	lea    0x0(%rbp,%r13,1),%rax
    4000692b:	49 89 5c 24 10       	mov    %rbx,0x10(%r12)
    40006930:	49 89 9c 24 98 00 00 	mov    %rbx,0x98(%r12)
    40006937:	00 
    40006938:	49 89 44 24 08       	mov    %rax,0x8(%r12)
    4000693d:	4c 89 e8             	mov    %r13,%rax
    40006940:	5b                   	pop    %rbx
    40006941:	5d                   	pop    %rbp
    40006942:	41 5c                	pop    %r12
    40006944:	41 5d                	pop    %r13
    40006946:	41 5e                	pop    %r14
    40006948:	c3                   	retq   

0000000040006949 <__towrite>:
    40006949:	8a 97 8a 00 00 00    	mov    0x8a(%rdi),%dl
    4000694f:	8d 42 ff             	lea    -0x1(%rdx),%eax
    40006952:	09 d0                	or     %edx,%eax
    40006954:	88 87 8a 00 00 00    	mov    %al,0x8a(%rdi)
    4000695a:	8b 07                	mov    (%rdi),%eax
    4000695c:	a8 08                	test   $0x8,%al
    4000695e:	74 09                	je     40006969 <__towrite+0x20>
    40006960:	83 c8 20             	or     $0x20,%eax
    40006963:	89 07                	mov    %eax,(%rdi)
    40006965:	83 c8 ff             	or     $0xffffffff,%eax
    40006968:	c3                   	retq   
    40006969:	48 8b 47 58          	mov    0x58(%rdi),%rax
    4000696d:	48 c7 47 10 00 00 00 	movq   $0x0,0x10(%rdi)
    40006974:	00 
    40006975:	48 c7 47 08 00 00 00 	movq   $0x0,0x8(%rdi)
    4000697c:	00 
    4000697d:	48 89 47 38          	mov    %rax,0x38(%rdi)
    40006981:	48 89 47 28          	mov    %rax,0x28(%rdi)
    40006985:	48 03 47 60          	add    0x60(%rdi),%rax
    40006989:	48 89 47 20          	mov    %rax,0x20(%rdi)
    4000698d:	31 c0                	xor    %eax,%eax
    4000698f:	c3                   	retq   

0000000040006990 <__towrite_needs_stdio_exit>:
    40006990:	e9 cd 30 00 00       	jmpq   40009a62 <__stdio_exit>

0000000040006995 <__uflow>:
    40006995:	53                   	push   %rbx
    40006996:	48 89 fb             	mov    %rdi,%rbx
    40006999:	48 83 ec 10          	sub    $0x10,%rsp
    4000699d:	e8 f5 30 00 00       	callq  40009a97 <__toread>
    400069a2:	85 c0                	test   %eax,%eax
    400069a4:	74 05                	je     400069ab <__uflow+0x16>
    400069a6:	83 c8 ff             	or     $0xffffffff,%eax
    400069a9:	eb 1a                	jmp    400069c5 <__uflow+0x30>
    400069ab:	ba 01 00 00 00       	mov    $0x1,%edx
    400069b0:	48 8d 74 24 0f       	lea    0xf(%rsp),%rsi
    400069b5:	48 89 df             	mov    %rbx,%rdi
    400069b8:	ff 53 40             	callq  *0x40(%rbx)
    400069bb:	48 ff c8             	dec    %rax
    400069be:	75 e6                	jne    400069a6 <__uflow+0x11>
    400069c0:	0f b6 44 24 0f       	movzbl 0xf(%rsp),%eax
    400069c5:	48 83 c4 10          	add    $0x10,%rsp
    400069c9:	5b                   	pop    %rbx
    400069ca:	c3                   	retq   

00000000400069cb <fputc>:
    400069cb:	41 54                	push   %r12
    400069cd:	44 0f b6 e7          	movzbl %dil,%r12d
    400069d1:	55                   	push   %rbp
    400069d2:	89 fd                	mov    %edi,%ebp
    400069d4:	53                   	push   %rbx
    400069d5:	8b 86 8c 00 00 00    	mov    0x8c(%rsi),%eax
    400069db:	48 89 f3             	mov    %rsi,%rbx
    400069de:	85 c0                	test   %eax,%eax
    400069e0:	79 11                	jns    400069f3 <fputc+0x28>
    400069e2:	0f be 93 8b 00 00 00 	movsbl 0x8b(%rbx),%edx
    400069e9:	44 89 e0             	mov    %r12d,%eax
    400069ec:	41 39 d4             	cmp    %edx,%r12d
    400069ef:	75 10                	jne    40006a01 <fputc+0x36>
    400069f1:	eb 25                	jmp    40006a18 <fputc+0x4d>
    400069f3:	48 89 f7             	mov    %rsi,%rdi
    400069f6:	e8 ef fb ff ff       	callq  400065ea <__lockfile>
    400069fb:	85 c0                	test   %eax,%eax
    400069fd:	74 e3                	je     400069e2 <fputc+0x17>
    400069ff:	eb 25                	jmp    40006a26 <fputc+0x5b>
    40006a01:	48 8b 53 28          	mov    0x28(%rbx),%rdx
    40006a05:	48 3b 53 20          	cmp    0x20(%rbx),%rdx
    40006a09:	73 0d                	jae    40006a18 <fputc+0x4d>
    40006a0b:	48 8d 4a 01          	lea    0x1(%rdx),%rcx
    40006a0f:	48 89 4b 28          	mov    %rcx,0x28(%rbx)
    40006a13:	40 88 2a             	mov    %bpl,(%rdx)
    40006a16:	eb 49                	jmp    40006a61 <fputc+0x96>
    40006a18:	48 89 df             	mov    %rbx,%rdi
    40006a1b:	89 ee                	mov    %ebp,%esi
    40006a1d:	5b                   	pop    %rbx
    40006a1e:	5d                   	pop    %rbp
    40006a1f:	41 5c                	pop    %r12
    40006a21:	e9 70 fc ff ff       	jmpq   40006696 <__overflow>
    40006a26:	0f be 83 8b 00 00 00 	movsbl 0x8b(%rbx),%eax
    40006a2d:	41 39 c4             	cmp    %eax,%r12d
    40006a30:	74 17                	je     40006a49 <fputc+0x7e>
    40006a32:	48 8b 43 28          	mov    0x28(%rbx),%rax
    40006a36:	48 3b 43 20          	cmp    0x20(%rbx),%rax
    40006a3a:	73 0d                	jae    40006a49 <fputc+0x7e>
    40006a3c:	48 8d 50 01          	lea    0x1(%rax),%rdx
    40006a40:	48 89 53 28          	mov    %rdx,0x28(%rbx)
    40006a44:	40 88 28             	mov    %bpl,(%rax)
    40006a47:	eb 0d                	jmp    40006a56 <fputc+0x8b>
    40006a49:	89 ee                	mov    %ebp,%esi
    40006a4b:	48 89 df             	mov    %rbx,%rdi
    40006a4e:	e8 43 fc ff ff       	callq  40006696 <__overflow>
    40006a53:	41 89 c4             	mov    %eax,%r12d
    40006a56:	48 89 df             	mov    %rbx,%rdi
    40006a59:	e8 e2 fb ff ff       	callq  40006640 <__unlockfile>
    40006a5e:	44 89 e0             	mov    %r12d,%eax
    40006a61:	5b                   	pop    %rbx
    40006a62:	5d                   	pop    %rbp
    40006a63:	41 5c                	pop    %r12
    40006a65:	c3                   	retq   

0000000040006a66 <fputs>:
    40006a66:	41 54                	push   %r12
    40006a68:	49 89 f4             	mov    %rsi,%r12
    40006a6b:	55                   	push   %rbp
    40006a6c:	48 89 fd             	mov    %rdi,%rbp
    40006a6f:	53                   	push   %rbx
    40006a70:	e8 4b f4 ff ff       	callq  40005ec0 <strlen>
    40006a75:	4c 89 e1             	mov    %r12,%rcx
    40006a78:	48 89 c3             	mov    %rax,%rbx
    40006a7b:	48 89 ef             	mov    %rbp,%rdi
    40006a7e:	48 89 c2             	mov    %rax,%rdx
    40006a81:	be 01 00 00 00       	mov    $0x1,%esi
    40006a86:	e8 cf d4 ff ff       	callq  40003f5a <fwrite>
    40006a8b:	48 39 d8             	cmp    %rbx,%rax
    40006a8e:	0f 95 c0             	setne  %al
    40006a91:	5b                   	pop    %rbx
    40006a92:	0f b6 c0             	movzbl %al,%eax
    40006a95:	5d                   	pop    %rbp
    40006a96:	f7 d8                	neg    %eax
    40006a98:	41 5c                	pop    %r12
    40006a9a:	c3                   	retq   

0000000040006a9b <__ofl_add>:
    40006a9b:	53                   	push   %rbx
    40006a9c:	48 89 fb             	mov    %rdi,%rbx
    40006a9f:	e8 3e d5 ff ff       	callq  40003fe2 <__ofl_lock>
    40006aa4:	48 8b 10             	mov    (%rax),%rdx
    40006aa7:	48 89 53 70          	mov    %rdx,0x70(%rbx)
    40006aab:	48 8b 10             	mov    (%rax),%rdx
    40006aae:	48 85 d2             	test   %rdx,%rdx
    40006ab1:	74 04                	je     40006ab7 <__ofl_add+0x1c>
    40006ab3:	48 89 5a 68          	mov    %rbx,0x68(%rdx)
    40006ab7:	48 89 18             	mov    %rbx,(%rax)
    40006aba:	e8 35 d5 ff ff       	callq  40003ff4 <__ofl_unlock>
    40006abf:	48 89 d8             	mov    %rbx,%rax
    40006ac2:	5b                   	pop    %rbx
    40006ac3:	c3                   	retq   

0000000040006ac4 <store_int>:
    40006ac4:	48 85 ff             	test   %rdi,%rdi
    40006ac7:	74 1c                	je     40006ae5 <store_int+0x21>
    40006ac9:	83 c6 02             	add    $0x2,%esi
    40006acc:	83 fe 05             	cmp    $0x5,%esi
    40006acf:	77 14                	ja     40006ae5 <store_int+0x21>
    40006ad1:	ff 24 f5 d0 0f 40 40 	jmpq   *0x40400fd0(,%rsi,8)
    40006ad8:	88 17                	mov    %dl,(%rdi)
    40006ada:	c3                   	retq   
    40006adb:	66 89 17             	mov    %dx,(%rdi)
    40006ade:	c3                   	retq   
    40006adf:	89 17                	mov    %edx,(%rdi)
    40006ae1:	c3                   	retq   
    40006ae2:	48 89 17             	mov    %rdx,(%rdi)
    40006ae5:	c3                   	retq   

0000000040006ae6 <arg_n>:
    40006ae6:	48 8d 44 24 e8       	lea    -0x18(%rsp),%rax
    40006aeb:	48 89 fa             	mov    %rdi,%rdx
    40006aee:	41 89 f0             	mov    %esi,%r8d
    40006af1:	b9 06 00 00 00       	mov    $0x6,%ecx
    40006af6:	48 89 d6             	mov    %rdx,%rsi
    40006af9:	48 89 c7             	mov    %rax,%rdi
    40006afc:	f3 a5                	rep movsl %ds:(%rsi),%es:(%rdi)
    40006afe:	8b 44 24 e8          	mov    -0x18(%rsp),%eax
    40006b02:	48 8b 54 24 f0       	mov    -0x10(%rsp),%rdx
    40006b07:	41 83 f8 01          	cmp    $0x1,%r8d
    40006b0b:	76 13                	jbe    40006b20 <arg_n+0x3a>
    40006b0d:	83 f8 2f             	cmp    $0x2f,%eax
    40006b10:	77 05                	ja     40006b17 <arg_n+0x31>
    40006b12:	83 c0 08             	add    $0x8,%eax
    40006b15:	eb 04                	jmp    40006b1b <arg_n+0x35>
    40006b17:	48 83 c2 08          	add    $0x8,%rdx
    40006b1b:	41 ff c8             	dec    %r8d
    40006b1e:	eb e7                	jmp    40006b07 <arg_n+0x21>
    40006b20:	83 f8 30             	cmp    $0x30,%eax
    40006b23:	89 44 24 e8          	mov    %eax,-0x18(%rsp)
    40006b27:	48 89 54 24 f0       	mov    %rdx,-0x10(%rsp)
    40006b2c:	73 10                	jae    40006b3e <arg_n+0x58>
    40006b2e:	89 c2                	mov    %eax,%edx
    40006b30:	83 c0 08             	add    $0x8,%eax
    40006b33:	48 03 54 24 f8       	add    -0x8(%rsp),%rdx
    40006b38:	89 44 24 e8          	mov    %eax,-0x18(%rsp)
    40006b3c:	eb 09                	jmp    40006b47 <arg_n+0x61>
    40006b3e:	48 8d 42 08          	lea    0x8(%rdx),%rax
    40006b42:	48 89 44 24 f0       	mov    %rax,-0x10(%rsp)
    40006b47:	48 8b 02             	mov    (%rdx),%rax
    40006b4a:	c3                   	retq   

0000000040006b4b <vfscanf>:
    40006b4b:	41 57                	push   %r15
    40006b4d:	41 56                	push   %r14
    40006b4f:	41 55                	push   %r13
    40006b51:	41 54                	push   %r12
    40006b53:	55                   	push   %rbp
    40006b54:	48 89 fd             	mov    %rdi,%rbp
    40006b57:	53                   	push   %rbx
    40006b58:	48 89 f3             	mov    %rsi,%rbx
    40006b5b:	48 81 ec 78 01 00 00 	sub    $0x178,%rsp
    40006b62:	8b 87 8c 00 00 00    	mov    0x8c(%rdi),%eax
    40006b68:	48 89 54 24 28       	mov    %rdx,0x28(%rsp)
    40006b6d:	c7 44 24 34 00 00 00 	movl   $0x0,0x34(%rsp)
    40006b74:	00 
    40006b75:	85 c0                	test   %eax,%eax
    40006b77:	78 09                	js     40006b82 <vfscanf+0x37>
    40006b79:	e8 6c fa ff ff       	callq  400065ea <__lockfile>
    40006b7e:	89 44 24 34          	mov    %eax,0x34(%rsp)
    40006b82:	48 c7 44 24 20 00 00 	movq   $0x0,0x20(%rsp)
    40006b89:	00 00 
    40006b8b:	c7 44 24 30 00 00 00 	movl   $0x0,0x30(%rsp)
    40006b92:	00 
    40006b93:	8a 03                	mov    (%rbx),%al
    40006b95:	84 c0                	test   %al,%al
    40006b97:	0f 84 ae 08 00 00    	je     4000744b <vfscanf+0x900>
    40006b9d:	0f b6 d0             	movzbl %al,%edx
    40006ba0:	83 ea 09             	sub    $0x9,%edx
    40006ba3:	83 fa 04             	cmp    $0x4,%edx
    40006ba6:	76 09                	jbe    40006bb1 <vfscanf+0x66>
    40006ba8:	3c 20                	cmp    $0x20,%al
    40006baa:	75 77                	jne    40006c23 <vfscanf+0xd8>
    40006bac:	eb 03                	jmp    40006bb1 <vfscanf+0x66>
    40006bae:	48 ff c3             	inc    %rbx
    40006bb1:	8a 43 01             	mov    0x1(%rbx),%al
    40006bb4:	0f b6 d0             	movzbl %al,%edx
    40006bb7:	83 ea 09             	sub    $0x9,%edx
    40006bba:	83 fa 04             	cmp    $0x4,%edx
    40006bbd:	76 ef                	jbe    40006bae <vfscanf+0x63>
    40006bbf:	3c 20                	cmp    $0x20,%al
    40006bc1:	74 eb                	je     40006bae <vfscanf+0x63>
    40006bc3:	31 f6                	xor    %esi,%esi
    40006bc5:	48 89 ef             	mov    %rbp,%rdi
    40006bc8:	e8 b3 29 00 00       	callq  40009580 <__shlim>
    40006bcd:	48 8b 45 08          	mov    0x8(%rbp),%rax
    40006bd1:	48 3b 85 b8 00 00 00 	cmp    0xb8(%rbp),%rax
    40006bd8:	73 0d                	jae    40006be7 <vfscanf+0x9c>
    40006bda:	48 8d 50 01          	lea    0x1(%rax),%rdx
    40006bde:	48 89 55 08          	mov    %rdx,0x8(%rbp)
    40006be2:	0f b6 00             	movzbl (%rax),%eax
    40006be5:	eb 08                	jmp    40006bef <vfscanf+0xa4>
    40006be7:	48 89 ef             	mov    %rbp,%rdi
    40006bea:	e8 d1 29 00 00       	callq  400095c0 <__shgetc>
    40006bef:	8d 50 f7             	lea    -0x9(%rax),%edx
    40006bf2:	83 fa 04             	cmp    $0x4,%edx
    40006bf5:	76 d6                	jbe    40006bcd <vfscanf+0x82>
    40006bf7:	83 f8 20             	cmp    $0x20,%eax
    40006bfa:	74 d1                	je     40006bcd <vfscanf+0x82>
    40006bfc:	48 83 bd b8 00 00 00 	cmpq   $0x0,0xb8(%rbp)
    40006c03:	00 
    40006c04:	74 04                	je     40006c0a <vfscanf+0xbf>
    40006c06:	48 ff 4d 08          	decq   0x8(%rbp)
    40006c0a:	48 8b 45 08          	mov    0x8(%rbp),%rax
    40006c0e:	48 2b 45 10          	sub    0x10(%rbp),%rax
    40006c12:	48 03 85 c8 00 00 00 	add    0xc8(%rbp),%rax
    40006c19:	48 01 44 24 20       	add    %rax,0x20(%rsp)
    40006c1e:	e9 de 07 00 00       	jmpq   40007401 <vfscanf+0x8b6>
    40006c23:	3c 25                	cmp    $0x25,%al
    40006c25:	75 0a                	jne    40006c31 <vfscanf+0xe6>
    40006c27:	0f b6 73 01          	movzbl 0x1(%rbx),%esi
    40006c2b:	40 80 fe 25          	cmp    $0x25,%sil
    40006c2f:	75 6b                	jne    40006c9c <vfscanf+0x151>
    40006c31:	3c 25                	cmp    $0x25,%al
    40006c33:	48 89 ef             	mov    %rbp,%rdi
    40006c36:	0f 94 c0             	sete   %al
    40006c39:	31 f6                	xor    %esi,%esi
    40006c3b:	0f b6 c0             	movzbl %al,%eax
    40006c3e:	48 01 c3             	add    %rax,%rbx
    40006c41:	e8 3a 29 00 00       	callq  40009580 <__shlim>
    40006c46:	48 8b 45 08          	mov    0x8(%rbp),%rax
    40006c4a:	48 3b 85 b8 00 00 00 	cmp    0xb8(%rbp),%rax
    40006c51:	73 0d                	jae    40006c60 <vfscanf+0x115>
    40006c53:	48 8d 50 01          	lea    0x1(%rax),%rdx
    40006c57:	48 89 55 08          	mov    %rdx,0x8(%rbp)
    40006c5b:	0f b6 00             	movzbl (%rax),%eax
    40006c5e:	eb 08                	jmp    40006c68 <vfscanf+0x11d>
    40006c60:	48 89 ef             	mov    %rbp,%rdi
    40006c63:	e8 58 29 00 00       	callq  400095c0 <__shgetc>
    40006c68:	0f b6 13             	movzbl (%rbx),%edx
    40006c6b:	39 d0                	cmp    %edx,%eax
    40006c6d:	74 23                	je     40006c92 <vfscanf+0x147>
    40006c6f:	48 83 bd b8 00 00 00 	cmpq   $0x0,0xb8(%rbp)
    40006c76:	00 
    40006c77:	74 04                	je     40006c7d <vfscanf+0x132>
    40006c79:	48 ff 4d 08          	decq   0x8(%rbp)
    40006c7d:	85 c0                	test   %eax,%eax
    40006c7f:	0f 89 c6 07 00 00    	jns    4000744b <vfscanf+0x900>
    40006c85:	c7 44 24 1c 00 00 00 	movl   $0x0,0x1c(%rsp)
    40006c8c:	00 
    40006c8d:	e9 8c 07 00 00       	jmpq   4000741e <vfscanf+0x8d3>
    40006c92:	48 ff 44 24 20       	incq   0x20(%rsp)
    40006c97:	e9 65 07 00 00       	jmpq   40007401 <vfscanf+0x8b6>
    40006c9c:	40 80 fe 2a          	cmp    $0x2a,%sil
    40006ca0:	75 0f                	jne    40006cb1 <vfscanf+0x166>
    40006ca2:	48 8d 43 02          	lea    0x2(%rbx),%rax
    40006ca6:	48 c7 44 24 08 00 00 	movq   $0x0,0x8(%rsp)
    40006cad:	00 00 
    40006caf:	eb 5e                	jmp    40006d0f <vfscanf+0x1c4>
    40006cb1:	83 ee 30             	sub    $0x30,%esi
    40006cb4:	83 fe 09             	cmp    $0x9,%esi
    40006cb7:	77 1b                	ja     40006cd4 <vfscanf+0x189>
    40006cb9:	80 7b 02 24          	cmpb   $0x24,0x2(%rbx)
    40006cbd:	75 15                	jne    40006cd4 <vfscanf+0x189>
    40006cbf:	48 8b 7c 24 28       	mov    0x28(%rsp),%rdi
    40006cc4:	e8 1d fe ff ff       	callq  40006ae6 <arg_n>
    40006cc9:	48 89 44 24 08       	mov    %rax,0x8(%rsp)
    40006cce:	48 8d 43 03          	lea    0x3(%rbx),%rax
    40006cd2:	eb 3b                	jmp    40006d0f <vfscanf+0x1c4>
    40006cd4:	48 8b 44 24 28       	mov    0x28(%rsp),%rax
    40006cd9:	8b 00                	mov    (%rax),%eax
    40006cdb:	83 f8 30             	cmp    $0x30,%eax
    40006cde:	73 12                	jae    40006cf2 <vfscanf+0x1a7>
    40006ce0:	48 8b 4c 24 28       	mov    0x28(%rsp),%rcx
    40006ce5:	89 c2                	mov    %eax,%edx
    40006ce7:	83 c0 08             	add    $0x8,%eax
    40006cea:	48 03 51 10          	add    0x10(%rcx),%rdx
    40006cee:	89 01                	mov    %eax,(%rcx)
    40006cf0:	eb 11                	jmp    40006d03 <vfscanf+0x1b8>
    40006cf2:	48 8b 4c 24 28       	mov    0x28(%rsp),%rcx
    40006cf7:	48 8b 51 08          	mov    0x8(%rcx),%rdx
    40006cfb:	48 8d 42 08          	lea    0x8(%rdx),%rax
    40006cff:	48 89 41 08          	mov    %rax,0x8(%rcx)
    40006d03:	48 8d 43 01          	lea    0x1(%rbx),%rax
    40006d07:	48 8b 1a             	mov    (%rdx),%rbx
    40006d0a:	48 89 5c 24 08       	mov    %rbx,0x8(%rsp)
    40006d0f:	45 31 ff             	xor    %r15d,%r15d
    40006d12:	8a 08                	mov    (%rax),%cl
    40006d14:	0f b6 f1             	movzbl %cl,%esi
    40006d17:	8d 56 d0             	lea    -0x30(%rsi),%edx
    40006d1a:	83 fa 09             	cmp    $0x9,%edx
    40006d1d:	48 8d 50 01          	lea    0x1(%rax),%rdx
    40006d21:	77 0e                	ja     40006d31 <vfscanf+0x1e6>
    40006d23:	45 6b ff 0a          	imul   $0xa,%r15d,%r15d
    40006d27:	48 89 d0             	mov    %rdx,%rax
    40006d2a:	45 8d 7c 37 d0       	lea    -0x30(%r15,%rsi,1),%r15d
    40006d2f:	eb e1                	jmp    40006d12 <vfscanf+0x1c7>
    40006d31:	80 f9 6d             	cmp    $0x6d,%cl
    40006d34:	c7 44 24 1c 00 00 00 	movl   $0x0,0x1c(%rsp)
    40006d3b:	00 
    40006d3c:	75 18                	jne    40006d56 <vfscanf+0x20b>
    40006d3e:	31 c0                	xor    %eax,%eax
    40006d40:	48 83 7c 24 08 00    	cmpq   $0x0,0x8(%rsp)
    40006d46:	0f 95 c0             	setne  %al
    40006d49:	45 31 e4             	xor    %r12d,%r12d
    40006d4c:	45 31 ed             	xor    %r13d,%r13d
    40006d4f:	89 44 24 1c          	mov    %eax,0x1c(%rsp)
    40006d53:	48 89 d0             	mov    %rdx,%rax
    40006d56:	40 8a 38             	mov    (%rax),%dil
    40006d59:	48 8d 58 01          	lea    0x1(%rax),%rbx
    40006d5d:	8d 57 bf             	lea    -0x41(%rdi),%edx
    40006d60:	80 fa 39             	cmp    $0x39,%dl
    40006d63:	0f 87 b5 06 00 00    	ja     4000741e <vfscanf+0x8d3>
    40006d69:	0f b6 d2             	movzbl %dl,%edx
    40006d6c:	ff 24 d5 00 10 40 40 	jmpq   *0x40401000(,%rdx,8)
    40006d73:	80 78 01 68          	cmpb   $0x68,0x1(%rax)
    40006d77:	c7 44 24 18 ff ff ff 	movl   $0xffffffff,0x18(%rsp)
    40006d7e:	ff 
    40006d7f:	75 49                	jne    40006dca <vfscanf+0x27f>
    40006d81:	48 8d 58 02          	lea    0x2(%rax),%rbx
    40006d85:	c7 44 24 18 fe ff ff 	movl   $0xfffffffe,0x18(%rsp)
    40006d8c:	ff 
    40006d8d:	eb 3b                	jmp    40006dca <vfscanf+0x27f>
    40006d8f:	80 78 01 6c          	cmpb   $0x6c,0x1(%rax)
    40006d93:	c7 44 24 18 01 00 00 	movl   $0x1,0x18(%rsp)
    40006d9a:	00 
    40006d9b:	75 2d                	jne    40006dca <vfscanf+0x27f>
    40006d9d:	48 8d 58 02          	lea    0x2(%rax),%rbx
    40006da1:	c7 44 24 18 03 00 00 	movl   $0x3,0x18(%rsp)
    40006da8:	00 
    40006da9:	eb 1f                	jmp    40006dca <vfscanf+0x27f>
    40006dab:	c7 44 24 18 02 00 00 	movl   $0x2,0x18(%rsp)
    40006db2:	00 
    40006db3:	eb 15                	jmp    40006dca <vfscanf+0x27f>
    40006db5:	48 89 c3             	mov    %rax,%rbx
    40006db8:	c7 44 24 18 00 00 00 	movl   $0x0,0x18(%rsp)
    40006dbf:	00 
    40006dc0:	eb 08                	jmp    40006dca <vfscanf+0x27f>
    40006dc2:	c7 44 24 18 01 00 00 	movl   $0x1,0x18(%rsp)
    40006dc9:	00 
    40006dca:	0f b6 03             	movzbl (%rbx),%eax
    40006dcd:	88 c2                	mov    %al,%dl
    40006dcf:	83 e2 2f             	and    $0x2f,%edx
    40006dd2:	80 fa 03             	cmp    $0x3,%dl
    40006dd5:	74 06                	je     40006ddd <vfscanf+0x292>
    40006dd7:	89 44 24 14          	mov    %eax,0x14(%rsp)
    40006ddb:	eb 12                	jmp    40006def <vfscanf+0x2a4>
    40006ddd:	83 c8 20             	or     $0x20,%eax
    40006de0:	c7 44 24 18 01 00 00 	movl   $0x1,0x18(%rsp)
    40006de7:	00 
    40006de8:	0f b6 c0             	movzbl %al,%eax
    40006deb:	89 44 24 14          	mov    %eax,0x14(%rsp)
    40006def:	8b 44 24 14          	mov    0x14(%rsp),%eax
    40006df3:	83 f8 63             	cmp    $0x63,%eax
    40006df6:	74 1a                	je     40006e12 <vfscanf+0x2c7>
    40006df8:	83 f8 6e             	cmp    $0x6e,%eax
    40006dfb:	74 23                	je     40006e20 <vfscanf+0x2d5>
    40006dfd:	83 f8 5b             	cmp    $0x5b,%eax
    40006e00:	0f 84 83 00 00 00    	je     40006e89 <vfscanf+0x33e>
    40006e06:	31 f6                	xor    %esi,%esi
    40006e08:	48 89 ef             	mov    %rbp,%rdi
    40006e0b:	e8 70 27 00 00       	callq  40009580 <__shlim>
    40006e10:	eb 36                	jmp    40006e48 <vfscanf+0x2fd>
    40006e12:	45 85 ff             	test   %r15d,%r15d
    40006e15:	b8 01 00 00 00       	mov    $0x1,%eax
    40006e1a:	44 0f 4e f8          	cmovle %eax,%r15d
    40006e1e:	eb 69                	jmp    40006e89 <vfscanf+0x33e>
    40006e20:	48 8b 54 24 20       	mov    0x20(%rsp),%rdx
    40006e25:	8b 74 24 18          	mov    0x18(%rsp),%esi
    40006e29:	48 8b 7c 24 08       	mov    0x8(%rsp),%rdi
    40006e2e:	e8 91 fc ff ff       	callq  40006ac4 <store_int>
    40006e33:	e9 c9 05 00 00       	jmpq   40007401 <vfscanf+0x8b6>
    40006e38:	48 89 ef             	mov    %rbp,%rdi
    40006e3b:	e8 80 27 00 00       	callq  400095c0 <__shgetc>
    40006e40:	8d 50 f7             	lea    -0x9(%rax),%edx
    40006e43:	83 fa 04             	cmp    $0x4,%edx
    40006e46:	77 1a                	ja     40006e62 <vfscanf+0x317>
    40006e48:	48 8b 45 08          	mov    0x8(%rbp),%rax
    40006e4c:	48 3b 85 b8 00 00 00 	cmp    0xb8(%rbp),%rax
    40006e53:	73 e3                	jae    40006e38 <vfscanf+0x2ed>
    40006e55:	48 8d 50 01          	lea    0x1(%rax),%rdx
    40006e59:	48 89 55 08          	mov    %rdx,0x8(%rbp)
    40006e5d:	0f b6 00             	movzbl (%rax),%eax
    40006e60:	eb de                	jmp    40006e40 <vfscanf+0x2f5>
    40006e62:	83 f8 20             	cmp    $0x20,%eax
    40006e65:	74 e1                	je     40006e48 <vfscanf+0x2fd>
    40006e67:	48 83 bd b8 00 00 00 	cmpq   $0x0,0xb8(%rbp)
    40006e6e:	00 
    40006e6f:	74 04                	je     40006e75 <vfscanf+0x32a>
    40006e71:	48 ff 4d 08          	decq   0x8(%rbp)
    40006e75:	48 8b 45 08          	mov    0x8(%rbp),%rax
    40006e79:	48 2b 45 10          	sub    0x10(%rbp),%rax
    40006e7d:	48 03 85 c8 00 00 00 	add    0xc8(%rbp),%rax
    40006e84:	48 01 44 24 20       	add    %rax,0x20(%rsp)
    40006e89:	49 63 c7             	movslq %r15d,%rax
    40006e8c:	48 89 ef             	mov    %rbp,%rdi
    40006e8f:	48 89 c6             	mov    %rax,%rsi
    40006e92:	48 89 44 24 38       	mov    %rax,0x38(%rsp)
    40006e97:	e8 e4 26 00 00       	callq  40009580 <__shlim>
    40006e9c:	48 8b 45 08          	mov    0x8(%rbp),%rax
    40006ea0:	48 3b 85 b8 00 00 00 	cmp    0xb8(%rbp),%rax
    40006ea7:	73 09                	jae    40006eb2 <vfscanf+0x367>
    40006ea9:	48 ff c0             	inc    %rax
    40006eac:	48 89 45 08          	mov    %rax,0x8(%rbp)
    40006eb0:	eb 10                	jmp    40006ec2 <vfscanf+0x377>
    40006eb2:	48 89 ef             	mov    %rbp,%rdi
    40006eb5:	e8 06 27 00 00       	callq  400095c0 <__shgetc>
    40006eba:	85 c0                	test   %eax,%eax
    40006ebc:	0f 88 5c 05 00 00    	js     4000741e <vfscanf+0x8d3>
    40006ec2:	48 83 bd b8 00 00 00 	cmpq   $0x0,0xb8(%rbp)
    40006ec9:	00 
    40006eca:	74 04                	je     40006ed0 <vfscanf+0x385>
    40006ecc:	48 ff 4d 08          	decq   0x8(%rbp)
    40006ed0:	83 7c 24 14 64       	cmpl   $0x64,0x14(%rsp)
    40006ed5:	0f 84 48 04 00 00    	je     40007323 <vfscanf+0x7d8>
    40006edb:	7f 4a                	jg     40006f27 <vfscanf+0x3dc>
    40006edd:	83 7c 24 14 58       	cmpl   $0x58,0x14(%rsp)
    40006ee2:	0f 84 8f 00 00 00    	je     40006f77 <vfscanf+0x42c>
    40006ee8:	8b 44 24 14          	mov    0x14(%rsp),%eax
    40006eec:	7f 20                	jg     40006f0e <vfscanf+0x3c3>
    40006eee:	83 f8 41             	cmp    $0x41,%eax
    40006ef1:	0f 84 87 04 00 00    	je     4000737e <vfscanf+0x833>
    40006ef7:	0f 8c e5 04 00 00    	jl     400073e2 <vfscanf+0x897>
    40006efd:	83 e8 45             	sub    $0x45,%eax
    40006f00:	83 f8 02             	cmp    $0x2,%eax
    40006f03:	0f 86 75 04 00 00    	jbe    4000737e <vfscanf+0x833>
    40006f09:	e9 d4 04 00 00       	jmpq   400073e2 <vfscanf+0x897>
    40006f0e:	83 f8 61             	cmp    $0x61,%eax
    40006f11:	0f 84 67 04 00 00    	je     4000737e <vfscanf+0x833>
    40006f17:	83 f8 63             	cmp    $0x63,%eax
    40006f1a:	74 65                	je     40006f81 <vfscanf+0x436>
    40006f1c:	83 f8 5b             	cmp    $0x5b,%eax
    40006f1f:	0f 85 bd 04 00 00    	jne    400073e2 <vfscanf+0x897>
    40006f25:	eb 5a                	jmp    40006f81 <vfscanf+0x436>
    40006f27:	83 7c 24 14 6f       	cmpl   $0x6f,0x14(%rsp)
    40006f2c:	0f 84 f8 03 00 00    	je     4000732a <vfscanf+0x7df>
    40006f32:	7f 1d                	jg     40006f51 <vfscanf+0x406>
    40006f34:	8b 44 24 14          	mov    0x14(%rsp),%eax
    40006f38:	83 f8 67             	cmp    $0x67,%eax
    40006f3b:	0f 8e 3d 04 00 00    	jle    4000737e <vfscanf+0x833>
    40006f41:	31 f6                	xor    %esi,%esi
    40006f43:	83 f8 69             	cmp    $0x69,%eax
    40006f46:	0f 84 e3 03 00 00    	je     4000732f <vfscanf+0x7e4>
    40006f4c:	e9 91 04 00 00       	jmpq   400073e2 <vfscanf+0x897>
    40006f51:	83 7c 24 14 73       	cmpl   $0x73,0x14(%rsp)
    40006f56:	74 29                	je     40006f81 <vfscanf+0x436>
    40006f58:	7f 07                	jg     40006f61 <vfscanf+0x416>
    40006f5a:	83 7c 24 14 70       	cmpl   $0x70,0x14(%rsp)
    40006f5f:	eb 10                	jmp    40006f71 <vfscanf+0x426>
    40006f61:	83 7c 24 14 75       	cmpl   $0x75,0x14(%rsp)
    40006f66:	0f 84 b7 03 00 00    	je     40007323 <vfscanf+0x7d8>
    40006f6c:	83 7c 24 14 78       	cmpl   $0x78,0x14(%rsp)
    40006f71:	0f 85 6b 04 00 00    	jne    400073e2 <vfscanf+0x897>
    40006f77:	be 10 00 00 00       	mov    $0x10,%esi
    40006f7c:	e9 ae 03 00 00       	jmpq   4000732f <vfscanf+0x7e4>
    40006f81:	8b 44 24 14          	mov    0x14(%rsp),%eax
    40006f85:	83 f8 63             	cmp    $0x63,%eax
    40006f88:	0f 94 44 24 4b       	sete   0x4b(%rsp)
    40006f8d:	83 e0 ef             	and    $0xffffffef,%eax
    40006f90:	83 f8 63             	cmp    $0x63,%eax
    40006f93:	75 4e                	jne    40006fe3 <vfscanf+0x498>
    40006f95:	48 8d 7c 24 6f       	lea    0x6f(%rsp),%rdi
    40006f9a:	83 ce ff             	or     $0xffffffff,%esi
    40006f9d:	ba 01 01 00 00       	mov    $0x101,%edx
    40006fa2:	e8 f8 ef ff ff       	callq  40005f9f <memset>
    40006fa7:	83 7c 24 14 73       	cmpl   $0x73,0x14(%rsp)
    40006fac:	c6 44 24 6f 00       	movb   $0x0,0x6f(%rsp)
    40006fb1:	0f 85 d5 00 00 00    	jne    4000708c <vfscanf+0x541>
    40006fb7:	c6 44 24 79 00       	movb   $0x0,0x79(%rsp)
    40006fbc:	c6 44 24 7a 00       	movb   $0x0,0x7a(%rsp)
    40006fc1:	41 be 1f 00 00 00    	mov    $0x1f,%r14d
    40006fc7:	c6 44 24 7b 00       	movb   $0x0,0x7b(%rsp)
    40006fcc:	c6 44 24 7c 00       	movb   $0x0,0x7c(%rsp)
    40006fd1:	c6 44 24 7d 00       	movb   $0x0,0x7d(%rsp)
    40006fd6:	c6 84 24 90 00 00 00 	movb   $0x0,0x90(%rsp)
    40006fdd:	00 
    40006fde:	e9 bd 00 00 00       	jmpq   400070a0 <vfscanf+0x555>
    40006fe3:	80 7b 01 5e          	cmpb   $0x5e,0x1(%rbx)
    40006fe7:	74 08                	je     40006ff1 <vfscanf+0x4a6>
    40006fe9:	48 ff c3             	inc    %rbx
    40006fec:	45 31 f6             	xor    %r14d,%r14d
    40006fef:	eb 0a                	jmp    40006ffb <vfscanf+0x4b0>
    40006ff1:	48 83 c3 02          	add    $0x2,%rbx
    40006ff5:	41 be 01 00 00 00    	mov    $0x1,%r14d
    40006ffb:	48 8d 7c 24 6f       	lea    0x6f(%rsp),%rdi
    40007000:	ba 01 01 00 00       	mov    $0x101,%edx
    40007005:	44 89 f6             	mov    %r14d,%esi
    40007008:	e8 92 ef ff ff       	callq  40005f9f <memset>
    4000700d:	8a 03                	mov    (%rbx),%al
    4000700f:	c6 44 24 6f 00       	movb   $0x0,0x6f(%rsp)
    40007014:	3c 2d                	cmp    $0x2d,%al
    40007016:	75 16                	jne    4000702e <vfscanf+0x4e3>
    40007018:	b0 01                	mov    $0x1,%al
    4000701a:	48 ff c3             	inc    %rbx
    4000701d:	44 29 f0             	sub    %r14d,%eax
    40007020:	88 84 24 9d 00 00 00 	mov    %al,0x9d(%rsp)
    40007027:	b0 01                	mov    $0x1,%al
    40007029:	44 29 f0             	sub    %r14d,%eax
    4000702c:	eb 2c                	jmp    4000705a <vfscanf+0x50f>
    4000702e:	3c 5d                	cmp    $0x5d,%al
    40007030:	75 f5                	jne    40007027 <vfscanf+0x4dc>
    40007032:	b0 01                	mov    $0x1,%al
    40007034:	48 ff c3             	inc    %rbx
    40007037:	44 29 f0             	sub    %r14d,%eax
    4000703a:	88 84 24 cd 00 00 00 	mov    %al,0xcd(%rsp)
    40007041:	eb e4                	jmp    40007027 <vfscanf+0x4dc>
    40007043:	84 d2                	test   %dl,%dl
    40007045:	0f 84 d3 03 00 00    	je     4000741e <vfscanf+0x8d3>
    4000704b:	80 fa 2d             	cmp    $0x2d,%dl
    4000704e:	74 13                	je     40007063 <vfscanf+0x518>
    40007050:	0f b6 13             	movzbl (%rbx),%edx
    40007053:	48 ff c3             	inc    %rbx
    40007056:	88 44 14 70          	mov    %al,0x70(%rsp,%rdx,1)
    4000705a:	8a 13                	mov    (%rbx),%dl
    4000705c:	80 fa 5d             	cmp    $0x5d,%dl
    4000705f:	75 e2                	jne    40007043 <vfscanf+0x4f8>
    40007061:	eb 29                	jmp    4000708c <vfscanf+0x541>
    40007063:	0f b6 4b 01          	movzbl 0x1(%rbx),%ecx
    40007067:	84 c9                	test   %cl,%cl
    40007069:	74 e5                	je     40007050 <vfscanf+0x505>
    4000706b:	80 f9 5d             	cmp    $0x5d,%cl
    4000706e:	74 e0                	je     40007050 <vfscanf+0x505>
    40007070:	0f b6 53 ff          	movzbl -0x1(%rbx),%edx
    40007074:	48 8d 73 01          	lea    0x1(%rbx),%rsi
    40007078:	39 ca                	cmp    %ecx,%edx
    4000707a:	7d 0b                	jge    40007087 <vfscanf+0x53c>
    4000707c:	ff c2                	inc    %edx
    4000707e:	48 63 fa             	movslq %edx,%rdi
    40007081:	88 44 3c 6f          	mov    %al,0x6f(%rsp,%rdi,1)
    40007085:	eb f1                	jmp    40007078 <vfscanf+0x52d>
    40007087:	48 89 f3             	mov    %rsi,%rbx
    4000708a:	eb c4                	jmp    40007050 <vfscanf+0x505>
    4000708c:	8a 4c 24 4b          	mov    0x4b(%rsp),%cl
    40007090:	41 8d 47 01          	lea    0x1(%r15),%eax
    40007094:	41 be 1f 00 00 00    	mov    $0x1f,%r14d
    4000709a:	84 c9                	test   %cl,%cl
    4000709c:	4c 0f 45 f0          	cmovne %rax,%r14
    400070a0:	83 7c 24 18 01       	cmpl   $0x1,0x18(%rsp)
    400070a5:	0f 85 f7 00 00 00    	jne    400071a2 <vfscanf+0x657>
    400070ab:	83 7c 24 1c 00       	cmpl   $0x0,0x1c(%rsp)
    400070b0:	4c 8b 64 24 08       	mov    0x8(%rsp),%r12
    400070b5:	74 1d                	je     400070d4 <vfscanf+0x589>
    400070b7:	4a 8d 3c b5 00 00 00 	lea    0x0(,%r14,4),%rdi
    400070be:	00 
    400070bf:	e8 3c bf ff ff       	callq  40003000 <malloc>
    400070c4:	48 85 c0             	test   %rax,%rax
    400070c7:	49 89 c4             	mov    %rax,%r12
    400070ca:	75 08                	jne    400070d4 <vfscanf+0x589>
    400070cc:	45 31 e4             	xor    %r12d,%r12d
    400070cf:	e9 3a 03 00 00       	jmpq   4000740e <vfscanf+0x8c3>
    400070d4:	44 8a 6c 24 1c       	mov    0x1c(%rsp),%r13b
    400070d9:	48 c7 44 24 64 00 00 	movq   $0x0,0x64(%rsp)
    400070e0:	00 00 
    400070e2:	45 31 ff             	xor    %r15d,%r15d
    400070e5:	41 83 e5 01          	and    $0x1,%r13d
    400070e9:	48 8b 45 08          	mov    0x8(%rbp),%rax
    400070ed:	48 3b 85 b8 00 00 00 	cmp    0xb8(%rbp),%rax
    400070f4:	73 0d                	jae    40007103 <vfscanf+0x5b8>
    400070f6:	48 8d 50 01          	lea    0x1(%rax),%rdx
    400070fa:	48 89 55 08          	mov    %rdx,0x8(%rbp)
    400070fe:	0f b6 00             	movzbl (%rax),%eax
    40007101:	eb 08                	jmp    4000710b <vfscanf+0x5c0>
    40007103:	48 89 ef             	mov    %rbp,%rdi
    40007106:	e8 b5 24 00 00       	callq  400095c0 <__shgetc>
    4000710b:	8d 50 01             	lea    0x1(%rax),%edx
    4000710e:	48 63 d2             	movslq %edx,%rdx
    40007111:	80 7c 14 6f 00       	cmpb   $0x0,0x6f(%rsp,%rdx,1)
    40007116:	74 70                	je     40007188 <vfscanf+0x63d>
    40007118:	48 8d 4c 24 64       	lea    0x64(%rsp),%rcx
    4000711d:	48 8d 74 24 5f       	lea    0x5f(%rsp),%rsi
    40007122:	48 8d 7c 24 60       	lea    0x60(%rsp),%rdi
    40007127:	ba 01 00 00 00       	mov    $0x1,%edx
    4000712c:	88 44 24 5f          	mov    %al,0x5f(%rsp)
    40007130:	e8 a4 26 00 00       	callq  400097d9 <mbrtowc>
    40007135:	48 83 f8 fe          	cmp    $0xfffffffffffffffe,%rax
    40007139:	74 ae                	je     400070e9 <vfscanf+0x59e>
    4000713b:	48 ff c0             	inc    %rax
    4000713e:	0f 84 c5 02 00 00    	je     40007409 <vfscanf+0x8be>
    40007144:	4d 85 e4             	test   %r12,%r12
    40007147:	74 0b                	je     40007154 <vfscanf+0x609>
    40007149:	8b 44 24 60          	mov    0x60(%rsp),%eax
    4000714d:	43 89 04 bc          	mov    %eax,(%r12,%r15,4)
    40007151:	49 ff c7             	inc    %r15
    40007154:	4d 39 f7             	cmp    %r14,%r15
    40007157:	75 24                	jne    4000717d <vfscanf+0x632>
    40007159:	45 84 ed             	test   %r13b,%r13b
    4000715c:	74 1f                	je     4000717d <vfscanf+0x632>
    4000715e:	4f 8d 74 36 01       	lea    0x1(%r14,%r14,1),%r14
    40007163:	4c 89 e7             	mov    %r12,%rdi
    40007166:	4a 8d 34 b5 00 00 00 	lea    0x0(,%r14,4),%rsi
    4000716d:	00 
    4000716e:	e8 2d c5 ff ff       	callq  400036a0 <realloc>
    40007173:	48 85 c0             	test   %rax,%rax
    40007176:	75 08                	jne    40007180 <vfscanf+0x635>
    40007178:	e9 91 02 00 00       	jmpq   4000740e <vfscanf+0x8c3>
    4000717d:	4c 89 e0             	mov    %r12,%rax
    40007180:	49 89 c4             	mov    %rax,%r12
    40007183:	e9 61 ff ff ff       	jmpq   400070e9 <vfscanf+0x59e>
    40007188:	48 8d 7c 24 64       	lea    0x64(%rsp),%rdi
    4000718d:	45 31 ed             	xor    %r13d,%r13d
    40007190:	e8 6d 27 00 00       	callq  40009902 <mbsinit>
    40007195:	85 c0                	test   %eax,%eax
    40007197:	0f 85 0a 01 00 00    	jne    400072a7 <vfscanf+0x75c>
    4000719d:	e9 7c 02 00 00       	jmpq   4000741e <vfscanf+0x8d3>
    400071a2:	83 7c 24 1c 00       	cmpl   $0x0,0x1c(%rsp)
    400071a7:	74 75                	je     4000721e <vfscanf+0x6d3>
    400071a9:	4c 89 f7             	mov    %r14,%rdi
    400071ac:	e8 4f be ff ff       	callq  40003000 <malloc>
    400071b1:	48 85 c0             	test   %rax,%rax
    400071b4:	49 89 c5             	mov    %rax,%r13
    400071b7:	0f 84 0f ff ff ff    	je     400070cc <vfscanf+0x581>
    400071bd:	45 31 ff             	xor    %r15d,%r15d
    400071c0:	48 8b 45 08          	mov    0x8(%rbp),%rax
    400071c4:	48 3b 85 b8 00 00 00 	cmp    0xb8(%rbp),%rax
    400071cb:	73 0d                	jae    400071da <vfscanf+0x68f>
    400071cd:	48 8d 50 01          	lea    0x1(%rax),%rdx
    400071d1:	48 89 55 08          	mov    %rdx,0x8(%rbp)
    400071d5:	0f b6 00             	movzbl (%rax),%eax
    400071d8:	eb 08                	jmp    400071e2 <vfscanf+0x697>
    400071da:	48 89 ef             	mov    %rbp,%rdi
    400071dd:	e8 de 23 00 00       	callq  400095c0 <__shgetc>
    400071e2:	8d 50 01             	lea    0x1(%rax),%edx
    400071e5:	48 63 d2             	movslq %edx,%rdx
    400071e8:	80 7c 14 6f 00       	cmpb   $0x0,0x6f(%rsp,%rdx,1)
    400071ed:	74 7d                	je     4000726c <vfscanf+0x721>
    400071ef:	4d 8d 67 01          	lea    0x1(%r15),%r12
    400071f3:	43 88 44 3d 00       	mov    %al,0x0(%r13,%r15,1)
    400071f8:	4d 39 f4             	cmp    %r14,%r12
    400071fb:	75 1c                	jne    40007219 <vfscanf+0x6ce>
    400071fd:	4f 8d 74 36 01       	lea    0x1(%r14,%r14,1),%r14
    40007202:	4c 89 ef             	mov    %r13,%rdi
    40007205:	4c 89 f6             	mov    %r14,%rsi
    40007208:	e8 93 c4 ff ff       	callq  400036a0 <realloc>
    4000720d:	48 85 c0             	test   %rax,%rax
    40007210:	0f 84 fd 01 00 00    	je     40007413 <vfscanf+0x8c8>
    40007216:	49 89 c5             	mov    %rax,%r13
    40007219:	4d 89 e7             	mov    %r12,%r15
    4000721c:	eb a2                	jmp    400071c0 <vfscanf+0x675>
    4000721e:	48 83 7c 24 08 00    	cmpq   $0x0,0x8(%rsp)
    40007224:	74 4b                	je     40007271 <vfscanf+0x726>
    40007226:	45 31 ff             	xor    %r15d,%r15d
    40007229:	48 8b 45 08          	mov    0x8(%rbp),%rax
    4000722d:	48 3b 85 b8 00 00 00 	cmp    0xb8(%rbp),%rax
    40007234:	73 0d                	jae    40007243 <vfscanf+0x6f8>
    40007236:	48 8d 50 01          	lea    0x1(%rax),%rdx
    4000723a:	48 89 55 08          	mov    %rdx,0x8(%rbp)
    4000723e:	0f b6 00             	movzbl (%rax),%eax
    40007241:	eb 08                	jmp    4000724b <vfscanf+0x700>
    40007243:	48 89 ef             	mov    %rbp,%rdi
    40007246:	e8 75 23 00 00       	callq  400095c0 <__shgetc>
    4000724b:	8d 50 01             	lea    0x1(%rax),%edx
    4000724e:	48 63 d2             	movslq %edx,%rdx
    40007251:	80 7c 14 6f 00       	cmpb   $0x0,0x6f(%rsp,%rdx,1)
    40007256:	74 0f                	je     40007267 <vfscanf+0x71c>
    40007258:	48 8b 4c 24 08       	mov    0x8(%rsp),%rcx
    4000725d:	49 ff c7             	inc    %r15
    40007260:	42 88 44 39 ff       	mov    %al,-0x1(%rcx,%r15,1)
    40007265:	eb c2                	jmp    40007229 <vfscanf+0x6de>
    40007267:	4c 8b 6c 24 08       	mov    0x8(%rsp),%r13
    4000726c:	45 31 e4             	xor    %r12d,%r12d
    4000726f:	eb 36                	jmp    400072a7 <vfscanf+0x75c>
    40007271:	48 8b 45 08          	mov    0x8(%rbp),%rax
    40007275:	48 3b 85 b8 00 00 00 	cmp    0xb8(%rbp),%rax
    4000727c:	73 0d                	jae    4000728b <vfscanf+0x740>
    4000727e:	48 8d 50 01          	lea    0x1(%rax),%rdx
    40007282:	48 89 55 08          	mov    %rdx,0x8(%rbp)
    40007286:	0f b6 00             	movzbl (%rax),%eax
    40007289:	eb 08                	jmp    40007293 <vfscanf+0x748>
    4000728b:	48 89 ef             	mov    %rbp,%rdi
    4000728e:	e8 2d 23 00 00       	callq  400095c0 <__shgetc>
    40007293:	ff c0                	inc    %eax
    40007295:	48 98                	cltq   
    40007297:	80 7c 04 6f 00       	cmpb   $0x0,0x6f(%rsp,%rax,1)
    4000729c:	75 d3                	jne    40007271 <vfscanf+0x726>
    4000729e:	45 31 e4             	xor    %r12d,%r12d
    400072a1:	45 31 ff             	xor    %r15d,%r15d
    400072a4:	45 31 ed             	xor    %r13d,%r13d
    400072a7:	48 83 bd b8 00 00 00 	cmpq   $0x0,0xb8(%rbp)
    400072ae:	00 
    400072af:	74 04                	je     400072b5 <vfscanf+0x76a>
    400072b1:	48 ff 4d 08          	decq   0x8(%rbp)
    400072b5:	48 8b 45 08          	mov    0x8(%rbp),%rax
    400072b9:	48 2b 45 10          	sub    0x10(%rbp),%rax
    400072bd:	48 03 85 c8 00 00 00 	add    0xc8(%rbp),%rax
    400072c4:	0f 84 6a 01 00 00    	je     40007434 <vfscanf+0x8e9>
    400072ca:	80 7c 24 4b 00       	cmpb   $0x0,0x4b(%rsp)
    400072cf:	74 0b                	je     400072dc <vfscanf+0x791>
    400072d1:	48 3b 44 24 38       	cmp    0x38(%rsp),%rax
    400072d6:	0f 85 58 01 00 00    	jne    40007434 <vfscanf+0x8e9>
    400072dc:	83 7c 24 1c 00       	cmpl   $0x0,0x1c(%rsp)
    400072e1:	74 14                	je     400072f7 <vfscanf+0x7ac>
    400072e3:	83 7c 24 18 01       	cmpl   $0x1,0x18(%rsp)
    400072e8:	48 8b 44 24 08       	mov    0x8(%rsp),%rax
    400072ed:	75 05                	jne    400072f4 <vfscanf+0x7a9>
    400072ef:	4c 89 20             	mov    %r12,(%rax)
    400072f2:	eb 03                	jmp    400072f7 <vfscanf+0x7ac>
    400072f4:	4c 89 28             	mov    %r13,(%rax)
    400072f7:	83 7c 24 14 63       	cmpl   $0x63,0x14(%rsp)
    400072fc:	0f 84 e0 00 00 00    	je     400073e2 <vfscanf+0x897>
    40007302:	4d 85 e4             	test   %r12,%r12
    40007305:	74 08                	je     4000730f <vfscanf+0x7c4>
    40007307:	43 c7 04 bc 00 00 00 	movl   $0x0,(%r12,%r15,4)
    4000730e:	00 
    4000730f:	4d 85 ed             	test   %r13,%r13
    40007312:	0f 84 ca 00 00 00    	je     400073e2 <vfscanf+0x897>
    40007318:	43 c6 44 3d 00 00    	movb   $0x0,0x0(%r13,%r15,1)
    4000731e:	e9 bf 00 00 00       	jmpq   400073e2 <vfscanf+0x897>
    40007323:	be 0a 00 00 00       	mov    $0xa,%esi
    40007328:	eb 05                	jmp    4000732f <vfscanf+0x7e4>
    4000732a:	be 08 00 00 00       	mov    $0x8,%esi
    4000732f:	48 83 c9 ff          	or     $0xffffffffffffffff,%rcx
    40007333:	31 d2                	xor    %edx,%edx
    40007335:	48 89 ef             	mov    %rbp,%rdi
    40007338:	e8 d3 1c 00 00       	callq  40009010 <__intscan>
    4000733d:	48 8b 4d 08          	mov    0x8(%rbp),%rcx
    40007341:	48 2b 4d 10          	sub    0x10(%rbp),%rcx
    40007345:	48 03 8d c8 00 00 00 	add    0xc8(%rbp),%rcx
    4000734c:	48 85 c9             	test   %rcx,%rcx
    4000734f:	0f 84 df 00 00 00    	je     40007434 <vfscanf+0x8e9>
    40007355:	83 7c 24 14 70       	cmpl   $0x70,0x14(%rsp)
    4000735a:	75 0f                	jne    4000736b <vfscanf+0x820>
    4000735c:	48 8b 4c 24 08       	mov    0x8(%rsp),%rcx
    40007361:	48 85 c9             	test   %rcx,%rcx
    40007364:	74 05                	je     4000736b <vfscanf+0x820>
    40007366:	48 89 01             	mov    %rax,(%rcx)
    40007369:	eb 77                	jmp    400073e2 <vfscanf+0x897>
    4000736b:	8b 74 24 18          	mov    0x18(%rsp),%esi
    4000736f:	48 8b 7c 24 08       	mov    0x8(%rsp),%rdi
    40007374:	48 89 c2             	mov    %rax,%rdx
    40007377:	e8 48 f7 ff ff       	callq  40006ac4 <store_int>
    4000737c:	eb 64                	jmp    400073e2 <vfscanf+0x897>
    4000737e:	44 8b 74 24 18       	mov    0x18(%rsp),%r14d
    40007383:	31 d2                	xor    %edx,%edx
    40007385:	48 89 ef             	mov    %rbp,%rdi
    40007388:	44 89 f6             	mov    %r14d,%esi
    4000738b:	e8 70 10 00 00       	callq  40008400 <__floatscan>
    40007390:	48 8b 45 08          	mov    0x8(%rbp),%rax
    40007394:	48 2b 45 10          	sub    0x10(%rbp),%rax
    40007398:	48 03 85 c8 00 00 00 	add    0xc8(%rbp),%rax
    4000739f:	48 85 c0             	test   %rax,%rax
    400073a2:	0f 84 8a 00 00 00    	je     40007432 <vfscanf+0x8e7>
    400073a8:	48 83 7c 24 08 00    	cmpq   $0x0,0x8(%rsp)
    400073ae:	74 2c                	je     400073dc <vfscanf+0x891>
    400073b0:	41 83 fe 01          	cmp    $0x1,%r14d
    400073b4:	74 14                	je     400073ca <vfscanf+0x87f>
    400073b6:	41 83 fe 02          	cmp    $0x2,%r14d
    400073ba:	74 17                	je     400073d3 <vfscanf+0x888>
    400073bc:	45 85 f6             	test   %r14d,%r14d
    400073bf:	75 1f                	jne    400073e0 <vfscanf+0x895>
    400073c1:	48 8b 44 24 08       	mov    0x8(%rsp),%rax
    400073c6:	d9 18                	fstps  (%rax)
    400073c8:	eb 18                	jmp    400073e2 <vfscanf+0x897>
    400073ca:	48 8b 44 24 08       	mov    0x8(%rsp),%rax
    400073cf:	dd 18                	fstpl  (%rax)
    400073d1:	eb 0f                	jmp    400073e2 <vfscanf+0x897>
    400073d3:	48 8b 44 24 08       	mov    0x8(%rsp),%rax
    400073d8:	db 38                	fstpt  (%rax)
    400073da:	eb 06                	jmp    400073e2 <vfscanf+0x897>
    400073dc:	dd d8                	fstp   %st(0)
    400073de:	eb 02                	jmp    400073e2 <vfscanf+0x897>
    400073e0:	dd d8                	fstp   %st(0)
    400073e2:	48 8b 45 08          	mov    0x8(%rbp),%rax
    400073e6:	48 2b 45 10          	sub    0x10(%rbp),%rax
    400073ea:	48 03 85 c8 00 00 00 	add    0xc8(%rbp),%rax
    400073f1:	48 01 44 24 20       	add    %rax,0x20(%rsp)
    400073f6:	48 83 7c 24 08 01    	cmpq   $0x1,0x8(%rsp)
    400073fc:	83 5c 24 30 ff       	sbbl   $0xffffffff,0x30(%rsp)
    40007401:	48 ff c3             	inc    %rbx
    40007404:	e9 8a f7 ff ff       	jmpq   40006b93 <vfscanf+0x48>
    40007409:	45 31 ed             	xor    %r13d,%r13d
    4000740c:	eb 10                	jmp    4000741e <vfscanf+0x8d3>
    4000740e:	45 31 ed             	xor    %r13d,%r13d
    40007411:	eb 03                	jmp    40007416 <vfscanf+0x8cb>
    40007413:	45 31 e4             	xor    %r12d,%r12d
    40007416:	c7 44 24 1c 01 00 00 	movl   $0x1,0x1c(%rsp)
    4000741d:	00 
    4000741e:	8b 5c 24 30          	mov    0x30(%rsp),%ebx
    40007422:	b8 ff ff ff ff       	mov    $0xffffffff,%eax
    40007427:	85 db                	test   %ebx,%ebx
    40007429:	0f 45 c3             	cmovne %ebx,%eax
    4000742c:	89 44 24 30          	mov    %eax,0x30(%rsp)
    40007430:	eb 02                	jmp    40007434 <vfscanf+0x8e9>
    40007432:	dd d8                	fstp   %st(0)
    40007434:	83 7c 24 1c 00       	cmpl   $0x0,0x1c(%rsp)
    40007439:	74 10                	je     4000744b <vfscanf+0x900>
    4000743b:	4c 89 ef             	mov    %r13,%rdi
    4000743e:	e8 bd b6 ff ff       	callq  40002b00 <free>
    40007443:	4c 89 e7             	mov    %r12,%rdi
    40007446:	e8 b5 b6 ff ff       	callq  40002b00 <free>
    4000744b:	83 7c 24 34 00       	cmpl   $0x0,0x34(%rsp)
    40007450:	74 08                	je     4000745a <vfscanf+0x90f>
    40007452:	48 89 ef             	mov    %rbp,%rdi
    40007455:	e8 e6 f1 ff ff       	callq  40006640 <__unlockfile>
    4000745a:	8b 44 24 30          	mov    0x30(%rsp),%eax
    4000745e:	48 81 c4 78 01 00 00 	add    $0x178,%rsp
    40007465:	5b                   	pop    %rbx
    40007466:	5d                   	pop    %rbp
    40007467:	41 5c                	pop    %r12
    40007469:	41 5d                	pop    %r13
    4000746b:	41 5e                	pop    %r14
    4000746d:	41 5f                	pop    %r15
    4000746f:	c3                   	retq   

0000000040007470 <__stpcpy>:
    40007470:	48 89 fa             	mov    %rdi,%rdx
    40007473:	48 89 f8             	mov    %rdi,%rax
    40007476:	48 31 f2             	xor    %rsi,%rdx
    40007479:	83 e2 07             	and    $0x7,%edx
    4000747c:	0f 85 7f 00 00 00    	jne    40007501 <__stpcpy+0x91>
    40007482:	40 f6 c6 07          	test   $0x7,%sil
    40007486:	74 2f                	je     400074b7 <__stpcpy+0x47>
    40007488:	0f b6 16             	movzbl (%rsi),%edx
    4000748b:	84 d2                	test   %dl,%dl
    4000748d:	88 17                	mov    %dl,(%rdi)
    4000748f:	75 18                	jne    400074a9 <__stpcpy+0x39>
    40007491:	e9 8f 00 00 00       	jmpq   40007525 <__stpcpy+0xb5>
    40007496:	66 2e 0f 1f 84 00 00 	nopw   %cs:0x0(%rax,%rax,1)
    4000749d:	00 00 00 
    400074a0:	0f b6 16             	movzbl (%rsi),%edx
    400074a3:	84 d2                	test   %dl,%dl
    400074a5:	88 10                	mov    %dl,(%rax)
    400074a7:	74 78                	je     40007521 <__stpcpy+0xb1>
    400074a9:	48 83 c6 01          	add    $0x1,%rsi
    400074ad:	48 83 c0 01          	add    $0x1,%rax
    400074b1:	40 f6 c6 07          	test   $0x7,%sil
    400074b5:	75 e9                	jne    400074a0 <__stpcpy+0x30>
    400074b7:	48 8b 16             	mov    (%rsi),%rdx
    400074ba:	49 b9 ff fe fe fe fe 	movabs $0xfefefefefefefeff,%r9
    400074c1:	fe fe fe 
    400074c4:	49 b8 80 80 80 80 80 	movabs $0x8080808080808080,%r8
    400074cb:	80 80 80 
    400074ce:	4a 8d 0c 0a          	lea    (%rdx,%r9,1),%rcx
    400074d2:	48 89 d7             	mov    %rdx,%rdi
    400074d5:	48 f7 d7             	not    %rdi
    400074d8:	48 21 f9             	and    %rdi,%rcx
    400074db:	4c 85 c1             	test   %r8,%rcx
    400074de:	75 21                	jne    40007501 <__stpcpy+0x91>
    400074e0:	48 83 c0 08          	add    $0x8,%rax
    400074e4:	48 83 c6 08          	add    $0x8,%rsi
    400074e8:	48 89 50 f8          	mov    %rdx,-0x8(%rax)
    400074ec:	48 8b 16             	mov    (%rsi),%rdx
    400074ef:	4a 8d 0c 0a          	lea    (%rdx,%r9,1),%rcx
    400074f3:	48 89 d7             	mov    %rdx,%rdi
    400074f6:	48 f7 d7             	not    %rdi
    400074f9:	48 21 f9             	and    %rdi,%rcx
    400074fc:	4c 85 c1             	test   %r8,%rcx
    400074ff:	74 df                	je     400074e0 <__stpcpy+0x70>
    40007501:	0f b6 16             	movzbl (%rsi),%edx
    40007504:	84 d2                	test   %dl,%dl
    40007506:	88 10                	mov    %dl,(%rax)
    40007508:	74 19                	je     40007523 <__stpcpy+0xb3>
    4000750a:	66 0f 1f 44 00 00    	nopw   0x0(%rax,%rax,1)
    40007510:	48 83 c6 01          	add    $0x1,%rsi
    40007514:	0f b6 16             	movzbl (%rsi),%edx
    40007517:	48 83 c0 01          	add    $0x1,%rax
    4000751b:	84 d2                	test   %dl,%dl
    4000751d:	88 10                	mov    %dl,(%rax)
    4000751f:	75 ef                	jne    40007510 <__stpcpy+0xa0>
    40007521:	f3 c3                	repz retq 
    40007523:	f3 c3                	repz retq 
    40007525:	66 66 2e 0f 1f 84 00 	data16 nopw %cs:0x0(%rax,%rax,1)
    4000752c:	00 00 00 00 
    40007530:	f3 c3                	repz retq 
    40007532:	66 2e 0f 1f 84 00 00 	nopw   %cs:0x0(%rax,%rax,1)
    40007539:	00 00 00 
    4000753c:	0f 1f 40 00          	nopl   0x0(%rax)

0000000040007540 <scanexp>:
    40007540:	41 55                	push   %r13
    40007542:	41 54                	push   %r12
    40007544:	55                   	push   %rbp
    40007545:	89 f5                	mov    %esi,%ebp
    40007547:	53                   	push   %rbx
    40007548:	48 89 fb             	mov    %rdi,%rbx
    4000754b:	48 83 ec 08          	sub    $0x8,%rsp
    4000754f:	48 8b 47 08          	mov    0x8(%rdi),%rax
    40007553:	48 8b 8f b8 00 00 00 	mov    0xb8(%rdi),%rcx
    4000755a:	48 39 c8             	cmp    %rcx,%rax
    4000755d:	0f 83 85 01 00 00    	jae    400076e8 <scanexp+0x1a8>
    40007563:	48 8d 50 01          	lea    0x1(%rax),%rdx
    40007567:	48 89 57 08          	mov    %rdx,0x8(%rdi)
    4000756b:	0f b6 00             	movzbl (%rax),%eax
    4000756e:	83 f8 2d             	cmp    $0x2d,%eax
    40007571:	41 0f 94 c4          	sete   %r12b
    40007575:	74 39                	je     400075b0 <scanexp+0x70>
    40007577:	83 f8 2b             	cmp    $0x2b,%eax
    4000757a:	74 34                	je     400075b0 <scanexp+0x70>
    4000757c:	8d 50 d0             	lea    -0x30(%rax),%edx
    4000757f:	83 fa 09             	cmp    $0x9,%edx
    40007582:	76 6c                	jbe    400075f0 <scanexp+0xb0>
    40007584:	48 85 c9             	test   %rcx,%rcx
    40007587:	0f 84 8b 01 00 00    	je     40007718 <scanexp+0x1d8>
    4000758d:	48 83 6b 08 01       	subq   $0x1,0x8(%rbx)
    40007592:	48 b8 00 00 00 00 00 	movabs $0x8000000000000000,%rax
    40007599:	00 00 80 
    4000759c:	48 83 c4 08          	add    $0x8,%rsp
    400075a0:	5b                   	pop    %rbx
    400075a1:	5d                   	pop    %rbp
    400075a2:	41 5c                	pop    %r12
    400075a4:	41 5d                	pop    %r13
    400075a6:	c3                   	retq   
    400075a7:	66 0f 1f 84 00 00 00 	nopw   0x0(%rax,%rax,1)
    400075ae:	00 00 
    400075b0:	48 8b 43 08          	mov    0x8(%rbx),%rax
    400075b4:	48 39 c8             	cmp    %rcx,%rax
    400075b7:	0f 83 43 01 00 00    	jae    40007700 <scanexp+0x1c0>
    400075bd:	48 8d 50 01          	lea    0x1(%rax),%rdx
    400075c1:	48 89 53 08          	mov    %rdx,0x8(%rbx)
    400075c5:	0f b6 00             	movzbl (%rax),%eax
    400075c8:	8d 50 d0             	lea    -0x30(%rax),%edx
    400075cb:	45 0f b6 e4          	movzbl %r12b,%r12d
    400075cf:	83 fa 09             	cmp    $0x9,%edx
    400075d2:	76 1f                	jbe    400075f3 <scanexp+0xb3>
    400075d4:	85 ed                	test   %ebp,%ebp
    400075d6:	74 ac                	je     40007584 <scanexp+0x44>
    400075d8:	48 85 c9             	test   %rcx,%rcx
    400075db:	0f 84 37 01 00 00    	je     40007718 <scanexp+0x1d8>
    400075e1:	48 83 6b 08 01       	subq   $0x1,0x8(%rbx)
    400075e6:	eb 9c                	jmp    40007584 <scanexp+0x44>
    400075e8:	0f 1f 84 00 00 00 00 	nopl   0x0(%rax,%rax,1)
    400075ef:	00 
    400075f0:	45 31 e4             	xor    %r12d,%r12d
    400075f3:	31 ed                	xor    %ebp,%ebp
    400075f5:	eb 17                	jmp    4000760e <scanexp+0xce>
    400075f7:	66 0f 1f 84 00 00 00 	nopw   0x0(%rax,%rax,1)
    400075fe:	00 00 
    40007600:	48 8d 50 01          	lea    0x1(%rax),%rdx
    40007604:	48 89 53 08          	mov    %rdx,0x8(%rbx)
    40007608:	0f b6 00             	movzbl (%rax),%eax
    4000760b:	8d 50 d0             	lea    -0x30(%rax),%edx
    4000760e:	83 fa 09             	cmp    $0x9,%edx
    40007611:	77 2d                	ja     40007640 <scanexp+0x100>
    40007613:	81 fd cb cc cc 0c    	cmp    $0xccccccb,%ebp
    40007619:	7f 25                	jg     40007640 <scanexp+0x100>
    4000761b:	8d 54 ad 00          	lea    0x0(%rbp,%rbp,4),%edx
    4000761f:	8d 6c 50 d0          	lea    -0x30(%rax,%rdx,2),%ebp
    40007623:	48 8b 43 08          	mov    0x8(%rbx),%rax
    40007627:	48 39 c8             	cmp    %rcx,%rax
    4000762a:	72 d4                	jb     40007600 <scanexp+0xc0>
    4000762c:	48 89 df             	mov    %rbx,%rdi
    4000762f:	e8 8c 1f 00 00       	callq  400095c0 <__shgetc>
    40007634:	48 8b 8b b8 00 00 00 	mov    0xb8(%rbx),%rcx
    4000763b:	eb ce                	jmp    4000760b <scanexp+0xcb>
    4000763d:	0f 1f 00             	nopl   (%rax)
    40007640:	48 63 ed             	movslq %ebp,%rbp
    40007643:	49 bd ad 47 e1 7a 14 	movabs $0x147ae147ae147ad,%r13
    4000764a:	ae 47 01 
    4000764d:	eb 0f                	jmp    4000765e <scanexp+0x11e>
    4000764f:	90                   	nop
    40007650:	48 8d 50 01          	lea    0x1(%rax),%rdx
    40007654:	48 89 53 08          	mov    %rdx,0x8(%rbx)
    40007658:	0f b6 00             	movzbl (%rax),%eax
    4000765b:	8d 50 d0             	lea    -0x30(%rax),%edx
    4000765e:	83 fa 09             	cmp    $0x9,%edx
    40007661:	77 3b                	ja     4000769e <scanexp+0x15e>
    40007663:	4c 39 ed             	cmp    %r13,%rbp
    40007666:	7f 36                	jg     4000769e <scanexp+0x15e>
    40007668:	48 8d 54 ad 00       	lea    0x0(%rbp,%rbp,4),%rdx
    4000766d:	48 98                	cltq   
    4000766f:	48 8d 6c 50 d0       	lea    -0x30(%rax,%rdx,2),%rbp
    40007674:	48 8b 43 08          	mov    0x8(%rbx),%rax
    40007678:	48 39 c8             	cmp    %rcx,%rax
    4000767b:	72 d3                	jb     40007650 <scanexp+0x110>
    4000767d:	48 89 df             	mov    %rbx,%rdi
    40007680:	e8 3b 1f 00 00       	callq  400095c0 <__shgetc>
    40007685:	48 8b 8b b8 00 00 00 	mov    0xb8(%rbx),%rcx
    4000768c:	eb cd                	jmp    4000765b <scanexp+0x11b>
    4000768e:	66 90                	xchg   %ax,%ax
    40007690:	48 8d 50 01          	lea    0x1(%rax),%rdx
    40007694:	48 89 53 08          	mov    %rdx,0x8(%rbx)
    40007698:	0f b6 00             	movzbl (%rax),%eax
    4000769b:	8d 50 d0             	lea    -0x30(%rax),%edx
    4000769e:	83 fa 09             	cmp    $0x9,%edx
    400076a1:	77 1d                	ja     400076c0 <scanexp+0x180>
    400076a3:	48 8b 43 08          	mov    0x8(%rbx),%rax
    400076a7:	48 39 c8             	cmp    %rcx,%rax
    400076aa:	72 e4                	jb     40007690 <scanexp+0x150>
    400076ac:	48 89 df             	mov    %rbx,%rdi
    400076af:	e8 0c 1f 00 00       	callq  400095c0 <__shgetc>
    400076b4:	48 8b 8b b8 00 00 00 	mov    0xb8(%rbx),%rcx
    400076bb:	eb de                	jmp    4000769b <scanexp+0x15b>
    400076bd:	0f 1f 00             	nopl   (%rax)
    400076c0:	48 85 c9             	test   %rcx,%rcx
    400076c3:	74 05                	je     400076ca <scanexp+0x18a>
    400076c5:	48 83 6b 08 01       	subq   $0x1,0x8(%rbx)
    400076ca:	48 89 ea             	mov    %rbp,%rdx
    400076cd:	48 89 e8             	mov    %rbp,%rax
    400076d0:	48 f7 da             	neg    %rdx
    400076d3:	45 85 e4             	test   %r12d,%r12d
    400076d6:	48 0f 45 c2          	cmovne %rdx,%rax
    400076da:	48 83 c4 08          	add    $0x8,%rsp
    400076de:	5b                   	pop    %rbx
    400076df:	5d                   	pop    %rbp
    400076e0:	41 5c                	pop    %r12
    400076e2:	41 5d                	pop    %r13
    400076e4:	c3                   	retq   
    400076e5:	0f 1f 00             	nopl   (%rax)
    400076e8:	e8 d3 1e 00 00       	callq  400095c0 <__shgetc>
    400076ed:	48 8b 8b b8 00 00 00 	mov    0xb8(%rbx),%rcx
    400076f4:	e9 75 fe ff ff       	jmpq   4000756e <scanexp+0x2e>
    400076f9:	0f 1f 80 00 00 00 00 	nopl   0x0(%rax)
    40007700:	48 89 df             	mov    %rbx,%rdi
    40007703:	e8 b8 1e 00 00       	callq  400095c0 <__shgetc>
    40007708:	48 8b 8b b8 00 00 00 	mov    0xb8(%rbx),%rcx
    4000770f:	e9 b4 fe ff ff       	jmpq   400075c8 <scanexp+0x88>
    40007714:	0f 1f 40 00          	nopl   0x0(%rax)
    40007718:	48 b8 00 00 00 00 00 	movabs $0x8000000000000000,%rax
    4000771f:	00 00 80 
    40007722:	e9 75 fe ff ff       	jmpq   4000759c <scanexp+0x5c>
    40007727:	66 0f 1f 84 00 00 00 	nopw   0x0(%rax,%rax,1)
    4000772e:	00 00 

0000000040007730 <decfloat>:
    40007730:	41 57                	push   %r15
    40007732:	89 f0                	mov    %esi,%eax
    40007734:	41 56                	push   %r14
    40007736:	41 55                	push   %r13
    40007738:	41 54                	push   %r12
    4000773a:	55                   	push   %rbp
    4000773b:	48 89 fd             	mov    %rdi,%rbp
    4000773e:	53                   	push   %rbx
    4000773f:	48 81 ec a8 20 00 00 	sub    $0x20a8,%rsp
    40007746:	83 fe 30             	cmp    $0x30,%esi
    40007749:	89 54 24 78          	mov    %edx,0x78(%rsp)
    4000774d:	89 4c 24 40          	mov    %ecx,0x40(%rsp)
    40007751:	44 89 44 24 74       	mov    %r8d,0x74(%rsp)
    40007756:	44 89 4c 24 50       	mov    %r9d,0x50(%rsp)
    4000775b:	74 1b                	je     40007778 <decfloat+0x48>
    4000775d:	e9 0a 09 00 00       	jmpq   4000806c <decfloat+0x93c>
    40007762:	66 0f 1f 44 00 00    	nopw   0x0(%rax,%rax,1)
    40007768:	48 8d 50 01          	lea    0x1(%rax),%rdx
    4000776c:	48 89 55 08          	mov    %rdx,0x8(%rbp)
    40007770:	0f b6 00             	movzbl (%rax),%eax
    40007773:	83 f8 30             	cmp    $0x30,%eax
    40007776:	75 1a                	jne    40007792 <decfloat+0x62>
    40007778:	48 8b 45 08          	mov    0x8(%rbp),%rax
    4000777c:	48 3b 85 b8 00 00 00 	cmp    0xb8(%rbp),%rax
    40007783:	72 e3                	jb     40007768 <decfloat+0x38>
    40007785:	48 89 ef             	mov    %rbp,%rdi
    40007788:	e8 33 1e 00 00       	callq  400095c0 <__shgetc>
    4000778d:	83 f8 30             	cmp    $0x30,%eax
    40007790:	74 e6                	je     40007778 <decfloat+0x48>
    40007792:	c7 44 24 30 01 00 00 	movl   $0x1,0x30(%rsp)
    40007799:	00 
    4000779a:	31 f6                	xor    %esi,%esi
    4000779c:	45 31 ff             	xor    %r15d,%r15d
    4000779f:	83 f8 2e             	cmp    $0x2e,%eax
    400077a2:	0f 84 bf 03 00 00    	je     40007b67 <decfloat+0x437>
    400077a8:	c7 84 24 a0 00 00 00 	movl   $0x0,0xa0(%rsp)
    400077af:	00 00 00 00 
    400077b3:	45 31 f6             	xor    %r14d,%r14d
    400077b6:	45 31 e4             	xor    %r12d,%r12d
    400077b9:	31 db                	xor    %ebx,%ebx
    400077bb:	45 31 ed             	xor    %r13d,%r13d
    400077be:	66 90                	xchg   %ax,%ax
    400077c0:	8d 50 d0             	lea    -0x30(%rax),%edx
    400077c3:	83 f8 2e             	cmp    $0x2e,%eax
    400077c6:	0f 94 c1             	sete   %cl
    400077c9:	83 fa 09             	cmp    $0x9,%edx
    400077cc:	0f 87 88 00 00 00    	ja     4000785a <decfloat+0x12a>
    400077d2:	84 c9                	test   %cl,%cl
    400077d4:	0f 85 86 00 00 00    	jne    40007860 <decfloat+0x130>
    400077da:	49 83 c4 01          	add    $0x1,%r12
    400077de:	81 fb fc 07 00 00    	cmp    $0x7fc,%ebx
    400077e4:	0f 8f a6 00 00 00    	jg     40007890 <decfloat+0x160>
    400077ea:	83 f8 30             	cmp    $0x30,%eax
    400077ed:	48 63 c3             	movslq %ebx,%rax
    400077f0:	45 0f 45 f4          	cmovne %r12d,%r14d
    400077f4:	45 85 ed             	test   %r13d,%r13d
    400077f7:	0f 84 ab 00 00 00    	je     400078a8 <decfloat+0x178>
    400077fd:	8b 8c 84 a0 00 00 00 	mov    0xa0(%rsp,%rax,4),%ecx
    40007804:	41 83 c5 01          	add    $0x1,%r13d
    40007808:	c7 44 24 30 01 00 00 	movl   $0x1,0x30(%rsp)
    4000780f:	00 
    40007810:	41 83 fd 09          	cmp    $0x9,%r13d
    40007814:	8d 0c 89             	lea    (%rcx,%rcx,4),%ecx
    40007817:	8d 14 4a             	lea    (%rdx,%rcx,2),%edx
    4000781a:	89 94 84 a0 00 00 00 	mov    %edx,0xa0(%rsp,%rax,4)
    40007821:	75 0d                	jne    40007830 <decfloat+0x100>
    40007823:	83 c3 01             	add    $0x1,%ebx
    40007826:	45 30 ed             	xor    %r13b,%r13b
    40007829:	0f 1f 80 00 00 00 00 	nopl   0x0(%rax)
    40007830:	48 8b 45 08          	mov    0x8(%rbp),%rax
    40007834:	48 3b 85 b8 00 00 00 	cmp    0xb8(%rbp),%rax
    4000783b:	73 3e                	jae    4000787b <decfloat+0x14b>
    4000783d:	48 8d 50 01          	lea    0x1(%rax),%rdx
    40007841:	48 89 55 08          	mov    %rdx,0x8(%rbp)
    40007845:	0f b6 00             	movzbl (%rax),%eax
    40007848:	8d 50 d0             	lea    -0x30(%rax),%edx
    4000784b:	83 f8 2e             	cmp    $0x2e,%eax
    4000784e:	0f 94 c1             	sete   %cl
    40007851:	83 fa 09             	cmp    $0x9,%edx
    40007854:	0f 86 78 ff ff ff    	jbe    400077d2 <decfloat+0xa2>
    4000785a:	84 c9                	test   %cl,%cl
    4000785c:	74 64                	je     400078c2 <decfloat+0x192>
    4000785e:	66 90                	xchg   %ax,%ax
    40007860:	85 f6                	test   %esi,%esi
    40007862:	0f 85 70 03 00 00    	jne    40007bd8 <decfloat+0x4a8>
    40007868:	48 8b 45 08          	mov    0x8(%rbp),%rax
    4000786c:	48 3b 85 b8 00 00 00 	cmp    0xb8(%rbp),%rax
    40007873:	4d 89 e7             	mov    %r12,%r15
    40007876:	40 b6 01             	mov    $0x1,%sil
    40007879:	72 c2                	jb     4000783d <decfloat+0x10d>
    4000787b:	48 89 ef             	mov    %rbp,%rdi
    4000787e:	89 74 24 20          	mov    %esi,0x20(%rsp)
    40007882:	e8 39 1d 00 00       	callq  400095c0 <__shgetc>
    40007887:	8b 74 24 20          	mov    0x20(%rsp),%esi
    4000788b:	e9 30 ff ff ff       	jmpq   400077c0 <decfloat+0x90>
    40007890:	83 f8 30             	cmp    $0x30,%eax
    40007893:	74 9b                	je     40007830 <decfloat+0x100>
    40007895:	83 8c 24 90 20 00 00 	orl    $0x1,0x2090(%rsp)
    4000789c:	01 
    4000789d:	41 be dc 47 00 00    	mov    $0x47dc,%r14d
    400078a3:	eb 8b                	jmp    40007830 <decfloat+0x100>
    400078a5:	0f 1f 00             	nopl   (%rax)
    400078a8:	89 94 84 a0 00 00 00 	mov    %edx,0xa0(%rsp,%rax,4)
    400078af:	c7 44 24 30 01 00 00 	movl   $0x1,0x30(%rsp)
    400078b6:	00 
    400078b7:	41 bd 01 00 00 00    	mov    $0x1,%r13d
    400078bd:	e9 6e ff ff ff       	jmpq   40007830 <decfloat+0x100>
    400078c2:	85 f6                	test   %esi,%esi
    400078c4:	4d 0f 44 fc          	cmove  %r12,%r15
    400078c8:	8b 7c 24 30          	mov    0x30(%rsp),%edi
    400078cc:	85 ff                	test   %edi,%edi
    400078ce:	74 0e                	je     400078de <decfloat+0x1ae>
    400078d0:	89 c6                	mov    %eax,%esi
    400078d2:	83 ce 20             	or     $0x20,%esi
    400078d5:	83 fe 65             	cmp    $0x65,%esi
    400078d8:	0f 84 20 03 00 00    	je     40007bfe <decfloat+0x4ce>
    400078de:	85 c0                	test   %eax,%eax
    400078e0:	78 0f                	js     400078f1 <decfloat+0x1c1>
    400078e2:	48 83 bd b8 00 00 00 	cmpq   $0x0,0xb8(%rbp)
    400078e9:	00 
    400078ea:	74 05                	je     400078f1 <decfloat+0x1c1>
    400078ec:	48 83 6d 08 01       	subq   $0x1,0x8(%rbp)
    400078f1:	8b 4c 24 30          	mov    0x30(%rsp),%ecx
    400078f5:	85 c9                	test   %ecx,%ecx
    400078f7:	0f 84 e5 02 00 00    	je     40007be2 <decfloat+0x4b2>
    400078fd:	8b 84 24 a0 00 00 00 	mov    0xa0(%rsp),%eax
    40007904:	85 c0                	test   %eax,%eax
    40007906:	0f 84 34 01 00 00    	je     40007a40 <decfloat+0x310>
    4000790c:	4d 39 fc             	cmp    %r15,%r12
    4000790f:	75 0a                	jne    4000791b <decfloat+0x1eb>
    40007911:	49 83 fc 09          	cmp    $0x9,%r12
    40007915:	0f 8e 4f 01 00 00    	jle    40007a6a <decfloat+0x33a>
    4000791b:	8b 7c 24 40          	mov    0x40(%rsp),%edi
    4000791f:	89 f8                	mov    %edi,%eax
    40007921:	c1 e8 1f             	shr    $0x1f,%eax
    40007924:	01 f8                	add    %edi,%eax
    40007926:	d1 f8                	sar    %eax
    40007928:	f7 d8                	neg    %eax
    4000792a:	48 98                	cltq   
    4000792c:	4c 39 f8             	cmp    %r15,%rax
    4000792f:	0f 8c 76 07 00 00    	jl     400080ab <decfloat+0x97b>
    40007935:	89 f8                	mov    %edi,%eax
    40007937:	83 c0 80             	add    $0xffffff80,%eax
    4000793a:	48 98                	cltq   
    4000793c:	4c 39 f8             	cmp    %r15,%rax
    4000793f:	0f 8f b3 07 00 00    	jg     400080f8 <decfloat+0x9c8>
    40007945:	45 85 ed             	test   %r13d,%r13d
    40007948:	74 74                	je     400079be <decfloat+0x28e>
    4000794a:	41 83 fd 08          	cmp    $0x8,%r13d
    4000794e:	7f 6b                	jg     400079bb <decfloat+0x28b>
    40007950:	48 63 cb             	movslq %ebx,%rcx
    40007953:	41 83 fd 08          	cmp    $0x8,%r13d
    40007957:	8b 84 8c a0 00 00 00 	mov    0xa0(%rsp,%rcx,4),%eax
    4000795e:	8d 34 80             	lea    (%rax,%rax,4),%esi
    40007961:	8d 04 36             	lea    (%rsi,%rsi,1),%eax
    40007964:	74 4e                	je     400079b4 <decfloat+0x284>
    40007966:	8d 34 f0             	lea    (%rax,%rsi,8),%esi
    40007969:	41 83 fd 07          	cmp    $0x7,%r13d
    4000796d:	8d 04 36             	lea    (%rsi,%rsi,1),%eax
    40007970:	74 42                	je     400079b4 <decfloat+0x284>
    40007972:	8d 34 f0             	lea    (%rax,%rsi,8),%esi
    40007975:	41 83 fd 06          	cmp    $0x6,%r13d
    40007979:	8d 04 36             	lea    (%rsi,%rsi,1),%eax
    4000797c:	74 36                	je     400079b4 <decfloat+0x284>
    4000797e:	8d 34 f0             	lea    (%rax,%rsi,8),%esi
    40007981:	41 83 fd 05          	cmp    $0x5,%r13d
    40007985:	8d 04 36             	lea    (%rsi,%rsi,1),%eax
    40007988:	74 2a                	je     400079b4 <decfloat+0x284>
    4000798a:	8d 34 f0             	lea    (%rax,%rsi,8),%esi
    4000798d:	41 83 fd 04          	cmp    $0x4,%r13d
    40007991:	8d 04 36             	lea    (%rsi,%rsi,1),%eax
    40007994:	74 1e                	je     400079b4 <decfloat+0x284>
    40007996:	8d 34 f0             	lea    (%rax,%rsi,8),%esi
    40007999:	01 f6                	add    %esi,%esi
    4000799b:	41 83 fd 03          	cmp    $0x3,%r13d
    4000799f:	89 f0                	mov    %esi,%eax
    400079a1:	74 11                	je     400079b4 <decfloat+0x284>
    400079a3:	8d 34 b6             	lea    (%rsi,%rsi,4),%esi
    400079a6:	41 83 fd 01          	cmp    $0x1,%r13d
    400079aa:	8d 04 36             	lea    (%rsi,%rsi,1),%eax
    400079ad:	75 05                	jne    400079b4 <decfloat+0x284>
    400079af:	8d 04 f0             	lea    (%rax,%rsi,8),%eax
    400079b2:	01 c0                	add    %eax,%eax
    400079b4:	89 84 8c a0 00 00 00 	mov    %eax,0xa0(%rsp,%rcx,4)
    400079bb:	83 c3 01             	add    $0x1,%ebx
    400079be:	41 83 fe 08          	cmp    $0x8,%r14d
    400079c2:	44 89 ff             	mov    %r15d,%edi
    400079c5:	0f 8f d7 00 00 00    	jg     40007aa2 <decfloat+0x372>
    400079cb:	45 39 fe             	cmp    %r15d,%r14d
    400079ce:	0f 8f ce 00 00 00    	jg     40007aa2 <decfloat+0x372>
    400079d4:	41 83 ff 11          	cmp    $0x11,%r15d
    400079d8:	0f 8f c4 00 00 00    	jg     40007aa2 <decfloat+0x372>
    400079de:	41 83 ff 09          	cmp    $0x9,%r15d
    400079e2:	0f 84 9a 08 00 00    	je     40008282 <decfloat+0xb52>
    400079e8:	41 83 ff 08          	cmp    $0x8,%r15d
    400079ec:	0f 8e ab 09 00 00    	jle    4000839d <decfloat+0xc6d>
    400079f2:	b8 09 00 00 00       	mov    $0x9,%eax
    400079f7:	44 29 f8             	sub    %r15d,%eax
    400079fa:	8d 0c 40             	lea    (%rax,%rax,2),%ecx
    400079fd:	03 4c 24 78          	add    0x78(%rsp),%ecx
    40007a01:	8b 84 24 a0 00 00 00 	mov    0xa0(%rsp),%eax
    40007a08:	83 f9 1e             	cmp    $0x1e,%ecx
    40007a0b:	7f 0c                	jg     40007a19 <decfloat+0x2e9>
    40007a0d:	89 c2                	mov    %eax,%edx
    40007a0f:	d3 ea                	shr    %cl,%edx
    40007a11:	85 d2                	test   %edx,%edx
    40007a13:	0f 85 89 00 00 00    	jne    40007aa2 <decfloat+0x372>
    40007a19:	db 44 24 74          	fildl  0x74(%rsp)
    40007a1d:	48 89 84 24 90 00 00 	mov    %rax,0x90(%rsp)
    40007a24:	00 
    40007a25:	8d 47 f6             	lea    -0xa(%rdi),%eax
    40007a28:	48 98                	cltq   
    40007a2a:	df ac 24 90 00 00 00 	fildll 0x90(%rsp)
    40007a31:	de c9                	fmulp  %st,%st(1)
    40007a33:	db 04 85 e0 11 40 40 	fildl  0x404011e0(,%rax,4)
    40007a3a:	de c9                	fmulp  %st,%st(1)
    40007a3c:	eb 1a                	jmp    40007a58 <decfloat+0x328>
    40007a3e:	66 90                	xchg   %ax,%ax
    40007a40:	f2 0f 2a 44 24 74    	cvtsi2sdl 0x74(%rsp),%xmm0
    40007a46:	f2 0f 59 05 b2 97 3f 	mulsd  0x3f97b2(%rip),%xmm0        # 40401200 <p10s.2635+0x20>
    40007a4d:	00 
    40007a4e:	f2 0f 11 44 24 20    	movsd  %xmm0,0x20(%rsp)
    40007a54:	dd 44 24 20          	fldl   0x20(%rsp)
    40007a58:	48 81 c4 a8 20 00 00 	add    $0x20a8,%rsp
    40007a5f:	5b                   	pop    %rbx
    40007a60:	5d                   	pop    %rbp
    40007a61:	41 5c                	pop    %r12
    40007a63:	41 5d                	pop    %r13
    40007a65:	41 5e                	pop    %r14
    40007a67:	41 5f                	pop    %r15
    40007a69:	c3                   	retq   
    40007a6a:	8b 7c 24 78          	mov    0x78(%rsp),%edi
    40007a6e:	83 ff 1e             	cmp    $0x1e,%edi
    40007a71:	7f 0e                	jg     40007a81 <decfloat+0x351>
    40007a73:	89 c2                	mov    %eax,%edx
    40007a75:	89 f9                	mov    %edi,%ecx
    40007a77:	d3 ea                	shr    %cl,%edx
    40007a79:	85 d2                	test   %edx,%edx
    40007a7b:	0f 85 9a fe ff ff    	jne    4000791b <decfloat+0x1eb>
    40007a81:	db 44 24 74          	fildl  0x74(%rsp)
    40007a85:	48 89 84 24 90 00 00 	mov    %rax,0x90(%rsp)
    40007a8c:	00 
    40007a8d:	df ac 24 90 00 00 00 	fildll 0x90(%rsp)
    40007a94:	de c9                	fmulp  %st,%st(1)
    40007a96:	eb c0                	jmp    40007a58 <decfloat+0x328>
    40007a98:	0f 1f 84 00 00 00 00 	nopl   0x0(%rax,%rax,1)
    40007a9f:	00 
    40007aa0:	89 c3                	mov    %eax,%ebx
    40007aa2:	8d 43 ff             	lea    -0x1(%rbx),%eax
    40007aa5:	48 63 d0             	movslq %eax,%rdx
    40007aa8:	8b 94 94 a0 00 00 00 	mov    0xa0(%rsp,%rdx,4),%edx
    40007aaf:	85 d2                	test   %edx,%edx
    40007ab1:	74 ed                	je     40007aa0 <decfloat+0x370>
    40007ab3:	41 bf 39 8e e3 38    	mov    $0x38e38e39,%r15d
    40007ab9:	89 f8                	mov    %edi,%eax
    40007abb:	31 ed                	xor    %ebp,%ebp
    40007abd:	41 f7 ef             	imul   %r15d
    40007ac0:	89 f8                	mov    %edi,%eax
    40007ac2:	c1 f8 1f             	sar    $0x1f,%eax
    40007ac5:	41 89 d7             	mov    %edx,%r15d
    40007ac8:	41 d1 ff             	sar    %r15d
    40007acb:	41 29 c7             	sub    %eax,%r15d
    40007ace:	43 8d 04 ff          	lea    (%r15,%r15,8),%eax
    40007ad2:	41 89 ff             	mov    %edi,%r15d
    40007ad5:	41 29 c7             	sub    %eax,%r15d
    40007ad8:	0f 84 4f 01 00 00    	je     40007c2d <decfloat+0x4fd>
    40007ade:	41 8d 47 09          	lea    0x9(%r15),%eax
    40007ae2:	85 ff                	test   %edi,%edi
    40007ae4:	44 0f 48 f8          	cmovs  %eax,%r15d
    40007ae8:	b8 08 00 00 00       	mov    $0x8,%eax
    40007aed:	44 29 f8             	sub    %r15d,%eax
    40007af0:	85 db                	test   %ebx,%ebx
    40007af2:	48 98                	cltq   
    40007af4:	44 8b 0c 85 e0 11 40 	mov    0x404011e0(,%rax,4),%r9d
    40007afb:	40 
    40007afc:	0f 84 23 01 00 00    	je     40007c25 <decfloat+0x4f5>
    40007b02:	b8 00 ca 9a 3b       	mov    $0x3b9aca00,%eax
    40007b07:	be 01 00 00 00       	mov    $0x1,%esi
    40007b0c:	31 c9                	xor    %ecx,%ecx
    40007b0e:	99                   	cltd   
    40007b0f:	45 31 d2             	xor    %r10d,%r10d
    40007b12:	41 f7 f9             	idiv   %r9d
    40007b15:	41 89 c3             	mov    %eax,%r11d
    40007b18:	eb 15                	jmp    40007b2f <decfloat+0x3ff>
    40007b1a:	66 0f 1f 44 00 00    	nopw   0x0(%rax,%rax,1)
    40007b20:	48 83 c1 01          	add    $0x1,%rcx
    40007b24:	83 c6 01             	add    $0x1,%esi
    40007b27:	39 d8                	cmp    %ebx,%eax
    40007b29:	0f 84 4a 05 00 00    	je     40008079 <decfloat+0x949>
    40007b2f:	8b 84 8c a0 00 00 00 	mov    0xa0(%rsp,%rcx,4),%eax
    40007b36:	31 d2                	xor    %edx,%edx
    40007b38:	41 f7 f1             	div    %r9d
    40007b3b:	41 0f af d3          	imul   %r11d,%edx
    40007b3f:	45 8d 04 02          	lea    (%r10,%rax,1),%r8d
    40007b43:	39 e9                	cmp    %ebp,%ecx
    40007b45:	48 63 c6             	movslq %esi,%rax
    40007b48:	44 89 84 8c a0 00 00 	mov    %r8d,0xa0(%rsp,%rcx,4)
    40007b4f:	00 
    40007b50:	41 89 d2             	mov    %edx,%r10d
    40007b53:	75 cb                	jne    40007b20 <decfloat+0x3f0>
    40007b55:	45 85 c0             	test   %r8d,%r8d
    40007b58:	75 c6                	jne    40007b20 <decfloat+0x3f0>
    40007b5a:	89 f5                	mov    %esi,%ebp
    40007b5c:	83 ef 09             	sub    $0x9,%edi
    40007b5f:	81 e5 ff 07 00 00    	and    $0x7ff,%ebp
    40007b65:	eb b9                	jmp    40007b20 <decfloat+0x3f0>
    40007b67:	48 8b 45 08          	mov    0x8(%rbp),%rax
    40007b6b:	48 3b 85 b8 00 00 00 	cmp    0xb8(%rbp),%rax
    40007b72:	0f 83 26 05 00 00    	jae    4000809e <decfloat+0x96e>
    40007b78:	48 8d 50 01          	lea    0x1(%rax),%rdx
    40007b7c:	48 89 55 08          	mov    %rdx,0x8(%rbp)
    40007b80:	0f b6 00             	movzbl (%rax),%eax
    40007b83:	45 31 ff             	xor    %r15d,%r15d
    40007b86:	83 f8 30             	cmp    $0x30,%eax
    40007b89:	be 01 00 00 00       	mov    $0x1,%esi
    40007b8e:	74 18                	je     40007ba8 <decfloat+0x478>
    40007b90:	e9 13 fc ff ff       	jmpq   400077a8 <decfloat+0x78>
    40007b95:	0f 1f 00             	nopl   (%rax)
    40007b98:	48 8d 50 01          	lea    0x1(%rax),%rdx
    40007b9c:	48 89 55 08          	mov    %rdx,0x8(%rbp)
    40007ba0:	0f b6 00             	movzbl (%rax),%eax
    40007ba3:	83 f8 30             	cmp    $0x30,%eax
    40007ba6:	75 1e                	jne    40007bc6 <decfloat+0x496>
    40007ba8:	49 83 ef 01          	sub    $0x1,%r15
    40007bac:	48 8b 45 08          	mov    0x8(%rbp),%rax
    40007bb0:	48 3b 85 b8 00 00 00 	cmp    0xb8(%rbp),%rax
    40007bb7:	72 df                	jb     40007b98 <decfloat+0x468>
    40007bb9:	48 89 ef             	mov    %rbp,%rdi
    40007bbc:	e8 ff 19 00 00       	callq  400095c0 <__shgetc>
    40007bc1:	83 f8 30             	cmp    $0x30,%eax
    40007bc4:	74 e2                	je     40007ba8 <decfloat+0x478>
    40007bc6:	be 01 00 00 00       	mov    $0x1,%esi
    40007bcb:	c7 44 24 30 01 00 00 	movl   $0x1,0x30(%rsp)
    40007bd2:	00 
    40007bd3:	e9 d0 fb ff ff       	jmpq   400077a8 <decfloat+0x78>
    40007bd8:	b8 2e 00 00 00       	mov    $0x2e,%eax
    40007bdd:	e9 e6 fc ff ff       	jmpq   400078c8 <decfloat+0x198>
    40007be2:	e8 dc a7 ff ff       	callq  400023c3 <__tls_errno_location>
    40007be7:	c7 00 16 00 00 00    	movl   $0x16,(%rax)
    40007bed:	31 f6                	xor    %esi,%esi
    40007bef:	48 89 ef             	mov    %rbp,%rdi
    40007bf2:	e8 89 19 00 00       	callq  40009580 <__shlim>
    40007bf7:	d9 ee                	fldz   
    40007bf9:	e9 5a fe ff ff       	jmpq   40007a58 <decfloat+0x328>
    40007bfe:	8b 74 24 50          	mov    0x50(%rsp),%esi
    40007c02:	48 89 ef             	mov    %rbp,%rdi
    40007c05:	e8 36 f9 ff ff       	callq  40007540 <scanexp>
    40007c0a:	48 be 00 00 00 00 00 	movabs $0x8000000000000000,%rsi
    40007c11:	00 00 80 
    40007c14:	48 39 f0             	cmp    %rsi,%rax
    40007c17:	0f 84 5e 07 00 00    	je     4000837b <decfloat+0xc4b>
    40007c1d:	49 01 c7             	add    %rax,%r15
    40007c20:	e9 d8 fc ff ff       	jmpq   400078fd <decfloat+0x1cd>
    40007c25:	89 dd                	mov    %ebx,%ebp
    40007c27:	44 29 ff             	sub    %r15d,%edi
    40007c2a:	83 c7 09             	add    $0x9,%edi
    40007c2d:	45 31 ff             	xor    %r15d,%r15d
    40007c30:	49 ba 53 5a 9b a0 2f 	movabs $0x44b82fa09b5a53,%r10
    40007c37:	b8 44 00 
    40007c3a:	66 0f 1f 44 00 00    	nopw   0x0(%rax,%rax,1)
    40007c40:	83 ff 1a             	cmp    $0x1a,%edi
    40007c43:	7e 1a                	jle    40007c5f <decfloat+0x52f>
    40007c45:	83 ff 1b             	cmp    $0x1b,%edi
    40007c48:	0f 85 c2 00 00 00    	jne    40007d10 <decfloat+0x5e0>
    40007c4e:	48 63 c5             	movslq %ebp,%rax
    40007c51:	83 bc 84 a0 00 00 00 	cmpl   $0x11,0xa0(%rsp,%rax,4)
    40007c58:	11 
    40007c59:	0f 87 b1 00 00 00    	ja     40007d10 <decfloat+0x5e0>
    40007c5f:	44 8d 5b ff          	lea    -0x1(%rbx),%r11d
    40007c63:	41 83 ef 1d          	sub    $0x1d,%r15d
    40007c67:	45 31 c9             	xor    %r9d,%r9d
    40007c6a:	44 89 d9             	mov    %r11d,%ecx
    40007c6d:	81 e1 ff 07 00 00    	and    $0x7ff,%ecx
    40007c73:	eb 14                	jmp    40007c89 <decfloat+0x559>
    40007c75:	0f 1f 00             	nopl   (%rax)
    40007c78:	39 e9                	cmp    %ebp,%ecx
    40007c7a:	0f 84 98 01 00 00    	je     40007e18 <decfloat+0x6e8>
    40007c80:	83 e9 01             	sub    $0x1,%ecx
    40007c83:	81 e1 ff 07 00 00    	and    $0x7ff,%ecx
    40007c89:	4c 63 c1             	movslq %ecx,%r8
    40007c8c:	44 89 ce             	mov    %r9d,%esi
    40007c8f:	45 31 c9             	xor    %r9d,%r9d
    40007c92:	42 8b 84 84 a0 00 00 	mov    0xa0(%rsp,%r8,4),%eax
    40007c99:	00 
    40007c9a:	48 c1 e0 1d          	shl    $0x1d,%rax
    40007c9e:	48 01 c6             	add    %rax,%rsi
    40007ca1:	48 81 fe 00 ca 9a 3b 	cmp    $0x3b9aca00,%rsi
    40007ca8:	76 1d                	jbe    40007cc7 <decfloat+0x597>
    40007caa:	48 89 f2             	mov    %rsi,%rdx
    40007cad:	48 c1 ea 09          	shr    $0x9,%rdx
    40007cb1:	48 89 d0             	mov    %rdx,%rax
    40007cb4:	49 f7 e2             	mul    %r10
    40007cb7:	48 c1 ea 0b          	shr    $0xb,%rdx
    40007cbb:	41 89 d1             	mov    %edx,%r9d
    40007cbe:	48 69 d2 00 ca 9a 3b 	imul   $0x3b9aca00,%rdx,%rdx
    40007cc5:	29 d6                	sub    %edx,%esi
    40007cc7:	44 89 d8             	mov    %r11d,%eax
    40007cca:	42 89 b4 84 a0 00 00 	mov    %esi,0xa0(%rsp,%r8,4)
    40007cd1:	00 
    40007cd2:	25 ff 07 00 00       	and    $0x7ff,%eax
    40007cd7:	39 c8                	cmp    %ecx,%eax
    40007cd9:	75 9d                	jne    40007c78 <decfloat+0x548>
    40007cdb:	39 cd                	cmp    %ecx,%ebp
    40007cdd:	0f 84 35 01 00 00    	je     40007e18 <decfloat+0x6e8>
    40007ce3:	85 f6                	test   %esi,%esi
    40007ce5:	75 99                	jne    40007c80 <decfloat+0x550>
    40007ce7:	89 cb                	mov    %ecx,%ebx
    40007ce9:	44 8d 59 ff          	lea    -0x1(%rcx),%r11d
    40007ced:	eb 91                	jmp    40007c80 <decfloat+0x550>
    40007cef:	90                   	nop
    40007cf0:	85 d2                	test   %edx,%edx
    40007cf2:	74 1c                	je     40007d10 <decfloat+0x5e0>
    40007cf4:	8d 43 01             	lea    0x1(%rbx),%eax
    40007cf7:	25 ff 07 00 00       	and    $0x7ff,%eax
    40007cfc:	39 c5                	cmp    %eax,%ebp
    40007cfe:	0f 84 53 03 00 00    	je     40008057 <decfloat+0x927>
    40007d04:	48 63 db             	movslq %ebx,%rbx
    40007d07:	89 94 9c a0 00 00 00 	mov    %edx,0xa0(%rsp,%rbx,4)
    40007d0e:	89 c3                	mov    %eax,%ebx
    40007d10:	89 e8                	mov    %ebp,%eax
    40007d12:	25 ff 07 00 00       	and    $0x7ff,%eax
    40007d17:	39 d8                	cmp    %ebx,%eax
    40007d19:	0f 84 3c 01 00 00    	je     40007e5b <decfloat+0x72b>
    40007d1f:	48 98                	cltq   
    40007d21:	8b 84 84 a0 00 00 00 	mov    0xa0(%rsp,%rax,4),%eax
    40007d28:	83 f8 11             	cmp    $0x11,%eax
    40007d2b:	0f 86 2a 01 00 00    	jbe    40007e5b <decfloat+0x72b>
    40007d31:	83 f8 12             	cmp    $0x12,%eax
    40007d34:	75 4e                	jne    40007d84 <decfloat+0x654>
    40007d36:	8d 45 01             	lea    0x1(%rbp),%eax
    40007d39:	25 ff 07 00 00       	and    $0x7ff,%eax
    40007d3e:	39 d8                	cmp    %ebx,%eax
    40007d40:	0f 84 15 01 00 00    	je     40007e5b <decfloat+0x72b>
    40007d46:	48 98                	cltq   
    40007d48:	8b 84 84 a0 00 00 00 	mov    0xa0(%rsp,%rax,4),%eax
    40007d4f:	3d 08 c6 a0 1a       	cmp    $0x1aa0c608,%eax
    40007d54:	0f 86 01 01 00 00    	jbe    40007e5b <decfloat+0x72b>
    40007d5a:	3d 09 c6 a0 1a       	cmp    $0x1aa0c609,%eax
    40007d5f:	75 23                	jne    40007d84 <decfloat+0x654>
    40007d61:	8d 45 02             	lea    0x2(%rbp),%eax
    40007d64:	25 ff 07 00 00       	and    $0x7ff,%eax
    40007d69:	39 d8                	cmp    %ebx,%eax
    40007d6b:	0f 84 ea 00 00 00    	je     40007e5b <decfloat+0x72b>
    40007d71:	48 98                	cltq   
    40007d73:	81 bc 84 a0 00 00 00 	cmpl   $0x2a4ae5ff,0xa0(%rsp,%rax,4)
    40007d7a:	ff e5 4a 2a 
    40007d7e:	0f 86 d7 00 00 00    	jbe    40007e5b <decfloat+0x72b>
    40007d84:	83 ff 24             	cmp    $0x24,%edi
    40007d87:	b8 65 cd 1d 00       	mov    $0x1dcd65,%eax
    40007d8c:	41 bb 00 65 cd 1d    	mov    $0x1dcd6500,%r11d
    40007d92:	0f 9f c1             	setg   %cl
    40007d95:	44 0f 4f d8          	cmovg  %eax,%r11d
    40007d99:	41 ba 01 00 00 00    	mov    $0x1,%r10d
    40007d9f:	0f b6 c9             	movzbl %cl,%ecx
    40007da2:	b8 ff 01 00 00       	mov    $0x1ff,%eax
    40007da7:	8d 0c cd 01 00 00 00 	lea    0x1(,%rcx,8),%ecx
    40007dae:	44 0f 4f d0          	cmovg  %eax,%r10d
    40007db2:	41 01 cf             	add    %ecx,%r15d
    40007db5:	39 dd                	cmp    %ebx,%ebp
    40007db7:	0f 84 53 ff ff ff    	je     40007d10 <decfloat+0x5e0>
    40007dbd:	89 e8                	mov    %ebp,%eax
    40007dbf:	31 d2                	xor    %edx,%edx
    40007dc1:	eb 15                	jmp    40007dd8 <decfloat+0x6a8>
    40007dc3:	0f 1f 44 00 00       	nopl   0x0(%rax,%rax,1)
    40007dc8:	83 c0 01             	add    $0x1,%eax
    40007dcb:	25 ff 07 00 00       	and    $0x7ff,%eax
    40007dd0:	39 c3                	cmp    %eax,%ebx
    40007dd2:	0f 84 18 ff ff ff    	je     40007cf0 <decfloat+0x5c0>
    40007dd8:	4c 63 c0             	movslq %eax,%r8
    40007ddb:	42 8b b4 84 a0 00 00 	mov    0xa0(%rsp,%r8,4),%esi
    40007de2:	00 
    40007de3:	41 89 f1             	mov    %esi,%r9d
    40007de6:	44 21 d6             	and    %r10d,%esi
    40007de9:	41 d3 e9             	shr    %cl,%r9d
    40007dec:	41 01 d1             	add    %edx,%r9d
    40007def:	89 f2                	mov    %esi,%edx
    40007df1:	41 0f af d3          	imul   %r11d,%edx
    40007df5:	39 e8                	cmp    %ebp,%eax
    40007df7:	46 89 8c 84 a0 00 00 	mov    %r9d,0xa0(%rsp,%r8,4)
    40007dfe:	00 
    40007dff:	75 c7                	jne    40007dc8 <decfloat+0x698>
    40007e01:	45 85 c9             	test   %r9d,%r9d
    40007e04:	74 42                	je     40007e48 <decfloat+0x718>
    40007e06:	8d 70 01             	lea    0x1(%rax),%esi
    40007e09:	89 c5                	mov    %eax,%ebp
    40007e0b:	89 f0                	mov    %esi,%eax
    40007e0d:	25 ff 07 00 00       	and    $0x7ff,%eax
    40007e12:	eb bc                	jmp    40007dd0 <decfloat+0x6a0>
    40007e14:	0f 1f 40 00          	nopl   0x0(%rax)
    40007e18:	45 85 c9             	test   %r9d,%r9d
    40007e1b:	0f 84 1f fe ff ff    	je     40007c40 <decfloat+0x510>
    40007e21:	83 ed 01             	sub    $0x1,%ebp
    40007e24:	83 c7 09             	add    $0x9,%edi
    40007e27:	81 e5 ff 07 00 00    	and    $0x7ff,%ebp
    40007e2d:	39 eb                	cmp    %ebp,%ebx
    40007e2f:	0f 84 f3 01 00 00    	je     40008028 <decfloat+0x8f8>
    40007e35:	48 63 c5             	movslq %ebp,%rax
    40007e38:	44 89 8c 84 a0 00 00 	mov    %r9d,0xa0(%rsp,%rax,4)
    40007e3f:	00 
    40007e40:	e9 fb fd ff ff       	jmpq   40007c40 <decfloat+0x510>
    40007e45:	0f 1f 00             	nopl   (%rax)
    40007e48:	8d 68 01             	lea    0x1(%rax),%ebp
    40007e4b:	83 ef 09             	sub    $0x9,%edi
    40007e4e:	81 e5 ff 07 00 00    	and    $0x7ff,%ebp
    40007e54:	89 e8                	mov    %ebp,%eax
    40007e56:	e9 75 ff ff ff       	jmpq   40007dd0 <decfloat+0x6a0>
    40007e5b:	83 ff 1b             	cmp    $0x1b,%edi
    40007e5e:	0f 85 20 ff ff ff    	jne    40007d84 <decfloat+0x654>
    40007e64:	89 e8                	mov    %ebp,%eax
    40007e66:	25 ff 07 00 00       	and    $0x7ff,%eax
    40007e6b:	39 d8                	cmp    %ebx,%eax
    40007e6d:	0f 84 a3 02 00 00    	je     40008116 <decfloat+0x9e6>
    40007e73:	48 98                	cltq   
    40007e75:	8b 84 84 a0 00 00 00 	mov    0xa0(%rsp,%rax,4),%eax
    40007e7c:	48 89 84 24 90 00 00 	mov    %rax,0x90(%rsp)
    40007e83:	00 
    40007e84:	8d 45 01             	lea    0x1(%rbp),%eax
    40007e87:	df ac 24 90 00 00 00 	fildll 0x90(%rsp)
    40007e8e:	25 ff 07 00 00       	and    $0x7ff,%eax
    40007e93:	39 d8                	cmp    %ebx,%eax
    40007e95:	d9 ee                	fldz   
    40007e97:	de c1                	faddp  %st,%st(1)
    40007e99:	0f 84 69 03 00 00    	je     40008208 <decfloat+0xad8>
    40007e9f:	d8 0d a3 89 3f 00    	fmuls  0x3f89a3(%rip)        # 40400848 <states+0x1e8>
    40007ea5:	48 98                	cltq   
    40007ea7:	8b 84 84 a0 00 00 00 	mov    0xa0(%rsp,%rax,4),%eax
    40007eae:	48 89 84 24 90 00 00 	mov    %rax,0x90(%rsp)
    40007eb5:	00 
    40007eb6:	8d 45 02             	lea    0x2(%rbp),%eax
    40007eb9:	df ac 24 90 00 00 00 	fildll 0x90(%rsp)
    40007ec0:	25 ff 07 00 00       	and    $0x7ff,%eax
    40007ec5:	39 d8                	cmp    %ebx,%eax
    40007ec7:	de c1                	faddp  %st,%st(1)
    40007ec9:	0f 84 1a 03 00 00    	je     400081e9 <decfloat+0xab9>
    40007ecf:	d8 0d 73 89 3f 00    	fmuls  0x3f8973(%rip)        # 40400848 <states+0x1e8>
    40007ed5:	48 98                	cltq   
    40007ed7:	41 8d 77 40          	lea    0x40(%r15),%esi
    40007edb:	8b 84 84 a0 00 00 00 	mov    0xa0(%rsp,%rax,4),%eax
    40007ee2:	89 f1                	mov    %esi,%ecx
    40007ee4:	2b 4c 24 40          	sub    0x40(%rsp),%ecx
    40007ee8:	39 4c 24 78          	cmp    %ecx,0x78(%rsp)
    40007eec:	48 89 84 24 90 00 00 	mov    %rax,0x90(%rsp)
    40007ef3:	00 
    40007ef4:	df ac 24 90 00 00 00 	fildll 0x90(%rsp)
    40007efb:	de c1                	faddp  %st,%st(1)
    40007efd:	db 44 24 74          	fildl  0x74(%rsp)
    40007f01:	de c9                	fmulp  %st,%st(1)
    40007f03:	0f 8e 89 01 00 00    	jle    40008092 <decfloat+0x962>
    40007f09:	85 c9                	test   %ecx,%ecx
    40007f0b:	0f 88 53 04 00 00    	js     40008364 <decfloat+0xc34>
    40007f11:	89 ca                	mov    %ecx,%edx
    40007f13:	41 b8 01 00 00 00    	mov    $0x1,%r8d
    40007f19:	83 fa 3f             	cmp    $0x3f,%edx
    40007f1c:	0f 8e 81 03 00 00    	jle    400082a3 <decfloat+0xb73>
    40007f22:	d9 ee                	fldz   
    40007f24:	d9 c0                	fld    %st(0)
    40007f26:	8d 45 03             	lea    0x3(%rbp),%eax
    40007f29:	25 ff 07 00 00       	and    $0x7ff,%eax
    40007f2e:	39 c3                	cmp    %eax,%ebx
    40007f30:	0f 84 a8 00 00 00    	je     40007fde <decfloat+0x8ae>
    40007f36:	48 98                	cltq   
    40007f38:	8b 84 84 a0 00 00 00 	mov    0xa0(%rsp,%rax,4),%eax
    40007f3f:	3d ff 64 cd 1d       	cmp    $0x1dcd64ff,%eax
    40007f44:	0f 87 84 01 00 00    	ja     400080ce <decfloat+0x99e>
    40007f4a:	85 c0                	test   %eax,%eax
    40007f4c:	0f 84 ea 02 00 00    	je     4000823c <decfloat+0xb0c>
    40007f52:	f2 0f 2a 44 24 74    	cvtsi2sdl 0x74(%rsp),%xmm0
    40007f58:	f2 0f 59 05 b0 92 3f 	mulsd  0x3f92b0(%rip),%xmm0        # 40401210 <p10s.2635+0x30>
    40007f5f:	00 
    40007f60:	f2 0f 11 44 24 20    	movsd  %xmm0,0x20(%rsp)
    40007f66:	dd 44 24 20          	fldl   0x20(%rsp)
    40007f6a:	de c2                	faddp  %st,%st(2)
    40007f6c:	b8 40 00 00 00       	mov    $0x40,%eax
    40007f71:	29 d0                	sub    %edx,%eax
    40007f73:	83 f8 01             	cmp    $0x1,%eax
    40007f76:	7e 6a                	jle    40007fe2 <decfloat+0x8b2>
    40007f78:	db 7c 24 60          	fstpt  0x60(%rsp)
    40007f7c:	d9 c9                	fxch   %st(1)
    40007f7e:	89 8c 24 80 00 00 00 	mov    %ecx,0x80(%rsp)
    40007f85:	89 74 24 7c          	mov    %esi,0x7c(%rsp)
    40007f89:	44 89 44 24 74       	mov    %r8d,0x74(%rsp)
    40007f8e:	89 54 24 30          	mov    %edx,0x30(%rsp)
    40007f92:	db 7c 24 50          	fstpt  0x50(%rsp)
    40007f96:	d9 e8                	fld1   
    40007f98:	db 7c 24 10          	fstpt  0x10(%rsp)
    40007f9c:	d9 c0                	fld    %st(0)
    40007f9e:	db 3c 24             	fstpt  (%rsp)
    40007fa1:	db 7c 24 20          	fstpt  0x20(%rsp)
    40007fa5:	e8 1b 18 00 00       	callq  400097c5 <fmodl>
    40007faa:	d9 ee                	fldz   
    40007fac:	d9 c9                	fxch   %st(1)
    40007fae:	8b 54 24 30          	mov    0x30(%rsp),%edx
    40007fb2:	44 8b 44 24 74       	mov    0x74(%rsp),%r8d
    40007fb7:	8b 74 24 7c          	mov    0x7c(%rsp),%esi
    40007fbb:	8b 8c 24 80 00 00 00 	mov    0x80(%rsp),%ecx
    40007fc2:	df e9                	fucomip %st(1),%st
    40007fc4:	dd d8                	fstp   %st(0)
    40007fc6:	db 6c 24 20          	fldt   0x20(%rsp)
    40007fca:	db 6c 24 50          	fldt   0x50(%rsp)
    40007fce:	db 6c 24 60          	fldt   0x60(%rsp)
    40007fd2:	0f 8b 4f 02 00 00    	jnp    40008227 <decfloat+0xaf7>
    40007fd8:	d9 ca                	fxch   %st(2)
    40007fda:	d9 c9                	fxch   %st(1)
    40007fdc:	eb 0c                	jmp    40007fea <decfloat+0x8ba>
    40007fde:	d9 ca                	fxch   %st(2)
    40007fe0:	eb 08                	jmp    40007fea <decfloat+0x8ba>
    40007fe2:	d9 ca                	fxch   %st(2)
    40007fe4:	eb 04                	jmp    40007fea <decfloat+0x8ba>
    40007fe6:	d9 ca                	fxch   %st(2)
    40007fe8:	d9 c9                	fxch   %st(1)
    40007fea:	44 8b 64 24 40       	mov    0x40(%rsp),%r12d
    40007fef:	81 e6 ff ff ff 7f    	and    $0x7fffffff,%esi
    40007ff5:	41 f7 dc             	neg    %r12d
    40007ff8:	44 2b 64 24 78       	sub    0x78(%rsp),%r12d
    40007ffd:	d8 c1                	fadd   %st(1),%st
    40007fff:	41 8d 44 24 ff       	lea    -0x1(%r12),%eax
    40008004:	39 f0                	cmp    %esi,%eax
    40008006:	de e2                	fsubp  %st,%st(2)
    40008008:	0f 8e 27 01 00 00    	jle    40008135 <decfloat+0xa05>
    4000800e:	dd d8                	fstp   %st(0)
    40008010:	eb 02                	jmp    40008014 <decfloat+0x8e4>
    40008012:	dd d8                	fstp   %st(0)
    40008014:	db 3c 24             	fstpt  (%rsp)
    40008017:	44 89 ff             	mov    %r15d,%edi
    4000801a:	e8 0c 17 00 00       	callq  4000972b <scalbnl>
    4000801f:	e9 34 fa ff ff       	jmpq   40007a58 <decfloat+0x328>
    40008024:	0f 1f 40 00          	nopl   0x0(%rax)
    40008028:	83 eb 01             	sub    $0x1,%ebx
    4000802b:	81 e3 ff 07 00 00    	and    $0x7ff,%ebx
    40008031:	8d 53 ff             	lea    -0x1(%rbx),%edx
    40008034:	48 63 cb             	movslq %ebx,%rcx
    40008037:	81 e2 ff 07 00 00    	and    $0x7ff,%edx
    4000803d:	8b 84 94 a0 00 00 00 	mov    0xa0(%rsp,%rdx,4),%eax
    40008044:	0b 84 8c a0 00 00 00 	or     0xa0(%rsp,%rcx,4),%eax
    4000804b:	89 84 94 a0 00 00 00 	mov    %eax,0xa0(%rsp,%rdx,4)
    40008052:	e9 de fd ff ff       	jmpq   40007e35 <decfloat+0x705>
    40008057:	8d 43 ff             	lea    -0x1(%rbx),%eax
    4000805a:	25 ff 07 00 00       	and    $0x7ff,%eax
    4000805f:	83 8c 84 a0 00 00 00 	orl    $0x1,0xa0(%rsp,%rax,4)
    40008066:	01 
    40008067:	e9 a4 fc ff ff       	jmpq   40007d10 <decfloat+0x5e0>
    4000806c:	c7 44 24 30 00 00 00 	movl   $0x0,0x30(%rsp)
    40008073:	00 
    40008074:	e9 21 f7 ff ff       	jmpq   4000779a <decfloat+0x6a>
    40008079:	45 85 d2             	test   %r10d,%r10d
    4000807c:	0f 84 a5 fb ff ff    	je     40007c27 <decfloat+0x4f7>
    40008082:	83 c3 01             	add    $0x1,%ebx
    40008085:	44 89 94 84 a0 00 00 	mov    %r10d,0xa0(%rsp,%rax,4)
    4000808c:	00 
    4000808d:	e9 95 fb ff ff       	jmpq   40007c27 <decfloat+0x4f7>
    40008092:	8b 54 24 78          	mov    0x78(%rsp),%edx
    40008096:	45 31 c0             	xor    %r8d,%r8d
    40008099:	e9 7b fe ff ff       	jmpq   40007f19 <decfloat+0x7e9>
    4000809e:	48 89 ef             	mov    %rbp,%rdi
    400080a1:	e8 1a 15 00 00       	callq  400095c0 <__shgetc>
    400080a6:	e9 d8 fa ff ff       	jmpq   40007b83 <decfloat+0x453>
    400080ab:	0f 1f 44 00 00       	nopl   0x0(%rax,%rax,1)
    400080b0:	e8 0e a3 ff ff       	callq  400023c3 <__tls_errno_location>
    400080b5:	db 44 24 74          	fildl  0x74(%rsp)
    400080b9:	c7 00 22 00 00 00    	movl   $0x22,(%rax)
    400080bf:	db 2d 6b 91 3f 00    	fldt   0x3f916b(%rip)        # 40401230 <p10s.2635+0x50>
    400080c5:	dc c9                	fmul   %st,%st(1)
    400080c7:	de c9                	fmulp  %st,%st(1)
    400080c9:	e9 8a f9 ff ff       	jmpq   40007a58 <decfloat+0x328>
    400080ce:	3d 00 65 cd 1d       	cmp    $0x1dcd6500,%eax
    400080d3:	0f 84 79 01 00 00    	je     40008252 <decfloat+0xb22>
    400080d9:	f2 0f 2a 44 24 74    	cvtsi2sdl 0x74(%rsp),%xmm0
    400080df:	f2 0f 59 05 31 91 3f 	mulsd  0x3f9131(%rip),%xmm0        # 40401218 <p10s.2635+0x38>
    400080e6:	00 
    400080e7:	f2 0f 11 44 24 20    	movsd  %xmm0,0x20(%rsp)
    400080ed:	dd 44 24 20          	fldl   0x20(%rsp)
    400080f1:	de c2                	faddp  %st,%st(2)
    400080f3:	e9 74 fe ff ff       	jmpq   40007f6c <decfloat+0x83c>
    400080f8:	e8 c6 a2 ff ff       	callq  400023c3 <__tls_errno_location>
    400080fd:	db 44 24 74          	fildl  0x74(%rsp)
    40008101:	c7 00 22 00 00 00    	movl   $0x22,(%rax)
    40008107:	db 2d 33 91 3f 00    	fldt   0x3f9133(%rip)        # 40401240 <p10s.2635+0x60>
    4000810d:	dc c9                	fmul   %st,%st(1)
    4000810f:	de c9                	fmulp  %st,%st(1)
    40008111:	e9 42 f9 ff ff       	jmpq   40007a58 <decfloat+0x328>
    40008116:	83 c3 01             	add    $0x1,%ebx
    40008119:	81 e3 ff 07 00 00    	and    $0x7ff,%ebx
    4000811f:	8d 53 ff             	lea    -0x1(%rbx),%edx
    40008122:	48 63 d2             	movslq %edx,%rdx
    40008125:	c7 84 94 a0 00 00 00 	movl   $0x0,0xa0(%rsp,%rdx,4)
    4000812c:	00 00 00 00 
    40008130:	e9 3e fd ff ff       	jmpq   40007e73 <decfloat+0x743>
    40008135:	db 7c 24 40          	fstpt  0x40(%rsp)
    40008139:	89 4c 24 78          	mov    %ecx,0x78(%rsp)
    4000813d:	44 89 44 24 74       	mov    %r8d,0x74(%rsp)
    40008142:	89 54 24 30          	mov    %edx,0x30(%rsp)
    40008146:	dd 94 24 98 00 00 00 	fstl   0x98(%rsp)
    4000814d:	db 7c 24 20          	fstpt  0x20(%rsp)
    40008151:	f2 0f 10 84 24 98 00 	movsd  0x98(%rsp),%xmm0
    40008158:	00 00 
    4000815a:	e8 54 16 00 00       	callq  400097b3 <fabs>
    4000815f:	db 6c 24 20          	fldt   0x20(%rsp)
    40008163:	8b 54 24 30          	mov    0x30(%rsp),%edx
    40008167:	44 8b 44 24 74       	mov    0x74(%rsp),%r8d
    4000816c:	8b 4c 24 78          	mov    0x78(%rsp),%ecx
    40008170:	66 0f 2e 05 b0 90 3f 	ucomisd 0x3f90b0(%rip),%xmm0        # 40401228 <p10s.2635+0x48>
    40008177:	00 
    40008178:	db 6c 24 40          	fldt   0x40(%rsp)
    4000817c:	72 20                	jb     4000819e <decfloat+0xa6e>
    4000817e:	45 85 c0             	test   %r8d,%r8d
    40008181:	74 0d                	je     40008190 <decfloat+0xa60>
    40008183:	d9 c9                	fxch   %st(1)
    40008185:	45 31 c0             	xor    %r8d,%r8d
    40008188:	39 d1                	cmp    %edx,%ecx
    4000818a:	41 0f 95 c0          	setne  %r8b
    4000818e:	eb 02                	jmp    40008192 <decfloat+0xa62>
    40008190:	d9 c9                	fxch   %st(1)
    40008192:	41 83 c7 01          	add    $0x1,%r15d
    40008196:	d8 0d 9c 86 3f 00    	fmuls  0x3f869c(%rip)        # 40400838 <states+0x1d8>
    4000819c:	d9 c9                	fxch   %st(1)
    4000819e:	41 8d 47 3f          	lea    0x3f(%r15),%eax
    400081a2:	41 83 c4 03          	add    $0x3,%r12d
    400081a6:	41 39 c4             	cmp    %eax,%r12d
    400081a9:	7e 24                	jle    400081cf <decfloat+0xa9f>
    400081ab:	45 85 c0             	test   %r8d,%r8d
    400081ae:	0f 84 5e fe ff ff    	je     40008012 <decfloat+0x8e2>
    400081b4:	d9 ee                	fldz   
    400081b6:	b8 01 00 00 00       	mov    $0x1,%eax
    400081bb:	df e9                	fucomip %st(1),%st
    400081bd:	dd d8                	fstp   %st(0)
    400081bf:	0f 9a c2             	setp   %dl
    400081c2:	0f 44 c2             	cmove  %edx,%eax
    400081c5:	84 c0                	test   %al,%al
    400081c7:	0f 84 47 fe ff ff    	je     40008014 <decfloat+0x8e4>
    400081cd:	eb 02                	jmp    400081d1 <decfloat+0xaa1>
    400081cf:	dd d8                	fstp   %st(0)
    400081d1:	db 7c 24 20          	fstpt  0x20(%rsp)
    400081d5:	e8 e9 a1 ff ff       	callq  400023c3 <__tls_errno_location>
    400081da:	c7 00 22 00 00 00    	movl   $0x22,(%rax)
    400081e0:	db 6c 24 20          	fldt   0x20(%rsp)
    400081e4:	e9 2b fe ff ff       	jmpq   40008014 <decfloat+0x8e4>
    400081e9:	83 c3 01             	add    $0x1,%ebx
    400081ec:	81 e3 ff 07 00 00    	and    $0x7ff,%ebx
    400081f2:	8d 53 ff             	lea    -0x1(%rbx),%edx
    400081f5:	48 63 d2             	movslq %edx,%rdx
    400081f8:	c7 84 94 a0 00 00 00 	movl   $0x0,0xa0(%rsp,%rdx,4)
    400081ff:	00 00 00 00 
    40008203:	e9 c7 fc ff ff       	jmpq   40007ecf <decfloat+0x79f>
    40008208:	83 c3 01             	add    $0x1,%ebx
    4000820b:	81 e3 ff 07 00 00    	and    $0x7ff,%ebx
    40008211:	8d 53 ff             	lea    -0x1(%rbx),%edx
    40008214:	48 63 d2             	movslq %edx,%rdx
    40008217:	c7 84 94 a0 00 00 00 	movl   $0x0,0xa0(%rsp,%rdx,4)
    4000821e:	00 00 00 00 
    40008222:	e9 78 fc ff ff       	jmpq   40007e9f <decfloat+0x76f>
    40008227:	0f 85 b9 fd ff ff    	jne    40007fe6 <decfloat+0x8b6>
    4000822d:	d9 ca                	fxch   %st(2)
    4000822f:	d8 05 1b 90 3f 00    	fadds  0x3f901b(%rip)        # 40401250 <p10s.2635+0x70>
    40008235:	d9 c9                	fxch   %st(1)
    40008237:	e9 ae fd ff ff       	jmpq   40007fea <decfloat+0x8ba>
    4000823c:	83 c5 04             	add    $0x4,%ebp
    4000823f:	81 e5 ff 07 00 00    	and    $0x7ff,%ebp
    40008245:	39 eb                	cmp    %ebp,%ebx
    40008247:	0f 85 05 fd ff ff    	jne    40007f52 <decfloat+0x822>
    4000824d:	e9 1a fd ff ff       	jmpq   40007f6c <decfloat+0x83c>
    40008252:	83 c5 04             	add    $0x4,%ebp
    40008255:	f2 0f 2a 44 24 74    	cvtsi2sdl 0x74(%rsp),%xmm0
    4000825b:	81 e5 ff 07 00 00    	and    $0x7ff,%ebp
    40008261:	39 eb                	cmp    %ebp,%ebx
    40008263:	0f 84 68 01 00 00    	je     400083d1 <decfloat+0xca1>
    40008269:	f2 0f 59 05 a7 8f 3f 	mulsd  0x3f8fa7(%rip),%xmm0        # 40401218 <p10s.2635+0x38>
    40008270:	00 
    40008271:	f2 0f 11 44 24 20    	movsd  %xmm0,0x20(%rsp)
    40008277:	dd 44 24 20          	fldl   0x20(%rsp)
    4000827b:	de c2                	faddp  %st,%st(2)
    4000827d:	e9 ea fc ff ff       	jmpq   40007f6c <decfloat+0x83c>
    40008282:	db 44 24 74          	fildl  0x74(%rsp)
    40008286:	8b 84 24 a0 00 00 00 	mov    0xa0(%rsp),%eax
    4000828d:	48 89 84 24 90 00 00 	mov    %rax,0x90(%rsp)
    40008294:	00 
    40008295:	df ac 24 90 00 00 00 	fildll 0x90(%rsp)
    4000829c:	de c9                	fmulp  %st,%st(1)
    4000829e:	e9 b5 f7 ff ff       	jmpq   40007a58 <decfloat+0x328>
    400082a3:	bf 7f 00 00 00       	mov    $0x7f,%edi
    400082a8:	b8 40 00 00 00       	mov    $0x40,%eax
    400082ad:	29 d7                	sub    %edx,%edi
    400082af:	29 d0                	sub    %edx,%eax
    400082b1:	db 7c 24 20          	fstpt  0x20(%rsp)
    400082b5:	89 8c 24 84 00 00 00 	mov    %ecx,0x84(%rsp)
    400082bc:	89 b4 24 80 00 00 00 	mov    %esi,0x80(%rsp)
    400082c3:	44 89 44 24 7c       	mov    %r8d,0x7c(%rsp)
    400082c8:	89 54 24 60          	mov    %edx,0x60(%rsp)
    400082cc:	89 84 24 88 00 00 00 	mov    %eax,0x88(%rsp)
    400082d3:	f2 0f 10 05 2d 8f 3f 	movsd  0x3f8f2d(%rip),%xmm0        # 40401208 <p10s.2635+0x28>
    400082da:	00 
    400082db:	e8 bf 13 00 00       	callq  4000969f <scalbn>
    400082e0:	db 6c 24 20          	fldt   0x20(%rsp)
    400082e4:	f2 0f 11 44 24 20    	movsd  %xmm0,0x20(%rsp)
    400082ea:	d9 c0                	fld    %st(0)
    400082ec:	db 7c 24 10          	fstpt  0x10(%rsp)
    400082f0:	db 7c 24 50          	fstpt  0x50(%rsp)
    400082f4:	dd 44 24 20          	fldl   0x20(%rsp)
    400082f8:	db 3c 24             	fstpt  (%rsp)
    400082fb:	e8 72 13 00 00       	callq  40009672 <copysignl>
    40008300:	db 7c 24 30          	fstpt  0x30(%rsp)
    40008304:	8b 84 24 88 00 00 00 	mov    0x88(%rsp),%eax
    4000830b:	89 c7                	mov    %eax,%edi
    4000830d:	f2 0f 10 05 f3 8e 3f 	movsd  0x3f8ef3(%rip),%xmm0        # 40401208 <p10s.2635+0x28>
    40008314:	00 
    40008315:	e8 85 13 00 00       	callq  4000969f <scalbn>
    4000831a:	f2 0f 11 44 24 20    	movsd  %xmm0,0x20(%rsp)
    40008320:	dd 44 24 20          	fldl   0x20(%rsp)
    40008324:	db 7c 24 10          	fstpt  0x10(%rsp)
    40008328:	db 6c 24 50          	fldt   0x50(%rsp)
    4000832c:	d9 c0                	fld    %st(0)
    4000832e:	db 3c 24             	fstpt  (%rsp)
    40008331:	db 7c 24 20          	fstpt  0x20(%rsp)
    40008335:	e8 8b 14 00 00       	callq  400097c5 <fmodl>
    4000833a:	d9 c0                	fld    %st(0)
    4000833c:	8b 54 24 60          	mov    0x60(%rsp),%edx
    40008340:	44 8b 44 24 7c       	mov    0x7c(%rsp),%r8d
    40008345:	8b b4 24 80 00 00 00 	mov    0x80(%rsp),%esi
    4000834c:	8b 8c 24 84 00 00 00 	mov    0x84(%rsp),%ecx
    40008353:	db 6c 24 20          	fldt   0x20(%rsp)
    40008357:	de e2                	fsubp  %st,%st(2)
    40008359:	db 6c 24 30          	fldt   0x30(%rsp)
    4000835d:	dc c2                	fadd   %st,%st(2)
    4000835f:	e9 c2 fb ff ff       	jmpq   40007f26 <decfloat+0x7f6>
    40008364:	b8 40 00 00 00       	mov    $0x40,%eax
    40008369:	bf 7f 00 00 00       	mov    $0x7f,%edi
    4000836e:	41 b8 01 00 00 00    	mov    $0x1,%r8d
    40008374:	31 d2                	xor    %edx,%edx
    40008376:	e9 36 ff ff ff       	jmpq   400082b1 <decfloat+0xb81>
    4000837b:	8b 74 24 50          	mov    0x50(%rsp),%esi
    4000837f:	85 f6                	test   %esi,%esi
    40008381:	0f 84 66 f8 ff ff    	je     40007bed <decfloat+0x4bd>
    40008387:	48 83 bd b8 00 00 00 	cmpq   $0x0,0xb8(%rbp)
    4000838e:	00 
    4000838f:	74 59                	je     400083ea <decfloat+0xcba>
    40008391:	48 83 6d 08 01       	subq   $0x1,0x8(%rbp)
    40008396:	31 c0                	xor    %eax,%eax
    40008398:	e9 80 f8 ff ff       	jmpq   40007c1d <decfloat+0x4ed>
    4000839d:	db 44 24 74          	fildl  0x74(%rsp)
    400083a1:	8b 84 24 a0 00 00 00 	mov    0xa0(%rsp),%eax
    400083a8:	48 89 84 24 90 00 00 	mov    %rax,0x90(%rsp)
    400083af:	00 
    400083b0:	b8 08 00 00 00       	mov    $0x8,%eax
    400083b5:	44 29 f8             	sub    %r15d,%eax
    400083b8:	48 98                	cltq   
    400083ba:	df ac 24 90 00 00 00 	fildll 0x90(%rsp)
    400083c1:	de c9                	fmulp  %st,%st(1)
    400083c3:	db 04 85 e0 11 40 40 	fildl  0x404011e0(,%rax,4)
    400083ca:	de f9                	fdivrp %st,%st(1)
    400083cc:	e9 87 f6 ff ff       	jmpq   40007a58 <decfloat+0x328>
    400083d1:	f2 0f 59 05 47 8e 3f 	mulsd  0x3f8e47(%rip),%xmm0        # 40401220 <p10s.2635+0x40>
    400083d8:	00 
    400083d9:	f2 0f 11 44 24 20    	movsd  %xmm0,0x20(%rsp)
    400083df:	dd 44 24 20          	fldl   0x20(%rsp)
    400083e3:	de c2                	faddp  %st,%st(2)
    400083e5:	e9 82 fb ff ff       	jmpq   40007f6c <decfloat+0x83c>
    400083ea:	31 c0                	xor    %eax,%eax
    400083ec:	e9 2c f8 ff ff       	jmpq   40007c1d <decfloat+0x4ed>
    400083f1:	66 2e 0f 1f 84 00 00 	nopw   %cs:0x0(%rax,%rax,1)
    400083f8:	00 00 00 
    400083fb:	0f 1f 44 00 00       	nopl   0x0(%rax,%rax,1)

0000000040008400 <__floatscan>:
    40008400:	41 57                	push   %r15
    40008402:	41 56                	push   %r14
    40008404:	49 89 fe             	mov    %rdi,%r14
    40008407:	41 55                	push   %r13
    40008409:	41 54                	push   %r12
    4000840b:	55                   	push   %rbp
    4000840c:	53                   	push   %rbx
    4000840d:	89 d3                	mov    %edx,%ebx
    4000840f:	48 81 ec c8 00 00 00 	sub    $0xc8,%rsp
    40008416:	83 fe 01             	cmp    $0x1,%esi
    40008419:	0f 84 21 03 00 00    	je     40008740 <__floatscan+0x340>
    4000841f:	83 fe 02             	cmp    $0x2,%esi
    40008422:	0f 84 e8 02 00 00    	je     40008710 <__floatscan+0x310>
    40008428:	85 f6                	test   %esi,%esi
    4000842a:	74 24                	je     40008450 <__floatscan+0x50>
    4000842c:	d9 ee                	fldz   
    4000842e:	66 90                	xchg   %ax,%ax
    40008430:	eb 06                	jmp    40008438 <__floatscan+0x38>
    40008432:	dd d9                	fstp   %st(1)
    40008434:	0f 1f 40 00          	nopl   0x0(%rax)
    40008438:	48 81 c4 c8 00 00 00 	add    $0xc8,%rsp
    4000843f:	5b                   	pop    %rbx
    40008440:	5d                   	pop    %rbp
    40008441:	41 5c                	pop    %r12
    40008443:	41 5d                	pop    %r13
    40008445:	41 5e                	pop    %r14
    40008447:	41 5f                	pop    %r15
    40008449:	c3                   	retq   
    4000844a:	66 0f 1f 44 00 00    	nopw   0x0(%rax,%rax,1)
    40008450:	48 c7 c5 6b ff ff ff 	mov    $0xffffffffffffff6b,%rbp
    40008457:	41 bf 18 00 00 00    	mov    $0x18,%r15d
    4000845d:	48 c7 44 24 30 eb fe 	movq   $0xfffffffffffffeeb,0x30(%rsp)
    40008464:	ff ff 
    40008466:	48 c7 44 24 20 95 00 	movq   $0x95,0x20(%rsp)
    4000846d:	00 00 
    4000846f:	41 89 ed             	mov    %ebp,%r13d
    40008472:	41 bc 18 00 00 00    	mov    $0x18,%r12d
    40008478:	eb 19                	jmp    40008493 <__floatscan+0x93>
    4000847a:	66 0f 1f 44 00 00    	nopw   0x0(%rax,%rax,1)
    40008480:	48 8d 50 01          	lea    0x1(%rax),%rdx
    40008484:	49 89 56 08          	mov    %rdx,0x8(%r14)
    40008488:	0f b6 00             	movzbl (%rax),%eax
    4000848b:	8d 50 f7             	lea    -0x9(%rax),%edx
    4000848e:	83 fa 04             	cmp    $0x4,%edx
    40008491:	77 1d                	ja     400084b0 <__floatscan+0xb0>
    40008493:	49 8b 46 08          	mov    0x8(%r14),%rax
    40008497:	49 3b 86 b8 00 00 00 	cmp    0xb8(%r14),%rax
    4000849e:	72 e0                	jb     40008480 <__floatscan+0x80>
    400084a0:	4c 89 f7             	mov    %r14,%rdi
    400084a3:	e8 18 11 00 00       	callq  400095c0 <__shgetc>
    400084a8:	8d 50 f7             	lea    -0x9(%rax),%edx
    400084ab:	83 fa 04             	cmp    $0x4,%edx
    400084ae:	76 e3                	jbe    40008493 <__floatscan+0x93>
    400084b0:	83 f8 20             	cmp    $0x20,%eax
    400084b3:	74 de                	je     40008493 <__floatscan+0x93>
    400084b5:	83 f8 2d             	cmp    $0x2d,%eax
    400084b8:	89 c6                	mov    %eax,%esi
    400084ba:	0f 85 28 02 00 00    	jne    400086e8 <__floatscan+0x2e8>
    400084c0:	d9 ee                	fldz   
    400084c2:	c7 84 24 98 00 00 00 	movl   $0xffffffff,0x98(%rsp)
    400084c9:	ff ff ff ff 
    400084cd:	d9 e0                	fchs   
    400084cf:	db 7c 24 40          	fstpt  0x40(%rsp)
    400084d3:	d9 05 7f 8d 3f 00    	flds   0x3f8d7f(%rip)        # 40401258 <p10s.2635+0x78>
    400084d9:	49 8b 46 08          	mov    0x8(%r14),%rax
    400084dd:	49 3b 86 b8 00 00 00 	cmp    0xb8(%r14),%rax
    400084e4:	0f 83 ee 02 00 00    	jae    400087d8 <__floatscan+0x3d8>
    400084ea:	48 8d 50 01          	lea    0x1(%rax),%rdx
    400084ee:	49 89 56 08          	mov    %rdx,0x8(%r14)
    400084f2:	0f b6 30             	movzbl (%rax),%esi
    400084f5:	89 f0                	mov    %esi,%eax
    400084f7:	83 c8 20             	or     $0x20,%eax
    400084fa:	83 f8 69             	cmp    $0x69,%eax
    400084fd:	0f 85 0c 04 00 00    	jne    4000890f <__floatscan+0x50f>
    40008503:	49 8b 46 08          	mov    0x8(%r14),%rax
    40008507:	49 39 86 b8 00 00 00 	cmp    %rax,0xb8(%r14)
    4000850e:	0f 86 74 02 00 00    	jbe    40008788 <__floatscan+0x388>
    40008514:	48 8d 50 01          	lea    0x1(%rax),%rdx
    40008518:	49 89 56 08          	mov    %rdx,0x8(%r14)
    4000851c:	0f b6 30             	movzbl (%rax),%esi
    4000851f:	89 f0                	mov    %esi,%eax
    40008521:	b9 01 00 00 00       	mov    $0x1,%ecx
    40008526:	83 c8 20             	or     $0x20,%eax
    40008529:	83 f8 6e             	cmp    $0x6e,%eax
    4000852c:	0f 85 10 01 00 00    	jne    40008642 <__floatscan+0x242>
    40008532:	49 8b 46 08          	mov    0x8(%r14),%rax
    40008536:	49 39 86 b8 00 00 00 	cmp    %rax,0xb8(%r14)
    4000853d:	0f 86 5d 02 00 00    	jbe    400087a0 <__floatscan+0x3a0>
    40008543:	48 8d 50 01          	lea    0x1(%rax),%rdx
    40008547:	49 89 56 08          	mov    %rdx,0x8(%r14)
    4000854b:	0f b6 30             	movzbl (%rax),%esi
    4000854e:	89 f0                	mov    %esi,%eax
    40008550:	b9 02 00 00 00       	mov    $0x2,%ecx
    40008555:	83 c8 20             	or     $0x20,%eax
    40008558:	83 f8 66             	cmp    $0x66,%eax
    4000855b:	0f 85 e1 00 00 00    	jne    40008642 <__floatscan+0x242>
    40008561:	49 8b 46 08          	mov    0x8(%r14),%rax
    40008565:	49 39 86 b8 00 00 00 	cmp    %rax,0xb8(%r14)
    4000856c:	0f 86 4e 02 00 00    	jbe    400087c0 <__floatscan+0x3c0>
    40008572:	48 8d 50 01          	lea    0x1(%rax),%rdx
    40008576:	49 89 56 08          	mov    %rdx,0x8(%r14)
    4000857a:	0f b6 00             	movzbl (%rax),%eax
    4000857d:	83 c8 20             	or     $0x20,%eax
    40008580:	b9 03 00 00 00       	mov    $0x3,%ecx
    40008585:	83 f8 69             	cmp    $0x69,%eax
    40008588:	0f 85 02 01 00 00    	jne    40008690 <__floatscan+0x290>
    4000858e:	49 8b 46 08          	mov    0x8(%r14),%rax
    40008592:	49 39 86 b8 00 00 00 	cmp    %rax,0xb8(%r14)
    40008599:	0f 86 51 02 00 00    	jbe    400087f0 <__floatscan+0x3f0>
    4000859f:	48 8d 50 01          	lea    0x1(%rax),%rdx
    400085a3:	49 89 56 08          	mov    %rdx,0x8(%r14)
    400085a7:	0f b6 30             	movzbl (%rax),%esi
    400085aa:	89 f0                	mov    %esi,%eax
    400085ac:	b9 04 00 00 00       	mov    $0x4,%ecx
    400085b1:	83 c8 20             	or     $0x20,%eax
    400085b4:	83 f8 6e             	cmp    $0x6e,%eax
    400085b7:	0f 85 85 00 00 00    	jne    40008642 <__floatscan+0x242>
    400085bd:	49 8b 46 08          	mov    0x8(%r14),%rax
    400085c1:	49 39 86 b8 00 00 00 	cmp    %rax,0xb8(%r14)
    400085c8:	0f 86 e2 02 00 00    	jbe    400088b0 <__floatscan+0x4b0>
    400085ce:	48 8d 50 01          	lea    0x1(%rax),%rdx
    400085d2:	49 89 56 08          	mov    %rdx,0x8(%r14)
    400085d6:	0f b6 30             	movzbl (%rax),%esi
    400085d9:	89 f0                	mov    %esi,%eax
    400085db:	b9 05 00 00 00       	mov    $0x5,%ecx
    400085e0:	83 c8 20             	or     $0x20,%eax
    400085e3:	83 f8 69             	cmp    $0x69,%eax
    400085e6:	75 5a                	jne    40008642 <__floatscan+0x242>
    400085e8:	49 8b 46 08          	mov    0x8(%r14),%rax
    400085ec:	49 39 86 b8 00 00 00 	cmp    %rax,0xb8(%r14)
    400085f3:	0f 86 74 01 00 00    	jbe    4000876d <__floatscan+0x36d>
    400085f9:	48 8d 50 01          	lea    0x1(%rax),%rdx
    400085fd:	49 89 56 08          	mov    %rdx,0x8(%r14)
    40008601:	0f b6 30             	movzbl (%rax),%esi
    40008604:	89 f0                	mov    %esi,%eax
    40008606:	b9 06 00 00 00       	mov    $0x6,%ecx
    4000860b:	83 c8 20             	or     $0x20,%eax
    4000860e:	83 f8 74             	cmp    $0x74,%eax
    40008611:	75 2f                	jne    40008642 <__floatscan+0x242>
    40008613:	49 8b 46 08          	mov    0x8(%r14),%rax
    40008617:	49 3b 86 b8 00 00 00 	cmp    0xb8(%r14),%rax
    4000861e:	0f 83 a3 02 00 00    	jae    400088c7 <__floatscan+0x4c7>
    40008624:	48 8d 50 01          	lea    0x1(%rax),%rdx
    40008628:	49 89 56 08          	mov    %rdx,0x8(%r14)
    4000862c:	0f b6 30             	movzbl (%rax),%esi
    4000862f:	89 f0                	mov    %esi,%eax
    40008631:	83 c8 20             	or     $0x20,%eax
    40008634:	83 f8 79             	cmp    $0x79,%eax
    40008637:	0f 84 fb fd ff ff    	je     40008438 <__floatscan+0x38>
    4000863d:	b9 07 00 00 00       	mov    $0x7,%ecx
    40008642:	85 db                	test   %ebx,%ebx
    40008644:	0f 95 c2             	setne  %dl
    40008647:	48 83 f9 03          	cmp    $0x3,%rcx
    4000864b:	76 0b                	jbe    40008658 <__floatscan+0x258>
    4000864d:	84 d2                	test   %dl,%dl
    4000864f:	75 3f                	jne    40008690 <__floatscan+0x290>
    40008651:	dd d8                	fstp   %st(0)
    40008653:	eb 05                	jmp    4000865a <__floatscan+0x25a>
    40008655:	0f 1f 00             	nopl   (%rax)
    40008658:	dd d8                	fstp   %st(0)
    4000865a:	48 85 c9             	test   %rcx,%rcx
    4000865d:	0f 84 ad 01 00 00    	je     40008810 <__floatscan+0x410>
    40008663:	49 83 be b8 00 00 00 	cmpq   $0x0,0xb8(%r14)
    4000866a:	00 
    4000866b:	74 05                	je     40008672 <__floatscan+0x272>
    4000866d:	49 83 6e 08 01       	subq   $0x1,0x8(%r14)
    40008672:	e8 4c 9d ff ff       	callq  400023c3 <__tls_errno_location>
    40008677:	31 f6                	xor    %esi,%esi
    40008679:	c7 00 16 00 00 00    	movl   $0x16,(%rax)
    4000867f:	4c 89 f7             	mov    %r14,%rdi
    40008682:	e8 f9 0e 00 00       	callq  40009580 <__shlim>
    40008687:	d9 ee                	fldz   
    40008689:	e9 aa fd ff ff       	jmpq   40008438 <__floatscan+0x38>
    4000868e:	66 90                	xchg   %ax,%ax
    40008690:	49 8b 86 b8 00 00 00 	mov    0xb8(%r14),%rax
    40008697:	48 85 c0             	test   %rax,%rax
    4000869a:	74 05                	je     400086a1 <__floatscan+0x2a1>
    4000869c:	49 83 6e 08 01       	subq   $0x1,0x8(%r14)
    400086a1:	85 db                	test   %ebx,%ebx
    400086a3:	0f 84 8f fd ff ff    	je     40008438 <__floatscan+0x38>
    400086a9:	48 83 f9 03          	cmp    $0x3,%rcx
    400086ad:	0f 86 85 fd ff ff    	jbe    40008438 <__floatscan+0x38>
    400086b3:	48 85 c0             	test   %rax,%rax
    400086b6:	0f 84 7c fd ff ff    	je     40008438 <__floatscan+0x38>
    400086bc:	49 8b 56 08          	mov    0x8(%r14),%rdx
    400086c0:	48 8d 42 ff          	lea    -0x1(%rdx),%rax
    400086c4:	48 83 c2 02          	add    $0x2,%rdx
    400086c8:	48 29 ca             	sub    %rcx,%rdx
    400086cb:	0f 1f 44 00 00       	nopl   0x0(%rax,%rax,1)
    400086d0:	48 89 c1             	mov    %rax,%rcx
    400086d3:	48 83 e8 01          	sub    $0x1,%rax
    400086d7:	48 39 d0             	cmp    %rdx,%rax
    400086da:	75 f4                	jne    400086d0 <__floatscan+0x2d0>
    400086dc:	49 89 4e 08          	mov    %rcx,0x8(%r14)
    400086e0:	e9 53 fd ff ff       	jmpq   40008438 <__floatscan+0x38>
    400086e5:	0f 1f 00             	nopl   (%rax)
    400086e8:	83 f8 2b             	cmp    $0x2b,%eax
    400086eb:	0f 84 ed 01 00 00    	je     400088de <__floatscan+0x4de>
    400086f1:	d9 ee                	fldz   
    400086f3:	c7 84 24 98 00 00 00 	movl   $0x1,0x98(%rsp)
    400086fa:	01 00 00 00 
    400086fe:	db 7c 24 40          	fstpt  0x40(%rsp)
    40008702:	d9 05 54 8b 3f 00    	flds   0x3f8b54(%rip)        # 4040125c <p10s.2635+0x7c>
    40008708:	e9 e8 fd ff ff       	jmpq   400084f5 <__floatscan+0xf5>
    4000870d:	0f 1f 00             	nopl   (%rax)
    40008710:	48 c7 c5 c3 bf ff ff 	mov    $0xffffffffffffbfc3,%rbp
    40008717:	41 bf 40 00 00 00    	mov    $0x40,%r15d
    4000871d:	48 c7 44 24 30 43 bf 	movq   $0xffffffffffffbf43,0x30(%rsp)
    40008724:	ff ff 
    40008726:	48 c7 44 24 20 3d 40 	movq   $0x403d,0x20(%rsp)
    4000872d:	00 00 
    4000872f:	41 89 ed             	mov    %ebp,%r13d
    40008732:	41 bc 40 00 00 00    	mov    $0x40,%r12d
    40008738:	e9 56 fd ff ff       	jmpq   40008493 <__floatscan+0x93>
    4000873d:	0f 1f 00             	nopl   (%rax)
    40008740:	48 c7 c5 ce fb ff ff 	mov    $0xfffffffffffffbce,%rbp
    40008747:	41 bf 35 00 00 00    	mov    $0x35,%r15d
    4000874d:	48 c7 44 24 30 4e fb 	movq   $0xfffffffffffffb4e,0x30(%rsp)
    40008754:	ff ff 
    40008756:	48 c7 44 24 20 32 04 	movq   $0x432,0x20(%rsp)
    4000875d:	00 00 
    4000875f:	41 89 ed             	mov    %ebp,%r13d
    40008762:	41 bc 35 00 00 00    	mov    $0x35,%r12d
    40008768:	e9 26 fd ff ff       	jmpq   40008493 <__floatscan+0x93>
    4000876d:	db 7c 24 50          	fstpt  0x50(%rsp)
    40008771:	4c 89 f7             	mov    %r14,%rdi
    40008774:	e8 47 0e 00 00       	callq  400095c0 <__shgetc>
    40008779:	89 c6                	mov    %eax,%esi
    4000877b:	db 6c 24 50          	fldt   0x50(%rsp)
    4000877f:	e9 80 fe ff ff       	jmpq   40008604 <__floatscan+0x204>
    40008784:	0f 1f 40 00          	nopl   0x0(%rax)
    40008788:	db 7c 24 50          	fstpt  0x50(%rsp)
    4000878c:	4c 89 f7             	mov    %r14,%rdi
    4000878f:	e8 2c 0e 00 00       	callq  400095c0 <__shgetc>
    40008794:	89 c6                	mov    %eax,%esi
    40008796:	db 6c 24 50          	fldt   0x50(%rsp)
    4000879a:	e9 80 fd ff ff       	jmpq   4000851f <__floatscan+0x11f>
    4000879f:	90                   	nop
    400087a0:	db 7c 24 50          	fstpt  0x50(%rsp)
    400087a4:	4c 89 f7             	mov    %r14,%rdi
    400087a7:	e8 14 0e 00 00       	callq  400095c0 <__shgetc>
    400087ac:	89 c6                	mov    %eax,%esi
    400087ae:	db 6c 24 50          	fldt   0x50(%rsp)
    400087b2:	e9 97 fd ff ff       	jmpq   4000854e <__floatscan+0x14e>
    400087b7:	66 0f 1f 84 00 00 00 	nopw   0x0(%rax,%rax,1)
    400087be:	00 00 
    400087c0:	db 7c 24 50          	fstpt  0x50(%rsp)
    400087c4:	4c 89 f7             	mov    %r14,%rdi
    400087c7:	e8 f4 0d 00 00       	callq  400095c0 <__shgetc>
    400087cc:	db 6c 24 50          	fldt   0x50(%rsp)
    400087d0:	e9 a8 fd ff ff       	jmpq   4000857d <__floatscan+0x17d>
    400087d5:	0f 1f 00             	nopl   (%rax)
    400087d8:	db 7c 24 50          	fstpt  0x50(%rsp)
    400087dc:	4c 89 f7             	mov    %r14,%rdi
    400087df:	e8 dc 0d 00 00       	callq  400095c0 <__shgetc>
    400087e4:	89 c6                	mov    %eax,%esi
    400087e6:	db 6c 24 50          	fldt   0x50(%rsp)
    400087ea:	e9 06 fd ff ff       	jmpq   400084f5 <__floatscan+0xf5>
    400087ef:	90                   	nop
    400087f0:	db 7c 24 50          	fstpt  0x50(%rsp)
    400087f4:	4c 89 f7             	mov    %r14,%rdi
    400087f7:	e8 c4 0d 00 00       	callq  400095c0 <__shgetc>
    400087fc:	89 c6                	mov    %eax,%esi
    400087fe:	db 6c 24 50          	fldt   0x50(%rsp)
    40008802:	e9 a3 fd ff ff       	jmpq   400085aa <__floatscan+0x1aa>
    40008807:	66 0f 1f 84 00 00 00 	nopw   0x0(%rax,%rax,1)
    4000880e:	00 00 
    40008810:	89 f0                	mov    %esi,%eax
    40008812:	83 c8 20             	or     $0x20,%eax
    40008815:	83 f8 6e             	cmp    $0x6e,%eax
    40008818:	0f 85 bd 01 00 00    	jne    400089db <__floatscan+0x5db>
    4000881e:	49 8b 46 08          	mov    0x8(%r14),%rax
    40008822:	49 39 86 b8 00 00 00 	cmp    %rax,0xb8(%r14)
    40008829:	0f 86 d1 00 00 00    	jbe    40008900 <__floatscan+0x500>
    4000882f:	48 8d 50 01          	lea    0x1(%rax),%rdx
    40008833:	49 89 56 08          	mov    %rdx,0x8(%r14)
    40008837:	0f b6 30             	movzbl (%rax),%esi
    4000883a:	83 ce 20             	or     $0x20,%esi
    4000883d:	83 fe 61             	cmp    $0x61,%esi
    40008840:	0f 85 1d fe ff ff    	jne    40008663 <__floatscan+0x263>
    40008846:	49 8b 46 08          	mov    0x8(%r14),%rax
    4000884a:	49 39 86 b8 00 00 00 	cmp    %rax,0xb8(%r14)
    40008851:	0f 86 75 01 00 00    	jbe    400089cc <__floatscan+0x5cc>
    40008857:	48 8d 50 01          	lea    0x1(%rax),%rdx
    4000885b:	49 89 56 08          	mov    %rdx,0x8(%r14)
    4000885f:	0f b6 30             	movzbl (%rax),%esi
    40008862:	83 ce 20             	or     $0x20,%esi
    40008865:	83 fe 6e             	cmp    $0x6e,%esi
    40008868:	0f 85 f5 fd ff ff    	jne    40008663 <__floatscan+0x263>
    4000886e:	49 8b 56 08          	mov    0x8(%r14),%rdx
    40008872:	49 8b 86 b8 00 00 00 	mov    0xb8(%r14),%rax
    40008879:	48 39 c2             	cmp    %rax,%rdx
    4000887c:	0f 83 30 01 00 00    	jae    400089b2 <__floatscan+0x5b2>
    40008882:	48 8d 4a 01          	lea    0x1(%rdx),%rcx
    40008886:	49 89 4e 08          	mov    %rcx,0x8(%r14)
    4000888a:	80 3a 28             	cmpb   $0x28,(%rdx)
    4000888d:	0f 95 c2             	setne  %dl
    40008890:	84 d2                	test   %dl,%dl
    40008892:	0f 84 7e 00 00 00    	je     40008916 <__floatscan+0x516>
    40008898:	48 85 c0             	test   %rax,%rax
    4000889b:	74 05                	je     400088a2 <__floatscan+0x4a2>
    4000889d:	49 83 6e 08 01       	subq   $0x1,0x8(%r14)
    400088a2:	d9 05 ac 89 3f 00    	flds   0x3f89ac(%rip)        # 40401254 <p10s.2635+0x74>
    400088a8:	e9 8b fb ff ff       	jmpq   40008438 <__floatscan+0x38>
    400088ad:	0f 1f 00             	nopl   (%rax)
    400088b0:	db 7c 24 50          	fstpt  0x50(%rsp)
    400088b4:	4c 89 f7             	mov    %r14,%rdi
    400088b7:	e8 04 0d 00 00       	callq  400095c0 <__shgetc>
    400088bc:	89 c6                	mov    %eax,%esi
    400088be:	db 6c 24 50          	fldt   0x50(%rsp)
    400088c2:	e9 12 fd ff ff       	jmpq   400085d9 <__floatscan+0x1d9>
    400088c7:	db 7c 24 50          	fstpt  0x50(%rsp)
    400088cb:	4c 89 f7             	mov    %r14,%rdi
    400088ce:	e8 ed 0c 00 00       	callq  400095c0 <__shgetc>
    400088d3:	89 c6                	mov    %eax,%esi
    400088d5:	db 6c 24 50          	fldt   0x50(%rsp)
    400088d9:	e9 51 fd ff ff       	jmpq   4000862f <__floatscan+0x22f>
    400088de:	d9 ee                	fldz   
    400088e0:	c7 84 24 98 00 00 00 	movl   $0x1,0x98(%rsp)
    400088e7:	01 00 00 00 
    400088eb:	db 7c 24 40          	fstpt  0x40(%rsp)
    400088ef:	d9 05 67 89 3f 00    	flds   0x3f8967(%rip)        # 4040125c <p10s.2635+0x7c>
    400088f5:	e9 df fb ff ff       	jmpq   400084d9 <__floatscan+0xd9>
    400088fa:	66 0f 1f 44 00 00    	nopw   0x0(%rax,%rax,1)
    40008900:	4c 89 f7             	mov    %r14,%rdi
    40008903:	e8 b8 0c 00 00       	callq  400095c0 <__shgetc>
    40008908:	89 c6                	mov    %eax,%esi
    4000890a:	e9 2b ff ff ff       	jmpq   4000883a <__floatscan+0x43a>
    4000890f:	31 c9                	xor    %ecx,%ecx
    40008911:	e9 2c fd ff ff       	jmpq   40008642 <__floatscan+0x242>
    40008916:	bd 01 00 00 00       	mov    $0x1,%ebp
    4000891b:	0f 1f 44 00 00       	nopl   0x0(%rax,%rax,1)
    40008920:	49 8b 56 08          	mov    0x8(%r14),%rdx
    40008924:	48 39 c2             	cmp    %rax,%rdx
    40008927:	73 7f                	jae    400089a8 <__floatscan+0x5a8>
    40008929:	48 8d 42 01          	lea    0x1(%rdx),%rax
    4000892d:	49 89 46 08          	mov    %rax,0x8(%r14)
    40008931:	0f b6 02             	movzbl (%rdx),%eax
    40008934:	8d 50 d0             	lea    -0x30(%rax),%edx
    40008937:	83 fa 09             	cmp    $0x9,%edx
    4000893a:	76 5c                	jbe    40008998 <__floatscan+0x598>
    4000893c:	89 c2                	mov    %eax,%edx
    4000893e:	83 e2 df             	and    $0xffffffdf,%edx
    40008941:	83 ea 41             	sub    $0x41,%edx
    40008944:	83 fa 19             	cmp    $0x19,%edx
    40008947:	76 4f                	jbe    40008998 <__floatscan+0x598>
    40008949:	83 f8 5f             	cmp    $0x5f,%eax
    4000894c:	74 4a                	je     40008998 <__floatscan+0x598>
    4000894e:	83 f8 29             	cmp    $0x29,%eax
    40008951:	0f 84 4b ff ff ff    	je     400088a2 <__floatscan+0x4a2>
    40008957:	49 83 be b8 00 00 00 	cmpq   $0x0,0xb8(%r14)
    4000895e:	00 
    4000895f:	0f 84 29 05 00 00    	je     40008e8e <__floatscan+0xa8e>
    40008965:	49 83 6e 08 01       	subq   $0x1,0x8(%r14)
    4000896a:	85 db                	test   %ebx,%ebx
    4000896c:	0f 84 00 fd ff ff    	je     40008672 <__floatscan+0x272>
    40008972:	48 83 ed 01          	sub    $0x1,%rbp
    40008976:	48 83 fd ff          	cmp    $0xffffffffffffffff,%rbp
    4000897a:	0f 84 22 ff ff ff    	je     400088a2 <__floatscan+0x4a2>
    40008980:	48 83 ed 01          	sub    $0x1,%rbp
    40008984:	49 83 6e 08 01       	subq   $0x1,0x8(%r14)
    40008989:	48 83 fd ff          	cmp    $0xffffffffffffffff,%rbp
    4000898d:	75 f1                	jne    40008980 <__floatscan+0x580>
    4000898f:	e9 0e ff ff ff       	jmpq   400088a2 <__floatscan+0x4a2>
    40008994:	0f 1f 40 00          	nopl   0x0(%rax)
    40008998:	48 83 c5 01          	add    $0x1,%rbp
    4000899c:	49 8b 86 b8 00 00 00 	mov    0xb8(%r14),%rax
    400089a3:	e9 78 ff ff ff       	jmpq   40008920 <__floatscan+0x520>
    400089a8:	4c 89 f7             	mov    %r14,%rdi
    400089ab:	e8 10 0c 00 00       	callq  400095c0 <__shgetc>
    400089b0:	eb 82                	jmp    40008934 <__floatscan+0x534>
    400089b2:	4c 89 f7             	mov    %r14,%rdi
    400089b5:	e8 06 0c 00 00       	callq  400095c0 <__shgetc>
    400089ba:	83 f8 28             	cmp    $0x28,%eax
    400089bd:	49 8b 86 b8 00 00 00 	mov    0xb8(%r14),%rax
    400089c4:	0f 95 c2             	setne  %dl
    400089c7:	e9 c4 fe ff ff       	jmpq   40008890 <__floatscan+0x490>
    400089cc:	4c 89 f7             	mov    %r14,%rdi
    400089cf:	e8 ec 0b 00 00       	callq  400095c0 <__shgetc>
    400089d4:	89 c6                	mov    %eax,%esi
    400089d6:	e9 87 fe ff ff       	jmpq   40008862 <__floatscan+0x462>
    400089db:	83 fe 30             	cmp    $0x30,%esi
    400089de:	75 2d                	jne    40008a0d <__floatscan+0x60d>
    400089e0:	49 8b 46 08          	mov    0x8(%r14),%rax
    400089e4:	49 8b 8e b8 00 00 00 	mov    0xb8(%r14),%rcx
    400089eb:	48 39 c8             	cmp    %rcx,%rax
    400089ee:	73 47                	jae    40008a37 <__floatscan+0x637>
    400089f0:	48 8d 78 01          	lea    0x1(%rax),%rdi
    400089f4:	49 89 7e 08          	mov    %rdi,0x8(%r14)
    400089f8:	0f b6 00             	movzbl (%rax),%eax
    400089fb:	83 c8 20             	or     $0x20,%eax
    400089fe:	83 f8 78             	cmp    $0x78,%eax
    40008a01:	74 55                	je     40008a58 <__floatscan+0x658>
    40008a03:	48 85 c9             	test   %rcx,%rcx
    40008a06:	74 05                	je     40008a0d <__floatscan+0x60d>
    40008a08:	49 83 6e 08 01       	subq   $0x1,0x8(%r14)
    40008a0d:	44 8b 84 24 98 00 00 	mov    0x98(%rsp),%r8d
    40008a14:	00 
    40008a15:	48 81 c4 c8 00 00 00 	add    $0xc8,%rsp
    40008a1c:	41 89 d9             	mov    %ebx,%r9d
    40008a1f:	5b                   	pop    %rbx
    40008a20:	5d                   	pop    %rbp
    40008a21:	44 89 e2             	mov    %r12d,%edx
    40008a24:	44 89 e9             	mov    %r13d,%ecx
    40008a27:	4c 89 f7             	mov    %r14,%rdi
    40008a2a:	41 5c                	pop    %r12
    40008a2c:	41 5d                	pop    %r13
    40008a2e:	41 5e                	pop    %r14
    40008a30:	41 5f                	pop    %r15
    40008a32:	e9 f9 ec ff ff       	jmpq   40007730 <decfloat>
    40008a37:	4c 89 f7             	mov    %r14,%rdi
    40008a3a:	89 54 24 60          	mov    %edx,0x60(%rsp)
    40008a3e:	89 74 24 50          	mov    %esi,0x50(%rsp)
    40008a42:	e8 79 0b 00 00       	callq  400095c0 <__shgetc>
    40008a47:	49 8b 8e b8 00 00 00 	mov    0xb8(%r14),%rcx
    40008a4e:	8b 54 24 60          	mov    0x60(%rsp),%edx
    40008a52:	8b 74 24 50          	mov    0x50(%rsp),%esi
    40008a56:	eb a3                	jmp    400089fb <__floatscan+0x5fb>
    40008a58:	49 8b 46 08          	mov    0x8(%r14),%rax
    40008a5c:	48 39 c8             	cmp    %rcx,%rax
    40008a5f:	0f 83 14 04 00 00    	jae    40008e79 <__floatscan+0xa79>
    40008a65:	48 8d 48 01          	lea    0x1(%rax),%rcx
    40008a69:	49 89 4e 08          	mov    %rcx,0x8(%r14)
    40008a6d:	0f b6 00             	movzbl (%rax),%eax
    40008a70:	45 31 c9             	xor    %r9d,%r9d
    40008a73:	83 f8 30             	cmp    $0x30,%eax
    40008a76:	74 18                	je     40008a90 <__floatscan+0x690>
    40008a78:	eb 3b                	jmp    40008ab5 <__floatscan+0x6b5>
    40008a7a:	66 0f 1f 44 00 00    	nopw   0x0(%rax,%rax,1)
    40008a80:	48 8d 48 01          	lea    0x1(%rax),%rcx
    40008a84:	49 89 4e 08          	mov    %rcx,0x8(%r14)
    40008a88:	0f b6 00             	movzbl (%rax),%eax
    40008a8b:	83 f8 30             	cmp    $0x30,%eax
    40008a8e:	75 1f                	jne    40008aaf <__floatscan+0x6af>
    40008a90:	49 8b 46 08          	mov    0x8(%r14),%rax
    40008a94:	49 3b 86 b8 00 00 00 	cmp    0xb8(%r14),%rax
    40008a9b:	72 e3                	jb     40008a80 <__floatscan+0x680>
    40008a9d:	4c 89 f7             	mov    %r14,%rdi
    40008aa0:	89 54 24 50          	mov    %edx,0x50(%rsp)
    40008aa4:	e8 17 0b 00 00       	callq  400095c0 <__shgetc>
    40008aa9:	8b 54 24 50          	mov    0x50(%rsp),%edx
    40008aad:	eb dc                	jmp    40008a8b <__floatscan+0x68b>
    40008aaf:	41 b9 01 00 00 00    	mov    $0x1,%r9d
    40008ab5:	83 f8 2e             	cmp    $0x2e,%eax
    40008ab8:	0f 84 36 03 00 00    	je     40008df4 <__floatscan+0x9f4>
    40008abe:	48 c7 44 24 50 00 00 	movq   $0x0,0x50(%rsp)
    40008ac5:	00 00 
    40008ac7:	45 31 d2             	xor    %r10d,%r10d
    40008aca:	d9 e8                	fld1   
    40008acc:	31 c9                	xor    %ecx,%ecx
    40008ace:	c7 84 24 b0 00 00 00 	movl   $0x0,0xb0(%rsp)
    40008ad5:	00 00 00 00 
    40008ad9:	45 31 c0             	xor    %r8d,%r8d
    40008adc:	d9 ee                	fldz   
    40008ade:	8d 70 d0             	lea    -0x30(%rax),%esi
    40008ae1:	83 fe 09             	cmp    $0x9,%esi
    40008ae4:	76 49                	jbe    40008b2f <__floatscan+0x72f>
    40008ae6:	89 c7                	mov    %eax,%edi
    40008ae8:	83 cf 20             	or     $0x20,%edi
    40008aeb:	44 8d 5f 9f          	lea    -0x61(%rdi),%r11d
    40008aef:	41 83 fb 05          	cmp    $0x5,%r11d
    40008af3:	76 3a                	jbe    40008b2f <__floatscan+0x72f>
    40008af5:	83 f8 2e             	cmp    $0x2e,%eax
    40008af8:	0f 85 20 01 00 00    	jne    40008c1e <__floatscan+0x81e>
    40008afe:	45 85 d2             	test   %r10d,%r10d
    40008b01:	0f 85 94 03 00 00    	jne    40008e9b <__floatscan+0xa9b>
    40008b07:	48 89 4c 24 50       	mov    %rcx,0x50(%rsp)
    40008b0c:	41 b2 01             	mov    $0x1,%r10b
    40008b0f:	49 8b 46 08          	mov    0x8(%r14),%rax
    40008b13:	49 3b 86 b8 00 00 00 	cmp    0xb8(%r14),%rax
    40008b1a:	73 64                	jae    40008b80 <__floatscan+0x780>
    40008b1c:	48 8d 70 01          	lea    0x1(%rax),%rsi
    40008b20:	49 89 76 08          	mov    %rsi,0x8(%r14)
    40008b24:	0f b6 00             	movzbl (%rax),%eax
    40008b27:	8d 70 d0             	lea    -0x30(%rax),%esi
    40008b2a:	83 fe 09             	cmp    $0x9,%esi
    40008b2d:	77 b7                	ja     40008ae6 <__floatscan+0x6e6>
    40008b2f:	83 f8 2e             	cmp    $0x2e,%eax
    40008b32:	74 ca                	je     40008afe <__floatscan+0x6fe>
    40008b34:	83 f8 39             	cmp    $0x39,%eax
    40008b37:	7e 06                	jle    40008b3f <__floatscan+0x73f>
    40008b39:	83 c8 20             	or     $0x20,%eax
    40008b3c:	8d 70 a9             	lea    -0x57(%rax),%esi
    40008b3f:	48 83 f9 07          	cmp    $0x7,%rcx
    40008b43:	7f 13                	jg     40008b58 <__floatscan+0x758>
    40008b45:	41 c1 e0 04          	shl    $0x4,%r8d
    40008b49:	41 01 f0             	add    %esi,%r8d
    40008b4c:	48 83 c1 01          	add    $0x1,%rcx
    40008b50:	41 b9 01 00 00 00    	mov    $0x1,%r9d
    40008b56:	eb b7                	jmp    40008b0f <__floatscan+0x70f>
    40008b58:	48 83 f9 10          	cmp    $0x10,%rcx
    40008b5c:	0f 8f 8b 00 00 00    	jg     40008bed <__floatscan+0x7ed>
    40008b62:	d9 c9                	fxch   %st(1)
    40008b64:	d8 0d f6 86 3f 00    	fmuls  0x3f86f6(%rip)        # 40401260 <p10s.2635+0x80>
    40008b6a:	89 b4 24 b4 00 00 00 	mov    %esi,0xb4(%rsp)
    40008b71:	db 84 24 b4 00 00 00 	fildl  0xb4(%rsp)
    40008b78:	d8 c9                	fmul   %st(1),%st
    40008b7a:	de c2                	faddp  %st,%st(2)
    40008b7c:	d9 c9                	fxch   %st(1)
    40008b7e:	eb cc                	jmp    40008b4c <__floatscan+0x74c>
    40008b80:	db 7c 24 70          	fstpt  0x70(%rsp)
    40008b84:	4c 89 f7             	mov    %r14,%rdi
    40008b87:	44 89 8c 24 ac 00 00 	mov    %r9d,0xac(%rsp)
    40008b8e:	00 
    40008b8f:	44 89 84 24 a8 00 00 	mov    %r8d,0xa8(%rsp)
    40008b96:	00 
    40008b97:	48 89 8c 24 a0 00 00 	mov    %rcx,0xa0(%rsp)
    40008b9e:	00 
    40008b9f:	44 89 94 24 9c 00 00 	mov    %r10d,0x9c(%rsp)
    40008ba6:	00 
    40008ba7:	89 94 24 80 00 00 00 	mov    %edx,0x80(%rsp)
    40008bae:	db 7c 24 60          	fstpt  0x60(%rsp)
    40008bb2:	e8 09 0a 00 00       	callq  400095c0 <__shgetc>
    40008bb7:	44 8b 8c 24 ac 00 00 	mov    0xac(%rsp),%r9d
    40008bbe:	00 
    40008bbf:	44 8b 84 24 a8 00 00 	mov    0xa8(%rsp),%r8d
    40008bc6:	00 
    40008bc7:	48 8b 8c 24 a0 00 00 	mov    0xa0(%rsp),%rcx
    40008bce:	00 
    40008bcf:	44 8b 94 24 9c 00 00 	mov    0x9c(%rsp),%r10d
    40008bd6:	00 
    40008bd7:	8b 94 24 80 00 00 00 	mov    0x80(%rsp),%edx
    40008bde:	db 6c 24 70          	fldt   0x70(%rsp)
    40008be2:	db 6c 24 60          	fldt   0x60(%rsp)
    40008be6:	d9 c9                	fxch   %st(1)
    40008be8:	e9 f1 fe ff ff       	jmpq   40008ade <__floatscan+0x6de>
    40008bed:	85 f6                	test   %esi,%esi
    40008bef:	0f 84 57 ff ff ff    	je     40008b4c <__floatscan+0x74c>
    40008bf5:	8b 84 24 b0 00 00 00 	mov    0xb0(%rsp),%eax
    40008bfc:	85 c0                	test   %eax,%eax
    40008bfe:	0f 85 48 ff ff ff    	jne    40008b4c <__floatscan+0x74c>
    40008c04:	d9 05 2e 7c 3f 00    	flds   0x3f7c2e(%rip)        # 40400838 <states+0x1d8>
    40008c0a:	c7 84 24 b0 00 00 00 	movl   $0x1,0xb0(%rsp)
    40008c11:	01 00 00 00 
    40008c15:	d8 ca                	fmul   %st(2),%st
    40008c17:	de c1                	faddp  %st,%st(1)
    40008c19:	e9 2e ff ff ff       	jmpq   40008b4c <__floatscan+0x74c>
    40008c1e:	dd d9                	fstp   %st(1)
    40008c20:	45 85 c9             	test   %r9d,%r9d
    40008c23:	75 3e                	jne    40008c63 <__floatscan+0x863>
    40008c25:	dd d8                	fstp   %st(0)
    40008c27:	49 83 be b8 00 00 00 	cmpq   $0x0,0xb8(%r14)
    40008c2e:	00 
    40008c2f:	0f 84 7e 02 00 00    	je     40008eb3 <__floatscan+0xab3>
    40008c35:	49 8b 46 08          	mov    0x8(%r14),%rax
    40008c39:	84 d2                	test   %dl,%dl
    40008c3b:	48 8d 48 ff          	lea    -0x1(%rax),%rcx
    40008c3f:	0f 84 21 02 00 00    	je     40008e66 <__floatscan+0xa66>
    40008c45:	48 8d 50 fe          	lea    -0x2(%rax),%rdx
    40008c49:	45 85 d2             	test   %r10d,%r10d
    40008c4c:	49 89 56 08          	mov    %rdx,0x8(%r14)
    40008c50:	74 08                	je     40008c5a <__floatscan+0x85a>
    40008c52:	48 83 e8 03          	sub    $0x3,%rax
    40008c56:	49 89 46 08          	mov    %rax,0x8(%r14)
    40008c5a:	db 6c 24 40          	fldt   0x40(%rsp)
    40008c5e:	e9 d5 f7 ff ff       	jmpq   40008438 <__floatscan+0x38>
    40008c63:	48 8b 74 24 50       	mov    0x50(%rsp),%rsi
    40008c68:	45 85 d2             	test   %r10d,%r10d
    40008c6b:	44 89 c0             	mov    %r8d,%eax
    40008c6e:	48 0f 44 f1          	cmove  %rcx,%rsi
    40008c72:	48 89 74 24 50       	mov    %rsi,0x50(%rsp)
    40008c77:	48 83 f9 07          	cmp    $0x7,%rcx
    40008c7b:	7f 5c                	jg     40008cd9 <__floatscan+0x8d9>
    40008c7d:	48 8d 71 01          	lea    0x1(%rcx),%rsi
    40008c81:	41 c1 e0 04          	shl    $0x4,%r8d
    40008c85:	48 83 fe 07          	cmp    $0x7,%rsi
    40008c89:	7f 4e                	jg     40008cd9 <__floatscan+0x8d9>
    40008c8b:	41 89 c0             	mov    %eax,%r8d
    40008c8e:	41 c1 e0 08          	shl    $0x8,%r8d
    40008c92:	48 83 f9 06          	cmp    $0x6,%rcx
    40008c96:	74 41                	je     40008cd9 <__floatscan+0x8d9>
    40008c98:	41 89 c0             	mov    %eax,%r8d
    40008c9b:	41 c1 e0 0c          	shl    $0xc,%r8d
    40008c9f:	48 83 f9 05          	cmp    $0x5,%rcx
    40008ca3:	74 34                	je     40008cd9 <__floatscan+0x8d9>
    40008ca5:	41 89 c0             	mov    %eax,%r8d
    40008ca8:	41 c1 e0 10          	shl    $0x10,%r8d
    40008cac:	48 83 f9 04          	cmp    $0x4,%rcx
    40008cb0:	74 27                	je     40008cd9 <__floatscan+0x8d9>
    40008cb2:	41 89 c0             	mov    %eax,%r8d
    40008cb5:	41 c1 e0 14          	shl    $0x14,%r8d
    40008cb9:	48 83 f9 03          	cmp    $0x3,%rcx
    40008cbd:	74 1a                	je     40008cd9 <__floatscan+0x8d9>
    40008cbf:	41 89 c0             	mov    %eax,%r8d
    40008cc2:	41 c1 e0 18          	shl    $0x18,%r8d
    40008cc6:	48 83 f9 02          	cmp    $0x2,%rcx
    40008cca:	74 0d                	je     40008cd9 <__floatscan+0x8d9>
    40008ccc:	c1 e0 1c             	shl    $0x1c,%eax
    40008ccf:	45 31 c0             	xor    %r8d,%r8d
    40008cd2:	48 85 c9             	test   %rcx,%rcx
    40008cd5:	4c 0f 45 c0          	cmovne %rax,%r8
    40008cd9:	83 ff 70             	cmp    $0x70,%edi
    40008cdc:	0f 84 9a 02 00 00    	je     40008f7c <__floatscan+0xb7c>
    40008ce2:	49 83 be b8 00 00 00 	cmpq   $0x0,0xb8(%r14)
    40008ce9:	00 
    40008cea:	74 05                	je     40008cf1 <__floatscan+0x8f1>
    40008cec:	49 83 6e 08 01       	subq   $0x1,0x8(%r14)
    40008cf1:	31 c0                	xor    %eax,%eax
    40008cf3:	45 85 c0             	test   %r8d,%r8d
    40008cf6:	db 6c 24 40          	fldt   0x40(%rsp)
    40008cfa:	0f 84 32 f7 ff ff    	je     40008432 <__floatscan+0x32>
    40008d00:	dd d8                	fstp   %st(0)
    40008d02:	48 8b 4c 24 50       	mov    0x50(%rsp),%rcx
    40008d07:	48 8d 5c 88 e0       	lea    -0x20(%rax,%rcx,4),%rbx
    40008d0c:	48 3b 5c 24 20       	cmp    0x20(%rsp),%rbx
    40008d11:	0f 8f 42 02 00 00    	jg     40008f59 <__floatscan+0xb59>
    40008d17:	48 3b 5c 24 30       	cmp    0x30(%rsp),%rbx
    40008d1c:	0f 8c 14 02 00 00    	jl     40008f36 <__floatscan+0xb36>
    40008d22:	45 85 c0             	test   %r8d,%r8d
    40008d25:	78 2b                	js     40008d52 <__floatscan+0x952>
    40008d27:	d9 05 0b 7b 3f 00    	flds   0x3f7b0b(%rip)        # 40400838 <states+0x1d8>
    40008d2d:	d9 c9                	fxch   %st(1)
    40008d2f:	eb 14                	jmp    40008d45 <__floatscan+0x945>
    40008d31:	d9 e8                	fld1   
    40008d33:	47 8d 44 00 01       	lea    0x1(%r8,%r8,1),%r8d
    40008d38:	d8 e9                	fsubr  %st(1),%st
    40008d3a:	de c1                	faddp  %st,%st(1)
    40008d3c:	48 83 eb 01          	sub    $0x1,%rbx
    40008d40:	45 85 c0             	test   %r8d,%r8d
    40008d43:	78 0b                	js     40008d50 <__floatscan+0x950>
    40008d45:	db e9                	fucomi %st(1),%st
    40008d47:	73 e8                	jae    40008d31 <__floatscan+0x931>
    40008d49:	45 01 c0             	add    %r8d,%r8d
    40008d4c:	d8 c0                	fadd   %st(0),%st
    40008d4e:	eb ec                	jmp    40008d3c <__floatscan+0x93c>
    40008d50:	dd d9                	fstp   %st(1)
    40008d52:	48 8d 43 20          	lea    0x20(%rbx),%rax
    40008d56:	48 29 e8             	sub    %rbp,%rax
    40008d59:	4c 39 f8             	cmp    %r15,%rax
    40008d5c:	7d 10                	jge    40008d6e <__floatscan+0x96e>
    40008d5e:	41 89 dc             	mov    %ebx,%r12d
    40008d61:	45 29 ec             	sub    %r13d,%r12d
    40008d64:	41 83 c4 20          	add    $0x20,%r12d
    40008d68:	0f 88 6e 01 00 00    	js     40008edc <__floatscan+0xadc>
    40008d6e:	41 83 fc 3f          	cmp    $0x3f,%r12d
    40008d72:	0f 8e 67 01 00 00    	jle    40008edf <__floatscan+0xadf>
    40008d78:	d9 ee                	fldz   
    40008d7a:	db 84 24 98 00 00 00 	fildl  0x98(%rsp)
    40008d81:	41 83 fc 1f          	cmp    $0x1f,%r12d
    40008d85:	7f 37                	jg     40008dbe <__floatscan+0x9be>
    40008d87:	b8 01 00 00 00       	mov    $0x1,%eax
    40008d8c:	d9 ee                	fldz   
    40008d8e:	d9 c0                	fld    %st(0)
    40008d90:	df ec                	fucomip %st(4),%st
    40008d92:	0f 9a c2             	setp   %dl
    40008d95:	0f 44 c2             	cmove  %edx,%eax
    40008d98:	84 c0                	test   %al,%al
    40008d9a:	74 1c                	je     40008db8 <__floatscan+0x9b8>
    40008d9c:	41 f6 c0 01          	test   $0x1,%r8b
    40008da0:	75 1a                	jne    40008dbc <__floatscan+0x9bc>
    40008da2:	dd db                	fstp   %st(3)
    40008da4:	d9 c9                	fxch   %st(1)
    40008da6:	d9 ca                	fxch   %st(2)
    40008da8:	d9 ca                	fxch   %st(2)
    40008daa:	d9 c9                	fxch   %st(1)
    40008dac:	41 83 c0 01          	add    $0x1,%r8d
    40008db0:	eb 0c                	jmp    40008dbe <__floatscan+0x9be>
    40008db2:	66 0f 1f 44 00 00    	nopw   0x0(%rax,%rax,1)
    40008db8:	dd d8                	fstp   %st(0)
    40008dba:	eb 02                	jmp    40008dbe <__floatscan+0x9be>
    40008dbc:	dd d8                	fstp   %st(0)
    40008dbe:	dc ca                	fmul   %st,%st(2)
    40008dc0:	4c 89 84 24 b8 00 00 	mov    %r8,0xb8(%rsp)
    40008dc7:	00 
    40008dc8:	df ac 24 b8 00 00 00 	fildll 0xb8(%rsp)
    40008dcf:	de c9                	fmulp  %st,%st(1)
    40008dd1:	d8 c1                	fadd   %st(1),%st
    40008dd3:	de c2                	faddp  %st,%st(2)
    40008dd5:	de e9                	fsubrp %st,%st(1)
    40008dd7:	d9 ee                	fldz   
    40008dd9:	d9 c9                	fxch   %st(1)
    40008ddb:	db e9                	fucomi %st(1),%st
    40008ddd:	dd d9                	fstp   %st(1)
    40008ddf:	0f 8b ef 01 00 00    	jnp    40008fd4 <__floatscan+0xbd4>
    40008de5:	db 3c 24             	fstpt  (%rsp)
    40008de8:	89 df                	mov    %ebx,%edi
    40008dea:	e8 3c 09 00 00       	callq  4000972b <scalbnl>
    40008def:	e9 44 f6 ff ff       	jmpq   40008438 <__floatscan+0x38>
    40008df4:	49 8b 46 08          	mov    0x8(%r14),%rax
    40008df8:	49 3b 86 b8 00 00 00 	cmp    0xb8(%r14),%rax
    40008dff:	0f 83 b8 00 00 00    	jae    40008ebd <__floatscan+0xabd>
    40008e05:	48 8d 48 01          	lea    0x1(%rax),%rcx
    40008e09:	49 89 4e 08          	mov    %rcx,0x8(%r14)
    40008e0d:	0f b6 00             	movzbl (%rax),%eax
    40008e10:	83 f8 30             	cmp    $0x30,%eax
    40008e13:	48 c7 44 24 50 00 00 	movq   $0x0,0x50(%rsp)
    40008e1a:	00 00 
    40008e1c:	74 18                	je     40008e36 <__floatscan+0xa36>
    40008e1e:	eb 3b                	jmp    40008e5b <__floatscan+0xa5b>
    40008e20:	48 8d 48 01          	lea    0x1(%rax),%rcx
    40008e24:	49 89 4e 08          	mov    %rcx,0x8(%r14)
    40008e28:	0f b6 00             	movzbl (%rax),%eax
    40008e2b:	48 83 6c 24 50 01    	subq   $0x1,0x50(%rsp)
    40008e31:	83 f8 30             	cmp    $0x30,%eax
    40008e34:	75 1f                	jne    40008e55 <__floatscan+0xa55>
    40008e36:	49 8b 46 08          	mov    0x8(%r14),%rax
    40008e3a:	49 3b 86 b8 00 00 00 	cmp    0xb8(%r14),%rax
    40008e41:	72 dd                	jb     40008e20 <__floatscan+0xa20>
    40008e43:	4c 89 f7             	mov    %r14,%rdi
    40008e46:	89 54 24 60          	mov    %edx,0x60(%rsp)
    40008e4a:	e8 71 07 00 00       	callq  400095c0 <__shgetc>
    40008e4f:	8b 54 24 60          	mov    0x60(%rsp),%edx
    40008e53:	eb d6                	jmp    40008e2b <__floatscan+0xa2b>
    40008e55:	41 b9 01 00 00 00    	mov    $0x1,%r9d
    40008e5b:	41 ba 01 00 00 00    	mov    $0x1,%r10d
    40008e61:	e9 64 fc ff ff       	jmpq   40008aca <__floatscan+0x6ca>
    40008e66:	49 89 4e 08          	mov    %rcx,0x8(%r14)
    40008e6a:	31 f6                	xor    %esi,%esi
    40008e6c:	4c 89 f7             	mov    %r14,%rdi
    40008e6f:	e8 0c 07 00 00       	callq  40009580 <__shlim>
    40008e74:	e9 e1 fd ff ff       	jmpq   40008c5a <__floatscan+0x85a>
    40008e79:	4c 89 f7             	mov    %r14,%rdi
    40008e7c:	89 54 24 50          	mov    %edx,0x50(%rsp)
    40008e80:	e8 3b 07 00 00       	callq  400095c0 <__shgetc>
    40008e85:	8b 54 24 50          	mov    0x50(%rsp),%edx
    40008e89:	e9 e2 fb ff ff       	jmpq   40008a70 <__floatscan+0x670>
    40008e8e:	85 db                	test   %ebx,%ebx
    40008e90:	0f 85 0c fa ff ff    	jne    400088a2 <__floatscan+0x4a2>
    40008e96:	e9 d7 f7 ff ff       	jmpq   40008672 <__floatscan+0x272>
    40008e9b:	dd d9                	fstp   %st(1)
    40008e9d:	45 85 c9             	test   %r9d,%r9d
    40008ea0:	0f 84 4e 01 00 00    	je     40008ff4 <__floatscan+0xbf4>
    40008ea6:	44 89 c0             	mov    %r8d,%eax
    40008ea9:	bf 2e 00 00 00       	mov    $0x2e,%edi
    40008eae:	e9 c4 fd ff ff       	jmpq   40008c77 <__floatscan+0x877>
    40008eb3:	84 d2                	test   %dl,%dl
    40008eb5:	0f 85 9f fd ff ff    	jne    40008c5a <__floatscan+0x85a>
    40008ebb:	eb ad                	jmp    40008e6a <__floatscan+0xa6a>
    40008ebd:	4c 89 f7             	mov    %r14,%rdi
    40008ec0:	44 89 4c 24 60       	mov    %r9d,0x60(%rsp)
    40008ec5:	89 54 24 50          	mov    %edx,0x50(%rsp)
    40008ec9:	e8 f2 06 00 00       	callq  400095c0 <__shgetc>
    40008ece:	8b 54 24 50          	mov    0x50(%rsp),%edx
    40008ed2:	44 8b 4c 24 60       	mov    0x60(%rsp),%r9d
    40008ed7:	e9 34 ff ff ff       	jmpq   40008e10 <__floatscan+0xa10>
    40008edc:	45 31 e4             	xor    %r12d,%r12d
    40008edf:	db 7c 24 50          	fstpt  0x50(%rsp)
    40008ee3:	bf 5f 00 00 00       	mov    $0x5f,%edi
    40008ee8:	44 89 44 24 40       	mov    %r8d,0x40(%rsp)
    40008eed:	44 29 e7             	sub    %r12d,%edi
    40008ef0:	f2 0f 10 05 10 83 3f 	movsd  0x3f8310(%rip),%xmm0        # 40401208 <p10s.2635+0x28>
    40008ef7:	00 
    40008ef8:	e8 a2 07 00 00       	callq  4000969f <scalbn>
    40008efd:	db 84 24 98 00 00 00 	fildl  0x98(%rsp)
    40008f04:	f2 0f 11 44 24 20    	movsd  %xmm0,0x20(%rsp)
    40008f0a:	d9 c0                	fld    %st(0)
    40008f0c:	db 7c 24 10          	fstpt  0x10(%rsp)
    40008f10:	db 7c 24 30          	fstpt  0x30(%rsp)
    40008f14:	dd 44 24 20          	fldl   0x20(%rsp)
    40008f18:	db 3c 24             	fstpt  (%rsp)
    40008f1b:	e8 52 07 00 00       	callq  40009672 <copysignl>
    40008f20:	db 6c 24 30          	fldt   0x30(%rsp)
    40008f24:	44 8b 44 24 40       	mov    0x40(%rsp),%r8d
    40008f29:	db 6c 24 50          	fldt   0x50(%rsp)
    40008f2d:	d9 ca                	fxch   %st(2)
    40008f2f:	d9 c9                	fxch   %st(1)
    40008f31:	e9 4b fe ff ff       	jmpq   40008d81 <__floatscan+0x981>
    40008f36:	dd d8                	fstp   %st(0)
    40008f38:	e8 86 94 ff ff       	callq  400023c3 <__tls_errno_location>
    40008f3d:	db 84 24 98 00 00 00 	fildl  0x98(%rsp)
    40008f44:	c7 00 22 00 00 00    	movl   $0x22,(%rax)
    40008f4a:	db 2d f0 82 3f 00    	fldt   0x3f82f0(%rip)        # 40401240 <p10s.2635+0x60>
    40008f50:	dc c9                	fmul   %st,%st(1)
    40008f52:	de c9                	fmulp  %st,%st(1)
    40008f54:	e9 df f4 ff ff       	jmpq   40008438 <__floatscan+0x38>
    40008f59:	dd d8                	fstp   %st(0)
    40008f5b:	e8 63 94 ff ff       	callq  400023c3 <__tls_errno_location>
    40008f60:	db 84 24 98 00 00 00 	fildl  0x98(%rsp)
    40008f67:	c7 00 22 00 00 00    	movl   $0x22,(%rax)
    40008f6d:	db 2d bd 82 3f 00    	fldt   0x3f82bd(%rip)        # 40401230 <p10s.2635+0x50>
    40008f73:	dc c9                	fmul   %st,%st(1)
    40008f75:	de c9                	fmulp  %st,%st(1)
    40008f77:	e9 bc f4 ff ff       	jmpq   40008438 <__floatscan+0x38>
    40008f7c:	db bc 24 80 00 00 00 	fstpt  0x80(%rsp)
    40008f83:	89 de                	mov    %ebx,%esi
    40008f85:	4c 89 f7             	mov    %r14,%rdi
    40008f88:	44 89 44 24 70       	mov    %r8d,0x70(%rsp)
    40008f8d:	89 54 24 60          	mov    %edx,0x60(%rsp)
    40008f91:	e8 aa e5 ff ff       	callq  40007540 <scanexp>
    40008f96:	48 b9 00 00 00 00 00 	movabs $0x8000000000000000,%rcx
    40008f9d:	00 00 80 
    40008fa0:	8b 54 24 60          	mov    0x60(%rsp),%edx
    40008fa4:	44 8b 44 24 70       	mov    0x70(%rsp),%r8d
    40008fa9:	48 39 c8             	cmp    %rcx,%rax
    40008fac:	db ac 24 80 00 00 00 	fldt   0x80(%rsp)
    40008fb3:	0f 85 3a fd ff ff    	jne    40008cf3 <__floatscan+0x8f3>
    40008fb9:	84 d2                	test   %dl,%dl
    40008fbb:	0f 85 21 fd ff ff    	jne    40008ce2 <__floatscan+0x8e2>
    40008fc1:	dd d8                	fstp   %st(0)
    40008fc3:	31 f6                	xor    %esi,%esi
    40008fc5:	4c 89 f7             	mov    %r14,%rdi
    40008fc8:	e8 b3 05 00 00       	callq  40009580 <__shlim>
    40008fcd:	d9 ee                	fldz   
    40008fcf:	e9 64 f4 ff ff       	jmpq   40008438 <__floatscan+0x38>
    40008fd4:	0f 85 0b fe ff ff    	jne    40008de5 <__floatscan+0x9e5>
    40008fda:	db 7c 24 20          	fstpt  0x20(%rsp)
    40008fde:	66 90                	xchg   %ax,%ax
    40008fe0:	e8 de 93 ff ff       	callq  400023c3 <__tls_errno_location>
    40008fe5:	c7 00 22 00 00 00    	movl   $0x22,(%rax)
    40008feb:	db 6c 24 20          	fldt   0x20(%rsp)
    40008fef:	e9 f1 fd ff ff       	jmpq   40008de5 <__floatscan+0x9e5>
    40008ff4:	dd d8                	fstp   %st(0)
    40008ff6:	41 ba 01 00 00 00    	mov    $0x1,%r10d
    40008ffc:	e9 26 fc ff ff       	jmpq   40008c27 <__floatscan+0x827>
    40009001:	66 2e 0f 1f 84 00 00 	nopw   %cs:0x0(%rax,%rax,1)
    40009008:	00 00 00 
    4000900b:	0f 1f 44 00 00       	nopl   0x0(%rax,%rax,1)

0000000040009010 <__intscan>:
    40009010:	41 57                	push   %r15
    40009012:	41 56                	push   %r14
    40009014:	41 89 f6             	mov    %esi,%r14d
    40009017:	41 55                	push   %r13
    40009019:	41 54                	push   %r12
    4000901b:	55                   	push   %rbp
    4000901c:	53                   	push   %rbx
    4000901d:	48 83 ec 18          	sub    $0x18,%rsp
    40009021:	83 fe 24             	cmp    $0x24,%esi
    40009024:	0f 87 c5 00 00 00    	ja     400090ef <__intscan+0xdf>
    4000902a:	48 89 fb             	mov    %rdi,%rbx
    4000902d:	41 89 d4             	mov    %edx,%r12d
    40009030:	48 89 cd             	mov    %rcx,%rbp
    40009033:	4c 8b 87 b8 00 00 00 	mov    0xb8(%rdi),%r8
    4000903a:	eb 17                	jmp    40009053 <__intscan+0x43>
    4000903c:	0f 1f 40 00          	nopl   0x0(%rax)
    40009040:	48 8d 47 01          	lea    0x1(%rdi),%rax
    40009044:	48 89 43 08          	mov    %rax,0x8(%rbx)
    40009048:	0f b6 07             	movzbl (%rdi),%eax
    4000904b:	8d 50 f7             	lea    -0x9(%rax),%edx
    4000904e:	83 fa 04             	cmp    $0x4,%edx
    40009051:	77 20                	ja     40009073 <__intscan+0x63>
    40009053:	48 8b 7b 08          	mov    0x8(%rbx),%rdi
    40009057:	4c 39 c7             	cmp    %r8,%rdi
    4000905a:	72 e4                	jb     40009040 <__intscan+0x30>
    4000905c:	48 89 df             	mov    %rbx,%rdi
    4000905f:	e8 5c 05 00 00       	callq  400095c0 <__shgetc>
    40009064:	8d 50 f7             	lea    -0x9(%rax),%edx
    40009067:	4c 8b 83 b8 00 00 00 	mov    0xb8(%rbx),%r8
    4000906e:	83 fa 04             	cmp    $0x4,%edx
    40009071:	76 e0                	jbe    40009053 <__intscan+0x43>
    40009073:	83 f8 20             	cmp    $0x20,%eax
    40009076:	74 db                	je     40009053 <__intscan+0x43>
    40009078:	83 f8 2d             	cmp    $0x2d,%eax
    4000907b:	0f 94 c2             	sete   %dl
    4000907e:	0f 85 8c 00 00 00    	jne    40009110 <__intscan+0x100>
    40009084:	48 8b 43 08          	mov    0x8(%rbx),%rax
    40009088:	44 0f b6 ea          	movzbl %dl,%r13d
    4000908c:	41 f7 dd             	neg    %r13d
    4000908f:	4c 39 c0             	cmp    %r8,%rax
    40009092:	0f 83 94 00 00 00    	jae    4000912c <__intscan+0x11c>
    40009098:	48 8d 50 01          	lea    0x1(%rax),%rdx
    4000909c:	48 89 53 08          	mov    %rdx,0x8(%rbx)
    400090a0:	0f b6 00             	movzbl (%rax),%eax
    400090a3:	41 f7 c6 ef ff ff ff 	test   $0xffffffef,%r14d
    400090aa:	75 1c                	jne    400090c8 <__intscan+0xb8>
    400090ac:	45 85 f6             	test   %r14d,%r14d
    400090af:	41 0f 94 c7          	sete   %r15b
    400090b3:	83 f8 30             	cmp    $0x30,%eax
    400090b6:	0f 84 84 00 00 00    	je     40009140 <__intscan+0x130>
    400090bc:	45 84 ff             	test   %r15b,%r15b
    400090bf:	ba 0a 00 00 00       	mov    $0xa,%edx
    400090c4:	44 0f 45 f2          	cmovne %edx,%r14d
    400090c8:	48 63 d0             	movslq %eax,%rdx
    400090cb:	0f b6 92 81 12 40 40 	movzbl 0x40401281(%rdx),%edx
    400090d2:	41 39 d6             	cmp    %edx,%r14d
    400090d5:	0f 87 95 00 00 00    	ja     40009170 <__intscan+0x160>
    400090db:	4d 85 c0             	test   %r8,%r8
    400090de:	74 05                	je     400090e5 <__intscan+0xd5>
    400090e0:	48 83 6b 08 01       	subq   $0x1,0x8(%rbx)
    400090e5:	31 f6                	xor    %esi,%esi
    400090e7:	48 89 df             	mov    %rbx,%rdi
    400090ea:	e8 91 04 00 00       	callq  40009580 <__shlim>
    400090ef:	e8 cf 92 ff ff       	callq  400023c3 <__tls_errno_location>
    400090f4:	c7 00 16 00 00 00    	movl   $0x16,(%rax)
    400090fa:	31 c0                	xor    %eax,%eax
    400090fc:	48 83 c4 18          	add    $0x18,%rsp
    40009100:	5b                   	pop    %rbx
    40009101:	5d                   	pop    %rbp
    40009102:	41 5c                	pop    %r12
    40009104:	41 5d                	pop    %r13
    40009106:	41 5e                	pop    %r14
    40009108:	41 5f                	pop    %r15
    4000910a:	c3                   	retq   
    4000910b:	0f 1f 44 00 00       	nopl   0x0(%rax,%rax,1)
    40009110:	45 31 ed             	xor    %r13d,%r13d
    40009113:	83 f8 2b             	cmp    $0x2b,%eax
    40009116:	75 8b                	jne    400090a3 <__intscan+0x93>
    40009118:	48 8b 43 08          	mov    0x8(%rbx),%rax
    4000911c:	44 0f b6 ea          	movzbl %dl,%r13d
    40009120:	41 f7 dd             	neg    %r13d
    40009123:	4c 39 c0             	cmp    %r8,%rax
    40009126:	0f 82 6c ff ff ff    	jb     40009098 <__intscan+0x88>
    4000912c:	48 89 df             	mov    %rbx,%rdi
    4000912f:	e8 8c 04 00 00       	callq  400095c0 <__shgetc>
    40009134:	4c 8b 83 b8 00 00 00 	mov    0xb8(%rbx),%r8
    4000913b:	e9 63 ff ff ff       	jmpq   400090a3 <__intscan+0x93>
    40009140:	48 8b 43 08          	mov    0x8(%rbx),%rax
    40009144:	4c 39 c0             	cmp    %r8,%rax
    40009147:	0f 83 82 03 00 00    	jae    400094cf <__intscan+0x4bf>
    4000914d:	48 8d 50 01          	lea    0x1(%rax),%rdx
    40009151:	48 89 53 08          	mov    %rdx,0x8(%rbx)
    40009155:	0f b6 00             	movzbl (%rax),%eax
    40009158:	89 c2                	mov    %eax,%edx
    4000915a:	83 ca 20             	or     $0x20,%edx
    4000915d:	83 fa 78             	cmp    $0x78,%edx
    40009160:	0f 84 7d 03 00 00    	je     400094e3 <__intscan+0x4d3>
    40009166:	45 84 ff             	test   %r15b,%r15b
    40009169:	0f 85 39 03 00 00    	jne    400094a8 <__intscan+0x498>
    4000916f:	90                   	nop
    40009170:	45 31 e4             	xor    %r12d,%r12d
    40009173:	41 83 fe 0a          	cmp    $0xa,%r14d
    40009177:	0f 84 f2 00 00 00    	je     4000926f <__intscan+0x25f>
    4000917d:	48 98                	cltq   
    4000917f:	45 31 e4             	xor    %r12d,%r12d
    40009182:	0f b6 b0 81 12 40 40 	movzbl 0x40401281(%rax),%esi
    40009189:	41 8d 46 ff          	lea    -0x1(%r14),%eax
    4000918d:	44 85 f0             	test   %r14d,%eax
    40009190:	0f 85 8e 00 00 00    	jne    40009224 <__intscan+0x214>
    40009196:	44 89 f0             	mov    %r14d,%eax
    40009199:	ba 17 00 00 00       	mov    $0x17,%edx
    4000919e:	45 31 e4             	xor    %r12d,%r12d
    400091a1:	0f af c2             	imul   %edx,%eax
    400091a4:	c1 e8 05             	shr    $0x5,%eax
    400091a7:	83 e0 07             	and    $0x7,%eax
    400091aa:	44 0f be b8 64 12 40 	movsbl 0x40401264(%rax),%r15d
    400091b1:	40 
    400091b2:	eb 18                	jmp    400091cc <__intscan+0x1bc>
    400091b4:	0f 1f 40 00          	nopl   0x0(%rax)
    400091b8:	48 8d 50 01          	lea    0x1(%rax),%rdx
    400091bc:	48 89 53 08          	mov    %rdx,0x8(%rbx)
    400091c0:	0f b6 00             	movzbl (%rax),%eax
    400091c3:	48 98                	cltq   
    400091c5:	0f b6 b0 81 12 40 40 	movzbl 0x40401281(%rax),%esi
    400091cc:	40 0f b6 d6          	movzbl %sil,%edx
    400091d0:	41 39 d6             	cmp    %edx,%r14d
    400091d3:	0f 86 97 01 00 00    	jbe    40009370 <__intscan+0x360>
    400091d9:	41 81 fc ff ff ff 07 	cmp    $0x7ffffff,%r12d
    400091e0:	0f 87 8a 01 00 00    	ja     40009370 <__intscan+0x360>
    400091e6:	48 8b 43 08          	mov    0x8(%rbx),%rax
    400091ea:	44 89 f9             	mov    %r15d,%ecx
    400091ed:	41 d3 e4             	shl    %cl,%r12d
    400091f0:	41 09 d4             	or     %edx,%r12d
    400091f3:	4c 39 c0             	cmp    %r8,%rax
    400091f6:	72 c0                	jb     400091b8 <__intscan+0x1a8>
    400091f8:	48 89 df             	mov    %rbx,%rdi
    400091fb:	e8 c0 03 00 00       	callq  400095c0 <__shgetc>
    40009200:	4c 8b 83 b8 00 00 00 	mov    0xb8(%rbx),%r8
    40009207:	eb ba                	jmp    400091c3 <__intscan+0x1b3>
    40009209:	0f 1f 80 00 00 00 00 	nopl   0x0(%rax)
    40009210:	48 8d 50 01          	lea    0x1(%rax),%rdx
    40009214:	48 89 53 08          	mov    %rdx,0x8(%rbx)
    40009218:	0f b6 00             	movzbl (%rax),%eax
    4000921b:	48 98                	cltq   
    4000921d:	0f b6 b0 81 12 40 40 	movzbl 0x40401281(%rax),%esi
    40009224:	40 0f b6 d6          	movzbl %sil,%edx
    40009228:	41 39 d6             	cmp    %edx,%r14d
    4000922b:	0f 86 ef 01 00 00    	jbe    40009420 <__intscan+0x410>
    40009231:	41 81 fc c6 71 1c 07 	cmp    $0x71c71c6,%r12d
    40009238:	0f 87 e2 01 00 00    	ja     40009420 <__intscan+0x410>
    4000923e:	45 0f af e6          	imul   %r14d,%r12d
    40009242:	48 8b 43 08          	mov    0x8(%rbx),%rax
    40009246:	41 01 d4             	add    %edx,%r12d
    40009249:	4c 39 c0             	cmp    %r8,%rax
    4000924c:	72 c2                	jb     40009210 <__intscan+0x200>
    4000924e:	48 89 df             	mov    %rbx,%rdi
    40009251:	e8 6a 03 00 00       	callq  400095c0 <__shgetc>
    40009256:	4c 8b 83 b8 00 00 00 	mov    0xb8(%rbx),%r8
    4000925d:	eb bc                	jmp    4000921b <__intscan+0x20b>
    4000925f:	90                   	nop
    40009260:	48 89 df             	mov    %rbx,%rdi
    40009263:	e8 58 03 00 00       	callq  400095c0 <__shgetc>
    40009268:	4c 8b 83 b8 00 00 00 	mov    0xb8(%rbx),%r8
    4000926f:	8d 50 d0             	lea    -0x30(%rax),%edx
    40009272:	83 fa 09             	cmp    $0x9,%edx
    40009275:	77 2e                	ja     400092a5 <__intscan+0x295>
    40009277:	41 81 fc 98 99 99 19 	cmp    $0x19999998,%r12d
    4000927e:	77 25                	ja     400092a5 <__intscan+0x295>
    40009280:	43 8d 14 a4          	lea    (%r12,%r12,4),%edx
    40009284:	44 8d 64 50 d0       	lea    -0x30(%rax,%rdx,2),%r12d
    40009289:	48 8b 43 08          	mov    0x8(%rbx),%rax
    4000928d:	4c 39 c0             	cmp    %r8,%rax
    40009290:	73 ce                	jae    40009260 <__intscan+0x250>
    40009292:	48 8d 50 01          	lea    0x1(%rax),%rdx
    40009296:	48 89 53 08          	mov    %rdx,0x8(%rbx)
    4000929a:	0f b6 00             	movzbl (%rax),%eax
    4000929d:	8d 50 d0             	lea    -0x30(%rax),%edx
    400092a0:	83 fa 09             	cmp    $0x9,%edx
    400092a3:	76 d2                	jbe    40009277 <__intscan+0x267>
    400092a5:	49 bf 99 99 99 99 99 	movabs $0x1999999999999999,%r15
    400092ac:	99 99 19 
    400092af:	eb 15                	jmp    400092c6 <__intscan+0x2b6>
    400092b1:	0f 1f 80 00 00 00 00 	nopl   0x0(%rax)
    400092b8:	48 8d 50 01          	lea    0x1(%rax),%rdx
    400092bc:	48 89 53 08          	mov    %rdx,0x8(%rbx)
    400092c0:	0f b6 00             	movzbl (%rax),%eax
    400092c3:	8d 50 d0             	lea    -0x30(%rax),%edx
    400092c6:	83 fa 09             	cmp    $0x9,%edx
    400092c9:	77 63                	ja     4000932e <__intscan+0x31e>
    400092cb:	4d 39 fc             	cmp    %r15,%r12
    400092ce:	0f 87 c0 01 00 00    	ja     40009494 <__intscan+0x484>
    400092d4:	4b 8d 0c a4          	lea    (%r12,%r12,4),%rcx
    400092d8:	48 63 d2             	movslq %edx,%rdx
    400092db:	48 89 d6             	mov    %rdx,%rsi
    400092de:	48 01 c9             	add    %rcx,%rcx
    400092e1:	48 f7 d6             	not    %rsi
    400092e4:	48 39 f1             	cmp    %rsi,%rcx
    400092e7:	0f 87 a7 01 00 00    	ja     40009494 <__intscan+0x484>
    400092ed:	48 8b 43 08          	mov    0x8(%rbx),%rax
    400092f1:	4c 8d 24 0a          	lea    (%rdx,%rcx,1),%r12
    400092f5:	4c 39 c0             	cmp    %r8,%rax
    400092f8:	72 be                	jb     400092b8 <__intscan+0x2a8>
    400092fa:	48 89 df             	mov    %rbx,%rdi
    400092fd:	e8 be 02 00 00       	callq  400095c0 <__shgetc>
    40009302:	4c 8b 83 b8 00 00 00 	mov    0xb8(%rbx),%r8
    40009309:	eb b8                	jmp    400092c3 <__intscan+0x2b3>
    4000930b:	0f 1f 44 00 00       	nopl   0x0(%rax,%rax,1)
    40009310:	e8 ae 90 ff ff       	callq  400023c3 <__tls_errno_location>
    40009315:	40 f6 c5 01          	test   $0x1,%bpl
    40009319:	c7 00 22 00 00 00    	movl   $0x22,(%rax)
    4000931f:	4c 8b 83 b8 00 00 00 	mov    0xb8(%rbx),%r8
    40009326:	49 89 ec             	mov    %rbp,%r12
    40009329:	74 03                	je     4000932e <__intscan+0x31e>
    4000932b:	45 31 ed             	xor    %r13d,%r13d
    4000932e:	4d 85 c0             	test   %r8,%r8
    40009331:	74 05                	je     40009338 <__intscan+0x328>
    40009333:	48 83 6b 08 01       	subq   $0x1,0x8(%rbx)
    40009338:	49 39 ec             	cmp    %rbp,%r12
    4000933b:	72 18                	jb     40009355 <__intscan+0x345>
    4000933d:	40 f6 c5 01          	test   $0x1,%bpl
    40009341:	75 09                	jne    4000934c <__intscan+0x33c>
    40009343:	45 85 ed             	test   %r13d,%r13d
    40009346:	0f 84 db 01 00 00    	je     40009527 <__intscan+0x517>
    4000934c:	49 39 ec             	cmp    %rbp,%r12
    4000934f:	0f 87 67 01 00 00    	ja     400094bc <__intscan+0x4ac>
    40009355:	48 83 c4 18          	add    $0x18,%rsp
    40009359:	4d 63 ed             	movslq %r13d,%r13
    4000935c:	4c 89 e0             	mov    %r12,%rax
    4000935f:	5b                   	pop    %rbx
    40009360:	5d                   	pop    %rbp
    40009361:	41 5c                	pop    %r12
    40009363:	4c 31 e8             	xor    %r13,%rax
    40009366:	4c 29 e8             	sub    %r13,%rax
    40009369:	41 5d                	pop    %r13
    4000936b:	41 5e                	pop    %r14
    4000936d:	41 5f                	pop    %r15
    4000936f:	c3                   	retq   
    40009370:	49 c7 c1 ff ff ff ff 	mov    $0xffffffffffffffff,%r9
    40009377:	44 89 f9             	mov    %r15d,%ecx
    4000937a:	49 d3 e9             	shr    %cl,%r9
    4000937d:	eb 19                	jmp    40009398 <__intscan+0x388>
    4000937f:	90                   	nop
    40009380:	48 8d 50 01          	lea    0x1(%rax),%rdx
    40009384:	48 89 53 08          	mov    %rdx,0x8(%rbx)
    40009388:	0f b6 00             	movzbl (%rax),%eax
    4000938b:	48 98                	cltq   
    4000938d:	0f b6 b0 81 12 40 40 	movzbl 0x40401281(%rax),%esi
    40009394:	40 0f b6 d6          	movzbl %sil,%edx
    40009398:	41 39 d6             	cmp    %edx,%r14d
    4000939b:	76 91                	jbe    4000932e <__intscan+0x31e>
    4000939d:	4d 39 cc             	cmp    %r9,%r12
    400093a0:	77 62                	ja     40009404 <__intscan+0x3f4>
    400093a2:	4c 89 e0             	mov    %r12,%rax
    400093a5:	44 89 f9             	mov    %r15d,%ecx
    400093a8:	44 0f b6 e6          	movzbl %sil,%r12d
    400093ac:	48 d3 e0             	shl    %cl,%rax
    400093af:	49 09 c4             	or     %rax,%r12
    400093b2:	48 8b 43 08          	mov    0x8(%rbx),%rax
    400093b6:	4c 39 c0             	cmp    %r8,%rax
    400093b9:	72 c5                	jb     40009380 <__intscan+0x370>
    400093bb:	48 89 df             	mov    %rbx,%rdi
    400093be:	4c 89 4c 24 08       	mov    %r9,0x8(%rsp)
    400093c3:	e8 f8 01 00 00       	callq  400095c0 <__shgetc>
    400093c8:	4c 8b 83 b8 00 00 00 	mov    0xb8(%rbx),%r8
    400093cf:	4c 8b 4c 24 08       	mov    0x8(%rsp),%r9
    400093d4:	eb b5                	jmp    4000938b <__intscan+0x37b>
    400093d6:	66 2e 0f 1f 84 00 00 	nopw   %cs:0x0(%rax,%rax,1)
    400093dd:	00 00 00 
    400093e0:	48 8d 50 01          	lea    0x1(%rax),%rdx
    400093e4:	48 89 53 08          	mov    %rdx,0x8(%rbx)
    400093e8:	0f b6 00             	movzbl (%rax),%eax
    400093eb:	48 98                	cltq   
    400093ed:	0f b6 80 81 12 40 40 	movzbl 0x40401281(%rax),%eax
    400093f4:	44 39 f0             	cmp    %r14d,%eax
    400093f7:	0f 83 13 ff ff ff    	jae    40009310 <__intscan+0x300>
    400093fd:	4c 8b 83 b8 00 00 00 	mov    0xb8(%rbx),%r8
    40009404:	48 8b 43 08          	mov    0x8(%rbx),%rax
    40009408:	4c 39 c0             	cmp    %r8,%rax
    4000940b:	72 d3                	jb     400093e0 <__intscan+0x3d0>
    4000940d:	48 89 df             	mov    %rbx,%rdi
    40009410:	e8 ab 01 00 00       	callq  400095c0 <__shgetc>
    40009415:	eb d4                	jmp    400093eb <__intscan+0x3db>
    40009417:	66 0f 1f 84 00 00 00 	nopw   0x0(%rax,%rax,1)
    4000941e:	00 00 
    40009420:	45 89 f7             	mov    %r14d,%r15d
    40009423:	48 c7 c1 ff ff ff ff 	mov    $0xffffffffffffffff,%rcx
    4000942a:	eb 1c                	jmp    40009448 <__intscan+0x438>
    4000942c:	0f 1f 40 00          	nopl   0x0(%rax)
    40009430:	48 8d 42 01          	lea    0x1(%rdx),%rax
    40009434:	48 89 43 08          	mov    %rax,0x8(%rbx)
    40009438:	0f b6 02             	movzbl (%rdx),%eax
    4000943b:	48 98                	cltq   
    4000943d:	0f b6 b0 81 12 40 40 	movzbl 0x40401281(%rax),%esi
    40009444:	40 0f b6 d6          	movzbl %sil,%edx
    40009448:	41 39 d6             	cmp    %edx,%r14d
    4000944b:	0f 86 dd fe ff ff    	jbe    4000932e <__intscan+0x31e>
    40009451:	31 d2                	xor    %edx,%edx
    40009453:	48 89 c8             	mov    %rcx,%rax
    40009456:	49 f7 f7             	div    %r15
    40009459:	49 39 c4             	cmp    %rax,%r12
    4000945c:	77 a6                	ja     40009404 <__intscan+0x3f4>
    4000945e:	4d 0f af e7          	imul   %r15,%r12
    40009462:	48 89 f0             	mov    %rsi,%rax
    40009465:	48 f7 d0             	not    %rax
    40009468:	49 39 c4             	cmp    %rax,%r12
    4000946b:	77 97                	ja     40009404 <__intscan+0x3f4>
    4000946d:	48 8b 53 08          	mov    0x8(%rbx),%rdx
    40009471:	49 01 f4             	add    %rsi,%r12
    40009474:	4c 39 c2             	cmp    %r8,%rdx
    40009477:	72 b7                	jb     40009430 <__intscan+0x420>
    40009479:	48 89 df             	mov    %rbx,%rdi
    4000947c:	48 89 4c 24 08       	mov    %rcx,0x8(%rsp)
    40009481:	e8 3a 01 00 00       	callq  400095c0 <__shgetc>
    40009486:	4c 8b 83 b8 00 00 00 	mov    0xb8(%rbx),%r8
    4000948d:	48 8b 4c 24 08       	mov    0x8(%rsp),%rcx
    40009492:	eb a7                	jmp    4000943b <__intscan+0x42b>
    40009494:	48 98                	cltq   
    40009496:	80 b8 81 12 40 40 09 	cmpb   $0x9,0x40401281(%rax)
    4000949d:	0f 87 8b fe ff ff    	ja     4000932e <__intscan+0x31e>
    400094a3:	e9 5c ff ff ff       	jmpq   40009404 <__intscan+0x3f4>
    400094a8:	48 98                	cltq   
    400094aa:	41 be 08 00 00 00    	mov    $0x8,%r14d
    400094b0:	0f b6 b0 81 12 40 40 	movzbl 0x40401281(%rax),%esi
    400094b7:	e9 da fc ff ff       	jmpq   40009196 <__intscan+0x186>
    400094bc:	e8 02 8f ff ff       	callq  400023c3 <__tls_errno_location>
    400094c1:	c7 00 22 00 00 00    	movl   $0x22,(%rax)
    400094c7:	48 89 e8             	mov    %rbp,%rax
    400094ca:	e9 2d fc ff ff       	jmpq   400090fc <__intscan+0xec>
    400094cf:	48 89 df             	mov    %rbx,%rdi
    400094d2:	e8 e9 00 00 00       	callq  400095c0 <__shgetc>
    400094d7:	4c 8b 83 b8 00 00 00 	mov    0xb8(%rbx),%r8
    400094de:	e9 75 fc ff ff       	jmpq   40009158 <__intscan+0x148>
    400094e3:	48 8b 43 08          	mov    0x8(%rbx),%rax
    400094e7:	4c 39 c0             	cmp    %r8,%rax
    400094ea:	73 5a                	jae    40009546 <__intscan+0x536>
    400094ec:	48 8d 50 01          	lea    0x1(%rax),%rdx
    400094f0:	48 89 53 08          	mov    %rdx,0x8(%rbx)
    400094f4:	0f b6 00             	movzbl (%rax),%eax
    400094f7:	48 98                	cltq   
    400094f9:	0f b6 b0 81 12 40 40 	movzbl 0x40401281(%rax),%esi
    40009500:	40 80 fe 0f          	cmp    $0xf,%sil
    40009504:	76 35                	jbe    4000953b <__intscan+0x52b>
    40009506:	4d 85 c0             	test   %r8,%r8
    40009509:	74 61                	je     4000956c <__intscan+0x55c>
    4000950b:	48 8b 43 08          	mov    0x8(%rbx),%rax
    4000950f:	45 85 e4             	test   %r12d,%r12d
    40009512:	48 8d 50 ff          	lea    -0x1(%rax),%rdx
    40009516:	74 3f                	je     40009557 <__intscan+0x547>
    40009518:	48 83 e8 02          	sub    $0x2,%rax
    4000951c:	48 89 43 08          	mov    %rax,0x8(%rbx)
    40009520:	31 c0                	xor    %eax,%eax
    40009522:	e9 d5 fb ff ff       	jmpq   400090fc <__intscan+0xec>
    40009527:	e8 97 8e ff ff       	callq  400023c3 <__tls_errno_location>
    4000952c:	c7 00 22 00 00 00    	movl   $0x22,(%rax)
    40009532:	48 8d 45 ff          	lea    -0x1(%rbp),%rax
    40009536:	e9 c1 fb ff ff       	jmpq   400090fc <__intscan+0xec>
    4000953b:	41 be 10 00 00 00    	mov    $0x10,%r14d
    40009541:	e9 50 fc ff ff       	jmpq   40009196 <__intscan+0x186>
    40009546:	48 89 df             	mov    %rbx,%rdi
    40009549:	e8 72 00 00 00       	callq  400095c0 <__shgetc>
    4000954e:	4c 8b 83 b8 00 00 00 	mov    0xb8(%rbx),%r8
    40009555:	eb a0                	jmp    400094f7 <__intscan+0x4e7>
    40009557:	48 89 53 08          	mov    %rdx,0x8(%rbx)
    4000955b:	31 f6                	xor    %esi,%esi
    4000955d:	48 89 df             	mov    %rbx,%rdi
    40009560:	e8 1b 00 00 00       	callq  40009580 <__shlim>
    40009565:	31 c0                	xor    %eax,%eax
    40009567:	e9 90 fb ff ff       	jmpq   400090fc <__intscan+0xec>
    4000956c:	31 c0                	xor    %eax,%eax
    4000956e:	45 85 e4             	test   %r12d,%r12d
    40009571:	0f 85 85 fb ff ff    	jne    400090fc <__intscan+0xec>
    40009577:	eb e2                	jmp    4000955b <__intscan+0x54b>
    40009579:	0f 1f 80 00 00 00 00 	nopl   0x0(%rax)

0000000040009580 <__shlim>:
    40009580:	48 8b 47 10          	mov    0x10(%rdi),%rax
    40009584:	48 8b 4f 08          	mov    0x8(%rdi),%rcx
    40009588:	48 89 b7 c0 00 00 00 	mov    %rsi,0xc0(%rdi)
    4000958f:	48 89 c2             	mov    %rax,%rdx
    40009592:	48 29 ca             	sub    %rcx,%rdx
    40009595:	48 85 f6             	test   %rsi,%rsi
    40009598:	48 89 97 c8 00 00 00 	mov    %rdx,0xc8(%rdi)
    4000959f:	74 0a                	je     400095ab <__shlim+0x2b>
    400095a1:	48 01 f1             	add    %rsi,%rcx
    400095a4:	48 39 d6             	cmp    %rdx,%rsi
    400095a7:	48 0f 4c c1          	cmovl  %rcx,%rax
    400095ab:	48 89 87 b8 00 00 00 	mov    %rax,0xb8(%rdi)
    400095b2:	c3                   	retq   
    400095b3:	66 2e 0f 1f 84 00 00 	nopw   %cs:0x0(%rax,%rax,1)
    400095ba:	00 00 00 
    400095bd:	0f 1f 00             	nopl   (%rax)

00000000400095c0 <__shgetc>:
    400095c0:	53                   	push   %rbx
    400095c1:	48 8b 87 c0 00 00 00 	mov    0xc0(%rdi),%rax
    400095c8:	48 89 fb             	mov    %rdi,%rbx
    400095cb:	48 85 c0             	test   %rax,%rax
    400095ce:	74 0d                	je     400095dd <__shgetc+0x1d>
    400095d0:	48 3b 87 c8 00 00 00 	cmp    0xc8(%rdi),%rax
    400095d7:	0f 8e 83 00 00 00    	jle    40009660 <__shgetc+0xa0>
    400095dd:	48 89 df             	mov    %rbx,%rdi
    400095e0:	e8 b0 d3 ff ff       	callq  40006995 <__uflow>
    400095e5:	85 c0                	test   %eax,%eax
    400095e7:	89 c2                	mov    %eax,%edx
    400095e9:	78 75                	js     40009660 <__shgetc+0xa0>
    400095eb:	48 8b 83 c0 00 00 00 	mov    0xc0(%rbx),%rax
    400095f2:	48 85 c0             	test   %rax,%rax
    400095f5:	75 39                	jne    40009630 <__shgetc+0x70>
    400095f7:	48 8b 4b 08          	mov    0x8(%rbx),%rcx
    400095fb:	48 8b 43 10          	mov    0x10(%rbx),%rax
    400095ff:	48 89 c6             	mov    %rax,%rsi
    40009602:	48 85 f6             	test   %rsi,%rsi
    40009605:	48 89 83 b8 00 00 00 	mov    %rax,0xb8(%rbx)
    4000960c:	74 0e                	je     4000961c <__shgetc+0x5c>
    4000960e:	48 29 ce             	sub    %rcx,%rsi
    40009611:	48 83 c6 01          	add    $0x1,%rsi
    40009615:	48 01 b3 c8 00 00 00 	add    %rsi,0xc8(%rbx)
    4000961c:	0f b6 41 ff          	movzbl -0x1(%rcx),%eax
    40009620:	39 d0                	cmp    %edx,%eax
    40009622:	74 05                	je     40009629 <__shgetc+0x69>
    40009624:	88 51 ff             	mov    %dl,-0x1(%rcx)
    40009627:	89 d0                	mov    %edx,%eax
    40009629:	5b                   	pop    %rbx
    4000962a:	c3                   	retq   
    4000962b:	0f 1f 44 00 00       	nopl   0x0(%rax,%rax,1)
    40009630:	48 2b 83 c8 00 00 00 	sub    0xc8(%rbx),%rax
    40009637:	48 8b 4b 08          	mov    0x8(%rbx),%rcx
    4000963b:	48 89 c7             	mov    %rax,%rdi
    4000963e:	48 8b 43 10          	mov    0x10(%rbx),%rax
    40009642:	48 89 c6             	mov    %rax,%rsi
    40009645:	48 29 ce             	sub    %rcx,%rsi
    40009648:	48 39 f7             	cmp    %rsi,%rdi
    4000964b:	7f b2                	jg     400095ff <__shgetc+0x3f>
    4000964d:	48 89 c6             	mov    %rax,%rsi
    40009650:	48 8d 44 39 ff       	lea    -0x1(%rcx,%rdi,1),%rax
    40009655:	eb ab                	jmp    40009602 <__shgetc+0x42>
    40009657:	66 0f 1f 84 00 00 00 	nopw   0x0(%rax,%rax,1)
    4000965e:	00 00 
    40009660:	48 c7 83 b8 00 00 00 	movq   $0x0,0xb8(%rbx)
    40009667:	00 00 00 00 
    4000966b:	b8 ff ff ff ff       	mov    $0xffffffff,%eax
    40009670:	5b                   	pop    %rbx
    40009671:	c3                   	retq   

0000000040009672 <copysignl>:
    40009672:	db 6c 24 08          	fldt   0x8(%rsp)
    40009676:	db 7c 24 d8          	fstpt  -0x28(%rsp)
    4000967a:	8b 54 24 e0          	mov    -0x20(%rsp),%edx
    4000967e:	db 6c 24 18          	fldt   0x18(%rsp)
    40009682:	66 81 e2 ff 7f       	and    $0x7fff,%dx
    40009687:	db 7c 24 e8          	fstpt  -0x18(%rsp)
    4000968b:	8b 44 24 f0          	mov    -0x10(%rsp),%eax
    4000968f:	66 25 00 80          	and    $0x8000,%ax
    40009693:	09 d0                	or     %edx,%eax
    40009695:	66 89 44 24 e0       	mov    %ax,-0x20(%rsp)
    4000969a:	db 6c 24 d8          	fldt   -0x28(%rsp)
    4000969e:	c3                   	retq   

000000004000969f <scalbn>:
    4000969f:	81 ff ff 03 00 00    	cmp    $0x3ff,%edi
    400096a5:	7e 32                	jle    400096d9 <scalbn+0x3a>
    400096a7:	8d 87 01 fc ff ff    	lea    -0x3ff(%rdi),%eax
    400096ad:	f2 0f 10 0d d3 7c 3f 	movsd  0x3f7cd3(%rip),%xmm1        # 40401388 <table+0x108>
    400096b4:	00 
    400096b5:	3d ff 03 00 00       	cmp    $0x3ff,%eax
    400096ba:	f2 0f 59 c1          	mulsd  %xmm1,%xmm0
    400096be:	7e 50                	jle    40009710 <scalbn+0x71>
    400096c0:	8d 87 02 f8 ff ff    	lea    -0x7fe(%rdi),%eax
    400096c6:	bf ff 03 00 00       	mov    $0x3ff,%edi
    400096cb:	f2 0f 59 c1          	mulsd  %xmm1,%xmm0
    400096cf:	3d ff 03 00 00       	cmp    $0x3ff,%eax
    400096d4:	0f 4e f8             	cmovle %eax,%edi
    400096d7:	eb 39                	jmp    40009712 <scalbn+0x73>
    400096d9:	81 ff 02 fc ff ff    	cmp    $0xfffffc02,%edi
    400096df:	7d 31                	jge    40009712 <scalbn+0x73>
    400096e1:	8d 87 fe 03 00 00    	lea    0x3fe(%rdi),%eax
    400096e7:	f2 0f 10 0d a1 7c 3f 	movsd  0x3f7ca1(%rip),%xmm1        # 40401390 <table+0x110>
    400096ee:	00 
    400096ef:	3d 02 fc ff ff       	cmp    $0xfffffc02,%eax
    400096f4:	f2 0f 59 c1          	mulsd  %xmm1,%xmm0
    400096f8:	7d 16                	jge    40009710 <scalbn+0x71>
    400096fa:	8d 87 fc 07 00 00    	lea    0x7fc(%rdi),%eax
    40009700:	bf 02 fc ff ff       	mov    $0xfffffc02,%edi
    40009705:	f2 0f 59 c1          	mulsd  %xmm1,%xmm0
    40009709:	39 f8                	cmp    %edi,%eax
    4000970b:	0f 4d f8             	cmovge %eax,%edi
    4000970e:	eb 02                	jmp    40009712 <scalbn+0x73>
    40009710:	89 c7                	mov    %eax,%edi
    40009712:	81 c7 ff 03 00 00    	add    $0x3ff,%edi
    40009718:	48 89 f8             	mov    %rdi,%rax
    4000971b:	48 c1 e0 34          	shl    $0x34,%rax
    4000971f:	48 89 44 24 f8       	mov    %rax,-0x8(%rsp)
    40009724:	f2 0f 59 44 24 f8    	mulsd  -0x8(%rsp),%xmm0
    4000972a:	c3                   	retq   

000000004000972b <scalbnl>:
    4000972b:	81 ff ff 3f 00 00    	cmp    $0x3fff,%edi
    40009731:	db 6c 24 08          	fldt   0x8(%rsp)
    40009735:	7e 2c                	jle    40009763 <scalbnl+0x38>
    40009737:	8d 87 01 c0 ff ff    	lea    -0x3fff(%rdi),%eax
    4000973d:	3d ff 3f 00 00       	cmp    $0x3fff,%eax
    40009742:	db 2d 58 7c 3f 00    	fldt   0x3f7c58(%rip)        # 404013a0 <table+0x120>
    40009748:	dc c9                	fmul   %st,%st(1)
    4000974a:	7e 48                	jle    40009794 <scalbnl+0x69>
    4000974c:	8d 87 02 80 ff ff    	lea    -0x7ffe(%rdi),%eax
    40009752:	bf ff 3f 00 00       	mov    $0x3fff,%edi
    40009757:	de c9                	fmulp  %st,%st(1)
    40009759:	3d ff 3f 00 00       	cmp    $0x3fff,%eax
    4000975e:	0f 4e f8             	cmovle %eax,%edi
    40009761:	eb 39                	jmp    4000979c <scalbnl+0x71>
    40009763:	81 ff 02 c0 ff ff    	cmp    $0xffffc002,%edi
    40009769:	7d 31                	jge    4000979c <scalbnl+0x71>
    4000976b:	db 2d cf 7a 3f 00    	fldt   0x3f7acf(%rip)        # 40401240 <p10s.2635+0x60>
    40009771:	8d 87 fe 3f 00 00    	lea    0x3ffe(%rdi),%eax
    40009777:	3d 02 c0 ff ff       	cmp    $0xffffc002,%eax
    4000977c:	dc c9                	fmul   %st,%st(1)
    4000977e:	7d 18                	jge    40009798 <scalbnl+0x6d>
    40009780:	8d 87 fc 7f 00 00    	lea    0x7ffc(%rdi),%eax
    40009786:	bf 02 c0 ff ff       	mov    $0xffffc002,%edi
    4000978b:	de c9                	fmulp  %st,%st(1)
    4000978d:	39 f8                	cmp    %edi,%eax
    4000978f:	0f 4d f8             	cmovge %eax,%edi
    40009792:	eb 08                	jmp    4000979c <scalbnl+0x71>
    40009794:	dd d8                	fstp   %st(0)
    40009796:	eb 02                	jmp    4000979a <scalbnl+0x6f>
    40009798:	dd d8                	fstp   %st(0)
    4000979a:	89 c7                	mov    %eax,%edi
    4000979c:	d9 e8                	fld1   
    4000979e:	66 81 c7 ff 3f       	add    $0x3fff,%di
    400097a3:	db 7c 24 e8          	fstpt  -0x18(%rsp)
    400097a7:	66 89 7c 24 f0       	mov    %di,-0x10(%rsp)
    400097ac:	db 6c 24 e8          	fldt   -0x18(%rsp)
    400097b0:	de c9                	fmulp  %st,%st(1)
    400097b2:	c3                   	retq   

00000000400097b3 <fabs>:
    400097b3:	31 c0                	xor    %eax,%eax
    400097b5:	48 ff c8             	dec    %rax
    400097b8:	48 d1 e8             	shr    %rax
    400097bb:	66 48 0f 6e c8       	movq   %rax,%xmm1
    400097c0:	66 0f 54 c1          	andpd  %xmm1,%xmm0
    400097c4:	c3                   	retq   

00000000400097c5 <fmodl>:
    400097c5:	db 6c 24 18          	fldt   0x18(%rsp)
    400097c9:	db 6c 24 08          	fldt   0x8(%rsp)
    400097cd:	d9 f8                	fprem  
    400097cf:	df e0                	fnstsw %ax
    400097d1:	f6 c4 04             	test   $0x4,%ah
    400097d4:	75 f7                	jne    400097cd <fmodl+0x8>
    400097d6:	dd d9                	fstp   %st(1)
    400097d8:	c3                   	retq   

00000000400097d9 <mbrtowc>:
    400097d9:	48 83 ec 18          	sub    $0x18,%rsp
    400097dd:	b8 b8 55 40 40       	mov    $0x404055b8,%eax
    400097e2:	48 85 c9             	test   %rcx,%rcx
    400097e5:	48 0f 44 c8          	cmove  %rax,%rcx
    400097e9:	48 85 f6             	test   %rsi,%rsi
    400097ec:	44 8b 01             	mov    (%rcx),%r8d
    400097ef:	75 10                	jne    40009801 <mbrtowc+0x28>
    400097f1:	31 c0                	xor    %eax,%eax
    400097f3:	45 85 c0             	test   %r8d,%r8d
    400097f6:	0f 85 ec 00 00 00    	jne    400098e8 <mbrtowc+0x10f>
    400097fc:	e9 fc 00 00 00       	jmpq   400098fd <mbrtowc+0x124>
    40009801:	48 8d 44 24 0c       	lea    0xc(%rsp),%rax
    40009806:	48 85 ff             	test   %rdi,%rdi
    40009809:	48 0f 44 f8          	cmove  %rax,%rdi
    4000980d:	48 85 d2             	test   %rdx,%rdx
    40009810:	48 c7 c0 fe ff ff ff 	mov    $0xfffffffffffffffe,%rax
    40009817:	0f 84 e0 00 00 00    	je     400098fd <mbrtowc+0x124>
    4000981d:	45 85 c0             	test   %r8d,%r8d
    40009820:	75 61                	jne    40009883 <mbrtowc+0xaa>
    40009822:	0f b6 06             	movzbl (%rsi),%eax
    40009825:	84 c0                	test   %al,%al
    40009827:	78 0f                	js     40009838 <mbrtowc+0x5f>
    40009829:	85 c0                	test   %eax,%eax
    4000982b:	89 07                	mov    %eax,(%rdi)
    4000982d:	0f 95 c0             	setne  %al
    40009830:	0f b6 c0             	movzbl %al,%eax
    40009833:	e9 c5 00 00 00       	jmpq   400098fd <mbrtowc+0x124>
    40009838:	64 4c 8b 04 25 00 00 	mov    %fs:0x0,%r8
    4000983f:	00 00 
    40009841:	4d 8b 80 c8 00 00 00 	mov    0xc8(%r8),%r8
    40009848:	4d 8b 00             	mov    (%r8),%r8
    4000984b:	4d 85 c0             	test   %r8,%r8
    4000984e:	75 14                	jne    40009864 <mbrtowc+0x8b>
    40009850:	0f be c0             	movsbl %al,%eax
    40009853:	25 ff df 00 00       	and    $0xdfff,%eax
    40009858:	89 07                	mov    %eax,(%rdi)
    4000985a:	b8 01 00 00 00       	mov    $0x1,%eax
    4000985f:	e9 99 00 00 00       	jmpq   400098fd <mbrtowc+0x124>
    40009864:	2d c2 00 00 00       	sub    $0xc2,%eax
    40009869:	83 f8 32             	cmp    $0x32,%eax
    4000986c:	77 7a                	ja     400098e8 <mbrtowc+0x10f>
    4000986e:	49 89 d1             	mov    %rdx,%r9
    40009871:	44 8b 04 85 b0 13 40 	mov    0x404013b0(,%rax,4),%r8d
    40009878:	40 
    40009879:	49 ff c9             	dec    %r9
    4000987c:	74 5e                	je     400098dc <mbrtowc+0x103>
    4000987e:	48 ff c6             	inc    %rsi
    40009881:	eb 03                	jmp    40009886 <mbrtowc+0xad>
    40009883:	49 89 d1             	mov    %rdx,%r9
    40009886:	8a 06                	mov    (%rsi),%al
    40009888:	c0 e8 03             	shr    $0x3,%al
    4000988b:	44 0f b6 d0          	movzbl %al,%r10d
    4000988f:	44 89 c0             	mov    %r8d,%eax
    40009892:	c1 f8 1a             	sar    $0x1a,%eax
    40009895:	44 01 d0             	add    %r10d,%eax
    40009898:	41 83 ea 10          	sub    $0x10,%r10d
    4000989c:	44 09 d0             	or     %r10d,%eax
    4000989f:	83 e0 f8             	and    $0xfffffff8,%eax
    400098a2:	75 44                	jne    400098e8 <mbrtowc+0x10f>
    400098a4:	48 ff c6             	inc    %rsi
    400098a7:	0f b6 46 ff          	movzbl -0x1(%rsi),%eax
    400098ab:	41 c1 e0 06          	shl    $0x6,%r8d
    400098af:	49 ff c9             	dec    %r9
    400098b2:	83 c0 80             	add    $0xffffff80,%eax
    400098b5:	41 09 c0             	or     %eax,%r8d
    400098b8:	78 10                	js     400098ca <mbrtowc+0xf1>
    400098ba:	89 d0                	mov    %edx,%eax
    400098bc:	c7 01 00 00 00 00    	movl   $0x0,(%rcx)
    400098c2:	44 89 07             	mov    %r8d,(%rdi)
    400098c5:	4c 29 c8             	sub    %r9,%rax
    400098c8:	eb 33                	jmp    400098fd <mbrtowc+0x124>
    400098ca:	4d 85 c9             	test   %r9,%r9
    400098cd:	74 0d                	je     400098dc <mbrtowc+0x103>
    400098cf:	0f b6 06             	movzbl (%rsi),%eax
    400098d2:	83 c0 80             	add    $0xffffff80,%eax
    400098d5:	83 f8 3f             	cmp    $0x3f,%eax
    400098d8:	76 ca                	jbe    400098a4 <mbrtowc+0xcb>
    400098da:	eb 0c                	jmp    400098e8 <mbrtowc+0x10f>
    400098dc:	44 89 01             	mov    %r8d,(%rcx)
    400098df:	48 c7 c0 fe ff ff ff 	mov    $0xfffffffffffffffe,%rax
    400098e6:	eb 15                	jmp    400098fd <mbrtowc+0x124>
    400098e8:	c7 01 00 00 00 00    	movl   $0x0,(%rcx)
    400098ee:	e8 d0 8a ff ff       	callq  400023c3 <__tls_errno_location>
    400098f3:	c7 00 54 00 00 00    	movl   $0x54,(%rax)
    400098f9:	48 83 c8 ff          	or     $0xffffffffffffffff,%rax
    400098fd:	48 83 c4 18          	add    $0x18,%rsp
    40009901:	c3                   	retq   

0000000040009902 <mbsinit>:
    40009902:	48 85 ff             	test   %rdi,%rdi
    40009905:	74 09                	je     40009910 <mbsinit+0xe>
    40009907:	31 c0                	xor    %eax,%eax
    40009909:	83 3f 00             	cmpl   $0x0,(%rdi)
    4000990c:	0f 94 c0             	sete   %al
    4000990f:	c3                   	retq   
    40009910:	b8 01 00 00 00       	mov    $0x1,%eax
    40009915:	c3                   	retq   

0000000040009916 <wcrtomb>:
    40009916:	48 85 ff             	test   %rdi,%rdi
    40009919:	51                   	push   %rcx
    4000991a:	0f 84 ee 00 00 00    	je     40009a0e <wcrtomb+0xf8>
    40009920:	83 fe 7f             	cmp    $0x7f,%esi
    40009923:	77 08                	ja     4000992d <wcrtomb+0x17>
    40009925:	40 88 37             	mov    %sil,(%rdi)
    40009928:	e9 e1 00 00 00       	jmpq   40009a0e <wcrtomb+0xf8>
    4000992d:	64 48 8b 04 25 00 00 	mov    %fs:0x0,%rax
    40009934:	00 00 
    40009936:	48 8b 80 c8 00 00 00 	mov    0xc8(%rax),%rax
    4000993d:	48 8b 00             	mov    (%rax),%rax
    40009940:	48 85 c0             	test   %rax,%rax
    40009943:	75 10                	jne    40009955 <wcrtomb+0x3f>
    40009945:	8d 86 80 20 ff ff    	lea    -0xdf80(%rsi),%eax
    4000994b:	83 f8 7f             	cmp    $0x7f,%eax
    4000994e:	76 d5                	jbe    40009925 <wcrtomb+0xf>
    40009950:	e9 a8 00 00 00       	jmpq   400099fd <wcrtomb+0xe7>
    40009955:	81 fe ff 07 00 00    	cmp    $0x7ff,%esi
    4000995b:	77 1e                	ja     4000997b <wcrtomb+0x65>
    4000995d:	89 f0                	mov    %esi,%eax
    4000995f:	83 e6 3f             	and    $0x3f,%esi
    40009962:	c1 f8 06             	sar    $0x6,%eax
    40009965:	83 ce 80             	or     $0xffffff80,%esi
    40009968:	83 c8 c0             	or     $0xffffffc0,%eax
    4000996b:	40 88 77 01          	mov    %sil,0x1(%rdi)
    4000996f:	88 07                	mov    %al,(%rdi)
    40009971:	b8 02 00 00 00       	mov    $0x2,%eax
    40009976:	e9 98 00 00 00       	jmpq   40009a13 <wcrtomb+0xfd>
    4000997b:	8d 86 00 20 ff ff    	lea    -0xe000(%rsi),%eax
    40009981:	3d ff 1f 00 00       	cmp    $0x1fff,%eax
    40009986:	76 08                	jbe    40009990 <wcrtomb+0x7a>
    40009988:	81 fe ff d7 00 00    	cmp    $0xd7ff,%esi
    4000998e:	77 29                	ja     400099b9 <wcrtomb+0xa3>
    40009990:	89 f0                	mov    %esi,%eax
    40009992:	c1 f8 0c             	sar    $0xc,%eax
    40009995:	83 c8 e0             	or     $0xffffffe0,%eax
    40009998:	88 07                	mov    %al,(%rdi)
    4000999a:	89 f0                	mov    %esi,%eax
    4000999c:	83 e6 3f             	and    $0x3f,%esi
    4000999f:	c1 f8 06             	sar    $0x6,%eax
    400099a2:	83 ce 80             	or     $0xffffff80,%esi
    400099a5:	83 e0 3f             	and    $0x3f,%eax
    400099a8:	40 88 77 02          	mov    %sil,0x2(%rdi)
    400099ac:	83 c8 80             	or     $0xffffff80,%eax
    400099af:	88 47 01             	mov    %al,0x1(%rdi)
    400099b2:	b8 03 00 00 00       	mov    $0x3,%eax
    400099b7:	eb 5a                	jmp    40009a13 <wcrtomb+0xfd>
    400099b9:	8d 86 00 00 ff ff    	lea    -0x10000(%rsi),%eax
    400099bf:	3d ff ff 0f 00       	cmp    $0xfffff,%eax
    400099c4:	77 37                	ja     400099fd <wcrtomb+0xe7>
    400099c6:	89 f0                	mov    %esi,%eax
    400099c8:	c1 f8 12             	sar    $0x12,%eax
    400099cb:	83 c8 f0             	or     $0xfffffff0,%eax
    400099ce:	88 07                	mov    %al,(%rdi)
    400099d0:	89 f0                	mov    %esi,%eax
    400099d2:	c1 f8 0c             	sar    $0xc,%eax
    400099d5:	83 e0 3f             	and    $0x3f,%eax
    400099d8:	83 c8 80             	or     $0xffffff80,%eax
    400099db:	88 47 01             	mov    %al,0x1(%rdi)
    400099de:	89 f0                	mov    %esi,%eax
    400099e0:	83 e6 3f             	and    $0x3f,%esi
    400099e3:	c1 f8 06             	sar    $0x6,%eax
    400099e6:	83 ce 80             	or     $0xffffff80,%esi
    400099e9:	83 e0 3f             	and    $0x3f,%eax
    400099ec:	40 88 77 03          	mov    %sil,0x3(%rdi)
    400099f0:	83 c8 80             	or     $0xffffff80,%eax
    400099f3:	88 47 02             	mov    %al,0x2(%rdi)
    400099f6:	b8 04 00 00 00       	mov    $0x4,%eax
    400099fb:	eb 16                	jmp    40009a13 <wcrtomb+0xfd>
    400099fd:	e8 c1 89 ff ff       	callq  400023c3 <__tls_errno_location>
    40009a02:	c7 00 54 00 00 00    	movl   $0x54,(%rax)
    40009a08:	48 83 c8 ff          	or     $0xffffffffffffffff,%rax
    40009a0c:	eb 05                	jmp    40009a13 <wcrtomb+0xfd>
    40009a0e:	b8 01 00 00 00       	mov    $0x1,%eax
    40009a13:	5a                   	pop    %rdx
    40009a14:	c3                   	retq   

0000000040009a15 <close_file>:
    40009a15:	48 85 ff             	test   %rdi,%rdi
    40009a18:	53                   	push   %rbx
    40009a19:	48 89 fb             	mov    %rdi,%rbx
    40009a1c:	74 42                	je     40009a60 <close_file+0x4b>
    40009a1e:	8b 87 8c 00 00 00    	mov    0x8c(%rdi),%eax
    40009a24:	85 c0                	test   %eax,%eax
    40009a26:	78 05                	js     40009a2d <close_file+0x18>
    40009a28:	e8 bd cb ff ff       	callq  400065ea <__lockfile>
    40009a2d:	48 8b 43 38          	mov    0x38(%rbx),%rax
    40009a31:	48 39 43 28          	cmp    %rax,0x28(%rbx)
    40009a35:	76 0a                	jbe    40009a41 <close_file+0x2c>
    40009a37:	31 d2                	xor    %edx,%edx
    40009a39:	31 f6                	xor    %esi,%esi
    40009a3b:	48 89 df             	mov    %rbx,%rdi
    40009a3e:	ff 53 48             	callq  *0x48(%rbx)
    40009a41:	48 8b 73 08          	mov    0x8(%rbx),%rsi
    40009a45:	48 8b 43 10          	mov    0x10(%rbx),%rax
    40009a49:	48 39 c6             	cmp    %rax,%rsi
    40009a4c:	73 12                	jae    40009a60 <close_file+0x4b>
    40009a4e:	48 29 c6             	sub    %rax,%rsi
    40009a51:	48 89 df             	mov    %rbx,%rdi
    40009a54:	48 8b 43 50          	mov    0x50(%rbx),%rax
    40009a58:	5b                   	pop    %rbx
    40009a59:	ba 01 00 00 00       	mov    $0x1,%edx
    40009a5e:	ff e0                	jmpq   *%rax
    40009a60:	5b                   	pop    %rbx
    40009a61:	c3                   	retq   

0000000040009a62 <__stdio_exit>:
    40009a62:	53                   	push   %rbx
    40009a63:	e8 7a a5 ff ff       	callq  40003fe2 <__ofl_lock>
    40009a68:	48 8b 18             	mov    (%rax),%rbx
    40009a6b:	48 85 db             	test   %rbx,%rbx
    40009a6e:	74 0e                	je     40009a7e <__stdio_exit+0x1c>
    40009a70:	48 89 df             	mov    %rbx,%rdi
    40009a73:	e8 9d ff ff ff       	callq  40009a15 <close_file>
    40009a78:	48 8b 5b 70          	mov    0x70(%rbx),%rbx
    40009a7c:	eb ed                	jmp    40009a6b <__stdio_exit+0x9>
    40009a7e:	48 8b 3d 3b bb 3f 00 	mov    0x3fbb3b(%rip),%rdi        # 404055c0 <__stdin_used>
    40009a85:	e8 8b ff ff ff       	callq  40009a15 <close_file>
    40009a8a:	5b                   	pop    %rbx
    40009a8b:	48 8b 3d 86 83 3f 00 	mov    0x3f8386(%rip),%rdi        # 40401e18 <__stdout_used>
    40009a92:	e9 7e ff ff ff       	jmpq   40009a15 <close_file>

0000000040009a97 <__toread>:
    40009a97:	53                   	push   %rbx
    40009a98:	8a 97 8a 00 00 00    	mov    0x8a(%rdi),%dl
    40009a9e:	48 89 fb             	mov    %rdi,%rbx
    40009aa1:	8d 42 ff             	lea    -0x1(%rdx),%eax
    40009aa4:	09 d0                	or     %edx,%eax
    40009aa6:	88 87 8a 00 00 00    	mov    %al,0x8a(%rdi)
    40009aac:	48 8b 47 38          	mov    0x38(%rdi),%rax
    40009ab0:	48 39 47 28          	cmp    %rax,0x28(%rdi)
    40009ab4:	76 07                	jbe    40009abd <__toread+0x26>
    40009ab6:	31 d2                	xor    %edx,%edx
    40009ab8:	31 f6                	xor    %esi,%esi
    40009aba:	ff 53 48             	callq  *0x48(%rbx)
    40009abd:	8b 03                	mov    (%rbx),%eax
    40009abf:	48 c7 43 20 00 00 00 	movq   $0x0,0x20(%rbx)
    40009ac6:	00 
    40009ac7:	48 c7 43 38 00 00 00 	movq   $0x0,0x38(%rbx)
    40009ace:	00 
    40009acf:	48 c7 43 28 00 00 00 	movq   $0x0,0x28(%rbx)
    40009ad6:	00 
    40009ad7:	a8 04                	test   $0x4,%al
    40009ad9:	74 0a                	je     40009ae5 <__toread+0x4e>
    40009adb:	83 c8 20             	or     $0x20,%eax
    40009ade:	89 03                	mov    %eax,(%rbx)
    40009ae0:	83 c8 ff             	or     $0xffffffff,%eax
    40009ae3:	eb 16                	jmp    40009afb <__toread+0x64>
    40009ae5:	48 8b 53 58          	mov    0x58(%rbx),%rdx
    40009ae9:	48 03 53 60          	add    0x60(%rbx),%rdx
    40009aed:	c1 e0 1b             	shl    $0x1b,%eax
    40009af0:	c1 f8 1f             	sar    $0x1f,%eax
    40009af3:	48 89 53 10          	mov    %rdx,0x10(%rbx)
    40009af7:	48 89 53 08          	mov    %rdx,0x8(%rbx)
    40009afb:	5b                   	pop    %rbx
    40009afc:	c3                   	retq   

0000000040009afd <__toread_needs_stdio_exit>:
    40009afd:	e9 60 ff ff ff       	jmpq   40009a62 <__stdio_exit>

0000000040009b02 <pthread_create>:
    40009b02:	55                   	push   %rbp
    40009b03:	48 89 e5             	mov    %rsp,%rbp
    40009b06:	48 83 ec 30          	sub    $0x30,%rsp
    40009b0a:	48 89 7d e8          	mov    %rdi,-0x18(%rbp)
    40009b0e:	48 89 75 e0          	mov    %rsi,-0x20(%rbp)
    40009b12:	48 89 55 d8          	mov    %rdx,-0x28(%rbp)
    40009b16:	48 89 4d d0          	mov    %rcx,-0x30(%rbp)
    40009b1a:	e8 f4 88 ff ff       	callq  40002413 <__tls_outside_buffer>
    40009b1f:	48 8b 00             	mov    (%rax),%rax
    40009b22:	48 89 45 f8          	mov    %rax,-0x8(%rbp)
    40009b26:	48 8b 45 f8          	mov    -0x8(%rbp),%rax
    40009b2a:	48 c7 00 08 00 00 00 	movq   $0x8,(%rax)
    40009b31:	48 8b 45 f8          	mov    -0x8(%rbp),%rax
    40009b35:	48 83 c0 08          	add    $0x8,%rax
    40009b39:	48 c7 00 00 00 00 00 	movq   $0x0,(%rax)
    40009b40:	48 8b 45 f8          	mov    -0x8(%rbp),%rax
    40009b44:	48 8d 50 10          	lea    0x10(%rax),%rdx
    40009b48:	48 8b 45 d8          	mov    -0x28(%rbp),%rax
    40009b4c:	48 89 02             	mov    %rax,(%rdx)
    40009b4f:	48 8b 45 f8          	mov    -0x8(%rbp),%rax
    40009b53:	48 8d 50 18          	lea    0x18(%rax),%rdx
    40009b57:	48 8b 45 d0          	mov    -0x30(%rbp),%rax
    40009b5b:	48 89 02             	mov    %rax,(%rdx)
    40009b5e:	b8 00 00 00 00       	mov    $0x0,%eax
    40009b63:	e8 5a 65 ff ff       	callq  400000c2 <ocall_syscall>
    40009b68:	48 8b 45 f8          	mov    -0x8(%rbp),%rax
    40009b6c:	48 8b 00             	mov    (%rax),%rax
    40009b6f:	48 89 45 f0          	mov    %rax,-0x10(%rbp)
    40009b73:	48 8b 45 f8          	mov    -0x8(%rbp),%rax
    40009b77:	48 83 c0 08          	add    $0x8,%rax
    40009b7b:	48 8b 00             	mov    (%rax),%rax
    40009b7e:	48 89 c2             	mov    %rax,%rdx
    40009b81:	48 8b 45 e8          	mov    -0x18(%rbp),%rax
    40009b85:	48 89 10             	mov    %rdx,(%rax)
    40009b88:	48 8b 45 f0          	mov    -0x10(%rbp),%rax
    40009b8c:	c9                   	leaveq 
    40009b8d:	c3                   	retq   

0000000040009b8e <pthread_join>:
    40009b8e:	55                   	push   %rbp
    40009b8f:	48 89 e5             	mov    %rsp,%rbp
    40009b92:	48 83 ec 20          	sub    $0x20,%rsp
    40009b96:	48 89 7d e8          	mov    %rdi,-0x18(%rbp)
    40009b9a:	48 89 75 e0          	mov    %rsi,-0x20(%rbp)
    40009b9e:	e8 70 88 ff ff       	callq  40002413 <__tls_outside_buffer>
    40009ba3:	48 8b 00             	mov    (%rax),%rax
    40009ba6:	48 89 45 f8          	mov    %rax,-0x8(%rbp)
    40009baa:	48 8b 45 f8          	mov    -0x8(%rbp),%rax
    40009bae:	48 c7 00 08 00 00 00 	movq   $0x8,(%rax)
    40009bb5:	48 8b 45 f8          	mov    -0x8(%rbp),%rax
    40009bb9:	48 83 c0 08          	add    $0x8,%rax
    40009bbd:	48 c7 00 01 00 00 00 	movq   $0x1,(%rax)
    40009bc4:	48 8b 45 f8          	mov    -0x8(%rbp),%rax
    40009bc8:	48 8d 50 10          	lea    0x10(%rax),%rdx
    40009bcc:	48 8b 45 e8          	mov    -0x18(%rbp),%rax
    40009bd0:	48 89 02             	mov    %rax,(%rdx)
    40009bd3:	b8 00 00 00 00       	mov    $0x0,%eax
    40009bd8:	e8 e5 64 ff ff       	callq  400000c2 <ocall_syscall>
    40009bdd:	48 8b 45 f8          	mov    -0x8(%rbp),%rax
    40009be1:	48 8b 00             	mov    (%rax),%rax
    40009be4:	48 89 45 f0          	mov    %rax,-0x10(%rbp)
    40009be8:	48 8b 45 f0          	mov    -0x10(%rbp),%rax
    40009bec:	c9                   	leaveq 
    40009bed:	c3                   	retq   

0000000040009bee <ocall_debug>:
    40009bee:	55                   	push   %rbp
    40009bef:	48 89 e5             	mov    %rsp,%rbp
    40009bf2:	48 83 ec 20          	sub    $0x20,%rsp
    40009bf6:	48 89 7d e8          	mov    %rdi,-0x18(%rbp)
    40009bfa:	e8 14 88 ff ff       	callq  40002413 <__tls_outside_buffer>
    40009bff:	48 8b 00             	mov    (%rax),%rax
    40009c02:	48 89 45 f8          	mov    %rax,-0x8(%rbp)
    40009c06:	48 8b 45 f8          	mov    -0x8(%rbp),%rax
    40009c0a:	48 c7 00 07 00 00 00 	movq   $0x7,(%rax)
    40009c11:	48 8b 45 f8          	mov    -0x8(%rbp),%rax
    40009c15:	48 8d 50 08          	lea    0x8(%rax),%rdx
    40009c19:	48 8b 45 e8          	mov    -0x18(%rbp),%rax
    40009c1d:	48 89 02             	mov    %rax,(%rdx)
    40009c20:	b8 00 00 00 00       	mov    $0x0,%eax
    40009c25:	e8 98 64 ff ff       	callq  400000c2 <ocall_syscall>
    40009c2a:	90                   	nop
    40009c2b:	c9                   	leaveq 
    40009c2c:	c3                   	retq   

0000000040009c2d <ocall_syscall0>:
    40009c2d:	55                   	push   %rbp
    40009c2e:	48 89 e5             	mov    %rsp,%rbp
    40009c31:	48 83 ec 20          	sub    $0x20,%rsp
    40009c35:	48 89 7d e8          	mov    %rdi,-0x18(%rbp)
    40009c39:	e8 d5 87 ff ff       	callq  40002413 <__tls_outside_buffer>
    40009c3e:	48 8b 00             	mov    (%rax),%rax
    40009c41:	48 89 45 f8          	mov    %rax,-0x8(%rbp)
    40009c45:	48 8b 45 f8          	mov    -0x8(%rbp),%rax
    40009c49:	48 c7 00 00 00 00 00 	movq   $0x0,(%rax)
    40009c50:	48 8b 45 f8          	mov    -0x8(%rbp),%rax
    40009c54:	48 8d 50 08          	lea    0x8(%rax),%rdx
    40009c58:	48 8b 45 e8          	mov    -0x18(%rbp),%rax
    40009c5c:	48 89 02             	mov    %rax,(%rdx)
    40009c5f:	b8 00 00 00 00       	mov    $0x0,%eax
    40009c64:	e8 59 64 ff ff       	callq  400000c2 <ocall_syscall>
    40009c69:	48 8b 45 f8          	mov    -0x8(%rbp),%rax
    40009c6d:	48 8b 00             	mov    (%rax),%rax
    40009c70:	48 89 45 f0          	mov    %rax,-0x10(%rbp)
    40009c74:	48 8b 45 f0          	mov    -0x10(%rbp),%rax
    40009c78:	c9                   	leaveq 
    40009c79:	c3                   	retq   

0000000040009c7a <ocall_syscall1>:
    40009c7a:	55                   	push   %rbp
    40009c7b:	48 89 e5             	mov    %rsp,%rbp
    40009c7e:	48 83 ec 30          	sub    $0x30,%rsp
    40009c82:	48 89 7d d8          	mov    %rdi,-0x28(%rbp)
    40009c86:	48 89 75 d0          	mov    %rsi,-0x30(%rbp)
    40009c8a:	48 83 7d d8 0c       	cmpq   $0xc,-0x28(%rbp)
    40009c8f:	75 49                	jne    40009cda <ocall_syscall1+0x60>
    40009c91:	48 83 7d d0 00       	cmpq   $0x0,-0x30(%rbp)
    40009c96:	75 0c                	jne    40009ca4 <ocall_syscall1+0x2a>
    40009c98:	48 8b 05 59 80 3f 00 	mov    0x3f8059(%rip),%rax        # 40401cf8 <__fini_array_end>
    40009c9f:	e9 24 01 00 00       	jmpq   40009dc8 <ocall_syscall1+0x14e>
    40009ca4:	48 8b 45 d0          	mov    -0x30(%rbp),%rax
    40009ca8:	48 8b 15 49 80 3f 00 	mov    0x3f8049(%rip),%rdx        # 40401cf8 <__fini_array_end>
    40009caf:	48 81 c2 00 00 00 08 	add    $0x8000000,%rdx
    40009cb6:	48 39 d0             	cmp    %rdx,%rax
    40009cb9:	77 09                	ja     40009cc4 <ocall_syscall1+0x4a>
    40009cbb:	48 8b 45 d0          	mov    -0x30(%rbp),%rax
    40009cbf:	e9 04 01 00 00       	jmpq   40009dc8 <ocall_syscall1+0x14e>
    40009cc4:	bf ef be ad de       	mov    $0xdeadbeef,%edi
    40009cc9:	e8 20 ff ff ff       	callq  40009bee <ocall_debug>
    40009cce:	48 c7 c0 f4 ff ff ff 	mov    $0xfffffffffffffff4,%rax
    40009cd5:	e9 ee 00 00 00       	jmpq   40009dc8 <ocall_syscall1+0x14e>
    40009cda:	e8 34 87 ff ff       	callq  40002413 <__tls_outside_buffer>
    40009cdf:	48 8b 00             	mov    (%rax),%rax
    40009ce2:	48 89 45 f0          	mov    %rax,-0x10(%rbp)
    40009ce6:	48 8b 45 f0          	mov    -0x10(%rbp),%rax
    40009cea:	48 c7 00 01 00 00 00 	movq   $0x1,(%rax)
    40009cf1:	48 8b 45 f0          	mov    -0x10(%rbp),%rax
    40009cf5:	48 8d 50 08          	lea    0x8(%rax),%rdx
    40009cf9:	48 8b 45 d8          	mov    -0x28(%rbp),%rax
    40009cfd:	48 89 02             	mov    %rax,(%rdx)
    40009d00:	48 8b 45 f0          	mov    -0x10(%rbp),%rax
    40009d04:	48 8d 50 10          	lea    0x10(%rax),%rdx
    40009d08:	48 8b 45 d0          	mov    -0x30(%rbp),%rax
    40009d0c:	48 89 02             	mov    %rax,(%rdx)
    40009d0f:	48 83 7d d8 16       	cmpq   $0x16,-0x28(%rbp)
    40009d14:	75 2f                	jne    40009d45 <ocall_syscall1+0xcb>
    40009d16:	e8 f8 86 ff ff       	callq  40002413 <__tls_outside_buffer>
    40009d1b:	48 8b 00             	mov    (%rax),%rax
    40009d1e:	48 05 00 10 00 00    	add    $0x1000,%rax
    40009d24:	48 89 45 f8          	mov    %rax,-0x8(%rbp)
    40009d28:	48 8b 45 f0          	mov    -0x10(%rbp),%rax
    40009d2c:	48 8d 50 10          	lea    0x10(%rax),%rdx
    40009d30:	48 8b 45 f8          	mov    -0x8(%rbp),%rax
    40009d34:	48 89 02             	mov    %rax,(%rdx)
    40009d37:	48 8b 45 d0          	mov    -0x30(%rbp),%rax
    40009d3b:	48 8b 10             	mov    (%rax),%rdx
    40009d3e:	48 8b 45 f8          	mov    -0x8(%rbp),%rax
    40009d42:	48 89 10             	mov    %rdx,(%rax)
    40009d45:	48 81 7d d8 da 00 00 	cmpq   $0xda,-0x28(%rbp)
    40009d4c:	00 
    40009d4d:	75 21                	jne    40009d70 <ocall_syscall1+0xf6>
    40009d4f:	e8 bf 86 ff ff       	callq  40002413 <__tls_outside_buffer>
    40009d54:	48 8b 00             	mov    (%rax),%rax
    40009d57:	48 05 00 10 00 00    	add    $0x1000,%rax
    40009d5d:	48 89 45 f8          	mov    %rax,-0x8(%rbp)
    40009d61:	48 8b 45 f0          	mov    -0x10(%rbp),%rax
    40009d65:	48 8d 50 10          	lea    0x10(%rax),%rdx
    40009d69:	48 8b 45 f8          	mov    -0x8(%rbp),%rax
    40009d6d:	48 89 02             	mov    %rax,(%rdx)
    40009d70:	b8 00 00 00 00       	mov    $0x0,%eax
    40009d75:	e8 48 63 ff ff       	callq  400000c2 <ocall_syscall>
    40009d7a:	48 83 7d d8 16       	cmpq   $0x16,-0x28(%rbp)
    40009d7f:	75 20                	jne    40009da1 <ocall_syscall1+0x127>
    40009d81:	e8 8d 86 ff ff       	callq  40002413 <__tls_outside_buffer>
    40009d86:	48 8b 00             	mov    (%rax),%rax
    40009d89:	48 05 00 10 00 00    	add    $0x1000,%rax
    40009d8f:	48 89 45 f8          	mov    %rax,-0x8(%rbp)
    40009d93:	48 8b 45 d0          	mov    -0x30(%rbp),%rax
    40009d97:	48 8b 55 f8          	mov    -0x8(%rbp),%rdx
    40009d9b:	48 8b 12             	mov    (%rdx),%rdx
    40009d9e:	48 89 10             	mov    %rdx,(%rax)
    40009da1:	48 81 7d d8 da 00 00 	cmpq   $0xda,-0x28(%rbp)
    40009da8:	00 
    40009da9:	75 0e                	jne    40009db9 <ocall_syscall1+0x13f>
    40009dab:	48 8b 45 d0          	mov    -0x30(%rbp),%rax
    40009daf:	48 8b 55 f8          	mov    -0x8(%rbp),%rdx
    40009db3:	48 8b 12             	mov    (%rdx),%rdx
    40009db6:	48 89 10             	mov    %rdx,(%rax)
    40009db9:	48 8b 45 f0          	mov    -0x10(%rbp),%rax
    40009dbd:	48 8b 00             	mov    (%rax),%rax
    40009dc0:	48 89 45 e8          	mov    %rax,-0x18(%rbp)
    40009dc4:	48 8b 45 e8          	mov    -0x18(%rbp),%rax
    40009dc8:	c9                   	leaveq 
    40009dc9:	c3                   	retq   

0000000040009dca <ocall_syscall2>:
    40009dca:	55                   	push   %rbp
    40009dcb:	48 89 e5             	mov    %rsp,%rbp
    40009dce:	53                   	push   %rbx
    40009dcf:	48 83 ec 58          	sub    $0x58,%rsp
    40009dd3:	48 89 7d b8          	mov    %rdi,-0x48(%rbp)
    40009dd7:	48 89 75 b0          	mov    %rsi,-0x50(%rbp)
    40009ddb:	48 89 55 a8          	mov    %rdx,-0x58(%rbp)
    40009ddf:	e8 2f 86 ff ff       	callq  40002413 <__tls_outside_buffer>
    40009de4:	48 8b 00             	mov    (%rax),%rax
    40009de7:	48 89 45 d8          	mov    %rax,-0x28(%rbp)
    40009deb:	48 8b 45 d8          	mov    -0x28(%rbp),%rax
    40009def:	48 c7 00 02 00 00 00 	movq   $0x2,(%rax)
    40009df6:	48 8b 45 d8          	mov    -0x28(%rbp),%rax
    40009dfa:	48 8d 50 08          	lea    0x8(%rax),%rdx
    40009dfe:	48 8b 45 b8          	mov    -0x48(%rbp),%rax
    40009e02:	48 89 02             	mov    %rax,(%rdx)
    40009e05:	48 8b 45 d8          	mov    -0x28(%rbp),%rax
    40009e09:	48 8d 50 10          	lea    0x10(%rax),%rdx
    40009e0d:	48 8b 45 b0          	mov    -0x50(%rbp),%rax
    40009e11:	48 89 02             	mov    %rax,(%rdx)
    40009e14:	48 8b 45 d8          	mov    -0x28(%rbp),%rax
    40009e18:	48 8d 50 18          	lea    0x18(%rax),%rdx
    40009e1c:	48 8b 45 a8          	mov    -0x58(%rbp),%rax
    40009e20:	48 89 02             	mov    %rax,(%rdx)
    40009e23:	48 83 7d b8 23       	cmpq   $0x23,-0x48(%rbp)
    40009e28:	0f 85 85 00 00 00    	jne    40009eb3 <ocall_syscall2+0xe9>
    40009e2e:	48 8b 45 b0          	mov    -0x50(%rbp),%rax
    40009e32:	48 89 45 d0          	mov    %rax,-0x30(%rbp)
    40009e36:	e8 d8 85 ff ff       	callq  40002413 <__tls_outside_buffer>
    40009e3b:	48 8b 00             	mov    (%rax),%rax
    40009e3e:	48 05 00 10 00 00    	add    $0x1000,%rax
    40009e44:	48 89 45 e8          	mov    %rax,-0x18(%rbp)
    40009e48:	48 8b 45 d8          	mov    -0x28(%rbp),%rax
    40009e4c:	48 8d 50 10          	lea    0x10(%rax),%rdx
    40009e50:	48 8b 45 e8          	mov    -0x18(%rbp),%rax
    40009e54:	48 89 02             	mov    %rax,(%rdx)
    40009e57:	48 8b 45 d0          	mov    -0x30(%rbp),%rax
    40009e5b:	48 8b 50 08          	mov    0x8(%rax),%rdx
    40009e5f:	48 8b 00             	mov    (%rax),%rax
    40009e62:	48 8b 4d e8          	mov    -0x18(%rbp),%rcx
    40009e66:	48 89 01             	mov    %rax,(%rcx)
    40009e69:	48 89 51 08          	mov    %rdx,0x8(%rcx)
    40009e6d:	48 83 7d a8 00       	cmpq   $0x0,-0x58(%rbp)
    40009e72:	74 3f                	je     40009eb3 <ocall_syscall2+0xe9>
    40009e74:	48 8b 45 a8          	mov    -0x58(%rbp),%rax
    40009e78:	48 89 45 d0          	mov    %rax,-0x30(%rbp)
    40009e7c:	e8 92 85 ff ff       	callq  40002413 <__tls_outside_buffer>
    40009e81:	48 8b 00             	mov    (%rax),%rax
    40009e84:	48 05 10 10 00 00    	add    $0x1010,%rax
    40009e8a:	48 89 45 e8          	mov    %rax,-0x18(%rbp)
    40009e8e:	48 8b 45 d8          	mov    -0x28(%rbp),%rax
    40009e92:	48 8d 50 18          	lea    0x18(%rax),%rdx
    40009e96:	48 8b 45 e8          	mov    -0x18(%rbp),%rax
    40009e9a:	48 89 02             	mov    %rax,(%rdx)
    40009e9d:	48 8b 45 d0          	mov    -0x30(%rbp),%rax
    40009ea1:	48 8b 50 08          	mov    0x8(%rax),%rdx
    40009ea5:	48 8b 00             	mov    (%rax),%rax
    40009ea8:	48 8b 4d e8          	mov    -0x18(%rbp),%rcx
    40009eac:	48 89 01             	mov    %rax,(%rcx)
    40009eaf:	48 89 51 08          	mov    %rdx,0x8(%rcx)
    40009eb3:	48 81 7d b8 e4 00 00 	cmpq   $0xe4,-0x48(%rbp)
    40009eba:	00 
    40009ebb:	75 21                	jne    40009ede <ocall_syscall2+0x114>
    40009ebd:	e8 51 85 ff ff       	callq  40002413 <__tls_outside_buffer>
    40009ec2:	48 8b 00             	mov    (%rax),%rax
    40009ec5:	48 05 00 10 00 00    	add    $0x1000,%rax
    40009ecb:	48 89 45 e8          	mov    %rax,-0x18(%rbp)
    40009ecf:	48 8b 45 d8          	mov    -0x28(%rbp),%rax
    40009ed3:	48 8d 50 18          	lea    0x18(%rax),%rdx
    40009ed7:	48 8b 45 e8          	mov    -0x18(%rbp),%rax
    40009edb:	48 89 02             	mov    %rax,(%rdx)
    40009ede:	48 81 7d b8 9e 00 00 	cmpq   $0x9e,-0x48(%rbp)
    40009ee5:	00 
    40009ee6:	75 0c                	jne    40009ef4 <ocall_syscall2+0x12a>
    40009ee8:	bf ef be ad de       	mov    $0xdeadbeef,%edi
    40009eed:	e8 fc fc ff ff       	callq  40009bee <ocall_debug>
    40009ef2:	0f 31                	rdtsc  
    40009ef4:	48 83 7d b8 04       	cmpq   $0x4,-0x48(%rbp)
    40009ef9:	0f 85 86 00 00 00    	jne    40009f85 <ocall_syscall2+0x1bb>
    40009eff:	48 8b 45 b0          	mov    -0x50(%rbp),%rax
    40009f03:	48 89 c7             	mov    %rax,%rdi
    40009f06:	e8 b5 bf ff ff       	callq  40005ec0 <strlen>
    40009f0b:	83 c0 01             	add    $0x1,%eax
    40009f0e:	89 45 e4             	mov    %eax,-0x1c(%rbp)
    40009f11:	48 8b 45 b0          	mov    -0x50(%rbp),%rax
    40009f15:	48 89 45 d0          	mov    %rax,-0x30(%rbp)
    40009f19:	e8 f5 84 ff ff       	callq  40002413 <__tls_outside_buffer>
    40009f1e:	48 8b 00             	mov    (%rax),%rax
    40009f21:	48 05 00 10 00 00    	add    $0x1000,%rax
    40009f27:	48 89 45 e8          	mov    %rax,-0x18(%rbp)
    40009f2b:	48 8b 45 d8          	mov    -0x28(%rbp),%rax
    40009f2f:	48 8d 50 10          	lea    0x10(%rax),%rdx
    40009f33:	48 8b 45 e8          	mov    -0x18(%rbp),%rax
    40009f37:	48 89 02             	mov    %rax,(%rdx)
    40009f3a:	8b 45 e4             	mov    -0x1c(%rbp),%eax
    40009f3d:	48 63 d0             	movslq %eax,%rdx
    40009f40:	48 8b 4d d0          	mov    -0x30(%rbp),%rcx
    40009f44:	48 8b 45 e8          	mov    -0x18(%rbp),%rax
    40009f48:	48 89 ce             	mov    %rcx,%rsi
    40009f4b:	48 89 c7             	mov    %rax,%rdi
    40009f4e:	e8 1a c0 ff ff       	callq  40005f6d <memcpy>
    40009f53:	48 8b 45 a8          	mov    -0x58(%rbp),%rax
    40009f57:	48 89 45 d0          	mov    %rax,-0x30(%rbp)
    40009f5b:	8b 45 e4             	mov    -0x1c(%rbp),%eax
    40009f5e:	48 63 d8             	movslq %eax,%rbx
    40009f61:	e8 ad 84 ff ff       	callq  40002413 <__tls_outside_buffer>
    40009f66:	48 8b 00             	mov    (%rax),%rax
    40009f69:	48 01 d8             	add    %rbx,%rax
    40009f6c:	48 05 00 10 00 00    	add    $0x1000,%rax
    40009f72:	48 89 45 e8          	mov    %rax,-0x18(%rbp)
    40009f76:	48 8b 45 d8          	mov    -0x28(%rbp),%rax
    40009f7a:	48 8d 50 18          	lea    0x18(%rax),%rdx
    40009f7e:	48 8b 45 e8          	mov    -0x18(%rbp),%rax
    40009f82:	48 89 02             	mov    %rax,(%rdx)
    40009f85:	48 83 7d b8 05       	cmpq   $0x5,-0x48(%rbp)
    40009f8a:	75 21                	jne    40009fad <ocall_syscall2+0x1e3>
    40009f8c:	e8 82 84 ff ff       	callq  40002413 <__tls_outside_buffer>
    40009f91:	48 8b 00             	mov    (%rax),%rax
    40009f94:	48 05 00 10 00 00    	add    $0x1000,%rax
    40009f9a:	48 89 45 e8          	mov    %rax,-0x18(%rbp)
    40009f9e:	48 8b 45 d8          	mov    -0x28(%rbp),%rax
    40009fa2:	48 8d 50 18          	lea    0x18(%rax),%rdx
    40009fa6:	48 8b 45 e8          	mov    -0x18(%rbp),%rax
    40009faa:	48 89 02             	mov    %rax,(%rdx)
    40009fad:	b8 00 00 00 00       	mov    $0x0,%eax
    40009fb2:	e8 0b 61 ff ff       	callq  400000c2 <ocall_syscall>
    40009fb7:	48 83 7d b8 23       	cmpq   $0x23,-0x48(%rbp)
    40009fbc:	75 37                	jne    40009ff5 <ocall_syscall2+0x22b>
    40009fbe:	48 83 7d a8 00       	cmpq   $0x0,-0x58(%rbp)
    40009fc3:	74 30                	je     40009ff5 <ocall_syscall2+0x22b>
    40009fc5:	48 8b 45 a8          	mov    -0x58(%rbp),%rax
    40009fc9:	48 89 45 d0          	mov    %rax,-0x30(%rbp)
    40009fcd:	e8 41 84 ff ff       	callq  40002413 <__tls_outside_buffer>
    40009fd2:	48 8b 00             	mov    (%rax),%rax
    40009fd5:	48 05 10 10 00 00    	add    $0x1010,%rax
    40009fdb:	48 89 45 e8          	mov    %rax,-0x18(%rbp)
    40009fdf:	48 8b 45 e8          	mov    -0x18(%rbp),%rax
    40009fe3:	48 8b 50 08          	mov    0x8(%rax),%rdx
    40009fe7:	48 8b 00             	mov    (%rax),%rax
    40009fea:	48 8b 4d d0          	mov    -0x30(%rbp),%rcx
    40009fee:	48 89 01             	mov    %rax,(%rcx)
    40009ff1:	48 89 51 08          	mov    %rdx,0x8(%rcx)
    40009ff5:	48 83 7d b8 04       	cmpq   $0x4,-0x48(%rbp)
    40009ffa:	75 3b                	jne    4000a037 <ocall_syscall2+0x26d>
    40009ffc:	48 8b 45 a8          	mov    -0x58(%rbp),%rax
    4000a000:	48 89 45 d0          	mov    %rax,-0x30(%rbp)
    4000a004:	8b 45 e4             	mov    -0x1c(%rbp),%eax
    4000a007:	48 63 d8             	movslq %eax,%rbx
    4000a00a:	e8 04 84 ff ff       	callq  40002413 <__tls_outside_buffer>
    4000a00f:	48 8b 00             	mov    (%rax),%rax
    4000a012:	48 01 d8             	add    %rbx,%rax
    4000a015:	48 05 00 10 00 00    	add    $0x1000,%rax
    4000a01b:	48 89 45 e8          	mov    %rax,-0x18(%rbp)
    4000a01f:	48 8b 4d e8          	mov    -0x18(%rbp),%rcx
    4000a023:	48 8b 45 d0          	mov    -0x30(%rbp),%rax
    4000a027:	ba 90 00 00 00       	mov    $0x90,%edx
    4000a02c:	48 89 ce             	mov    %rcx,%rsi
    4000a02f:	48 89 c7             	mov    %rax,%rdi
    4000a032:	e8 36 bf ff ff       	callq  40005f6d <memcpy>
    4000a037:	48 83 7d b8 05       	cmpq   $0x5,-0x48(%rbp)
    4000a03c:	75 32                	jne    4000a070 <ocall_syscall2+0x2a6>
    4000a03e:	48 8b 45 a8          	mov    -0x58(%rbp),%rax
    4000a042:	48 89 45 d0          	mov    %rax,-0x30(%rbp)
    4000a046:	e8 c8 83 ff ff       	callq  40002413 <__tls_outside_buffer>
    4000a04b:	48 8b 00             	mov    (%rax),%rax
    4000a04e:	48 05 00 10 00 00    	add    $0x1000,%rax
    4000a054:	48 89 45 e8          	mov    %rax,-0x18(%rbp)
    4000a058:	48 8b 4d e8          	mov    -0x18(%rbp),%rcx
    4000a05c:	48 8b 45 d0          	mov    -0x30(%rbp),%rax
    4000a060:	ba 90 00 00 00       	mov    $0x90,%edx
    4000a065:	48 89 ce             	mov    %rcx,%rsi
    4000a068:	48 89 c7             	mov    %rax,%rdi
    4000a06b:	e8 fd be ff ff       	callq  40005f6d <memcpy>
    4000a070:	48 81 7d b8 e4 00 00 	cmpq   $0xe4,-0x48(%rbp)
    4000a077:	00 
    4000a078:	75 16                	jne    4000a090 <ocall_syscall2+0x2c6>
    4000a07a:	48 8b 4d a8          	mov    -0x58(%rbp),%rcx
    4000a07e:	48 8b 45 e8          	mov    -0x18(%rbp),%rax
    4000a082:	48 8b 50 08          	mov    0x8(%rax),%rdx
    4000a086:	48 8b 00             	mov    (%rax),%rax
    4000a089:	48 89 01             	mov    %rax,(%rcx)
    4000a08c:	48 89 51 08          	mov    %rdx,0x8(%rcx)
    4000a090:	48 8b 45 d8          	mov    -0x28(%rbp),%rax
    4000a094:	48 8b 00             	mov    (%rax),%rax
    4000a097:	48 89 45 c8          	mov    %rax,-0x38(%rbp)
    4000a09b:	e8 23 83 ff ff       	callq  400023c3 <__tls_errno_location>
    4000a0a0:	48 89 c2             	mov    %rax,%rdx
    4000a0a3:	48 8b 45 c8          	mov    -0x38(%rbp),%rax
    4000a0a7:	f7 d8                	neg    %eax
    4000a0a9:	89 02                	mov    %eax,(%rdx)
    4000a0ab:	48 8b 45 c8          	mov    -0x38(%rbp),%rax
    4000a0af:	48 83 c4 58          	add    $0x58,%rsp
    4000a0b3:	5b                   	pop    %rbx
    4000a0b4:	5d                   	pop    %rbp
    4000a0b5:	c3                   	retq   

000000004000a0b6 <check_fs>:
    4000a0b6:	55                   	push   %rbp
    4000a0b7:	48 89 e5             	mov    %rsp,%rbp
    4000a0ba:	64 48 8b 04 25 00 00 	mov    %fs:0x0,%rax
    4000a0c1:	00 00 
    4000a0c3:	48 89 45 f8          	mov    %rax,-0x8(%rbp)
    4000a0c7:	48 8b 45 f8          	mov    -0x8(%rbp),%rax
    4000a0cb:	48 8b 10             	mov    (%rax),%rdx
    4000a0ce:	48 8b 45 f8          	mov    -0x8(%rbp),%rax
    4000a0d2:	48 39 c2             	cmp    %rax,%rdx
    4000a0d5:	74 02                	je     4000a0d9 <check_fs+0x23>
    4000a0d7:	eb fe                	jmp    4000a0d7 <check_fs+0x21>
    4000a0d9:	48 8b 45 f8          	mov    -0x8(%rbp),%rax
    4000a0dd:	48 3d ff 5f ff 1b    	cmp    $0x1bff5fff,%rax
    4000a0e3:	76 0c                	jbe    4000a0f1 <check_fs+0x3b>
    4000a0e5:	48 8b 45 f8          	mov    -0x8(%rbp),%rax
    4000a0e9:	48 3d 00 00 00 1c    	cmp    $0x1c000000,%rax
    4000a0ef:	76 02                	jbe    4000a0f3 <check_fs+0x3d>
    4000a0f1:	eb fe                	jmp    4000a0f1 <check_fs+0x3b>
    4000a0f3:	90                   	nop
    4000a0f4:	5d                   	pop    %rbp
    4000a0f5:	c3                   	retq   

000000004000a0f6 <ocall_syscall3>:
    4000a0f6:	55                   	push   %rbp
    4000a0f7:	48 89 e5             	mov    %rsp,%rbp
    4000a0fa:	48 83 c4 80          	add    $0xffffffffffffff80,%rsp
    4000a0fe:	48 89 7d 98          	mov    %rdi,-0x68(%rbp)
    4000a102:	48 89 75 90          	mov    %rsi,-0x70(%rbp)
    4000a106:	48 89 55 88          	mov    %rdx,-0x78(%rbp)
    4000a10a:	48 89 4d 80          	mov    %rcx,-0x80(%rbp)
    4000a10e:	e8 00 83 ff ff       	callq  40002413 <__tls_outside_buffer>
    4000a113:	48 8b 00             	mov    (%rax),%rax
    4000a116:	48 89 45 d0          	mov    %rax,-0x30(%rbp)
    4000a11a:	48 8b 45 d0          	mov    -0x30(%rbp),%rax
    4000a11e:	48 c7 00 03 00 00 00 	movq   $0x3,(%rax)
    4000a125:	48 8b 45 d0          	mov    -0x30(%rbp),%rax
    4000a129:	48 8d 50 08          	lea    0x8(%rax),%rdx
    4000a12d:	48 8b 45 98          	mov    -0x68(%rbp),%rax
    4000a131:	48 89 02             	mov    %rax,(%rdx)
    4000a134:	48 8b 45 d0          	mov    -0x30(%rbp),%rax
    4000a138:	48 8d 50 10          	lea    0x10(%rax),%rdx
    4000a13c:	48 8b 45 90          	mov    -0x70(%rbp),%rax
    4000a140:	48 89 02             	mov    %rax,(%rdx)
    4000a143:	48 8b 45 d0          	mov    -0x30(%rbp),%rax
    4000a147:	48 8d 50 18          	lea    0x18(%rax),%rdx
    4000a14b:	48 8b 45 88          	mov    -0x78(%rbp),%rax
    4000a14f:	48 89 02             	mov    %rax,(%rdx)
    4000a152:	48 8b 45 d0          	mov    -0x30(%rbp),%rax
    4000a156:	48 8d 50 20          	lea    0x20(%rax),%rdx
    4000a15a:	48 8b 45 80          	mov    -0x80(%rbp),%rax
    4000a15e:	48 89 02             	mov    %rax,(%rdx)
    4000a161:	48 83 7d 98 2a       	cmpq   $0x2a,-0x68(%rbp)
    4000a166:	75 40                	jne    4000a1a8 <ocall_syscall3+0xb2>
    4000a168:	48 8b 45 88          	mov    -0x78(%rbp),%rax
    4000a16c:	48 89 45 c8          	mov    %rax,-0x38(%rbp)
    4000a170:	e8 9e 82 ff ff       	callq  40002413 <__tls_outside_buffer>
    4000a175:	48 8b 00             	mov    (%rax),%rax
    4000a178:	48 05 00 10 00 00    	add    $0x1000,%rax
    4000a17e:	48 89 45 d8          	mov    %rax,-0x28(%rbp)
    4000a182:	48 8b 45 d0          	mov    -0x30(%rbp),%rax
    4000a186:	48 8d 50 18          	lea    0x18(%rax),%rdx
    4000a18a:	48 8b 45 d8          	mov    -0x28(%rbp),%rax
    4000a18e:	48 89 02             	mov    %rax,(%rdx)
    4000a191:	48 8b 55 80          	mov    -0x80(%rbp),%rdx
    4000a195:	48 8b 4d c8          	mov    -0x38(%rbp),%rcx
    4000a199:	48 8b 45 d8          	mov    -0x28(%rbp),%rax
    4000a19d:	48 89 ce             	mov    %rcx,%rsi
    4000a1a0:	48 89 c7             	mov    %rax,%rdi
    4000a1a3:	e8 c5 bd ff ff       	callq  40005f6d <memcpy>
    4000a1a8:	48 83 7d 98 31       	cmpq   $0x31,-0x68(%rbp)
    4000a1ad:	75 38                	jne    4000a1e7 <ocall_syscall3+0xf1>
    4000a1af:	e8 5f 82 ff ff       	callq  40002413 <__tls_outside_buffer>
    4000a1b4:	48 8b 00             	mov    (%rax),%rax
    4000a1b7:	48 05 00 10 00 00    	add    $0x1000,%rax
    4000a1bd:	48 89 45 d8          	mov    %rax,-0x28(%rbp)
    4000a1c1:	48 8b 45 d0          	mov    -0x30(%rbp),%rax
    4000a1c5:	48 8d 50 18          	lea    0x18(%rax),%rdx
    4000a1c9:	48 8b 45 d8          	mov    -0x28(%rbp),%rax
    4000a1cd:	48 89 02             	mov    %rax,(%rdx)
    4000a1d0:	48 8b 55 80          	mov    -0x80(%rbp),%rdx
    4000a1d4:	48 8b 4d 88          	mov    -0x78(%rbp),%rcx
    4000a1d8:	48 8b 45 d8          	mov    -0x28(%rbp),%rax
    4000a1dc:	48 89 ce             	mov    %rcx,%rsi
    4000a1df:	48 89 c7             	mov    %rax,%rdi
    4000a1e2:	e8 86 bd ff ff       	callq  40005f6d <memcpy>
    4000a1e7:	48 83 7d 98 2b       	cmpq   $0x2b,-0x68(%rbp)
    4000a1ec:	75 5d                	jne    4000a24b <ocall_syscall3+0x155>
    4000a1ee:	48 83 7d 88 00       	cmpq   $0x0,-0x78(%rbp)
    4000a1f3:	74 56                	je     4000a24b <ocall_syscall3+0x155>
    4000a1f5:	48 8b 45 80          	mov    -0x80(%rbp),%rax
    4000a1f9:	48 89 45 c8          	mov    %rax,-0x38(%rbp)
    4000a1fd:	e8 11 82 ff ff       	callq  40002413 <__tls_outside_buffer>
    4000a202:	48 8b 00             	mov    (%rax),%rax
    4000a205:	48 05 00 10 00 00    	add    $0x1000,%rax
    4000a20b:	48 89 45 d8          	mov    %rax,-0x28(%rbp)
    4000a20f:	48 8b 45 d0          	mov    -0x30(%rbp),%rax
    4000a213:	48 8d 50 20          	lea    0x20(%rax),%rdx
    4000a217:	48 8b 45 d8          	mov    -0x28(%rbp),%rax
    4000a21b:	48 89 02             	mov    %rax,(%rdx)
    4000a21e:	48 8b 45 c8          	mov    -0x38(%rbp),%rax
    4000a222:	8b 10                	mov    (%rax),%edx
    4000a224:	48 8b 45 d8          	mov    -0x28(%rbp),%rax
    4000a228:	89 10                	mov    %edx,(%rax)
    4000a22a:	e8 e4 81 ff ff       	callq  40002413 <__tls_outside_buffer>
    4000a22f:	48 8b 00             	mov    (%rax),%rax
    4000a232:	48 05 04 10 00 00    	add    $0x1004,%rax
    4000a238:	48 89 45 d8          	mov    %rax,-0x28(%rbp)
    4000a23c:	48 8b 45 d0          	mov    -0x30(%rbp),%rax
    4000a240:	48 8d 50 18          	lea    0x18(%rax),%rdx
    4000a244:	48 8b 45 d8          	mov    -0x28(%rbp),%rax
    4000a248:	48 89 02             	mov    %rax,(%rdx)
    4000a24b:	48 83 7d 98 01       	cmpq   $0x1,-0x68(%rbp)
    4000a250:	75 40                	jne    4000a292 <ocall_syscall3+0x19c>
    4000a252:	48 8b 45 88          	mov    -0x78(%rbp),%rax
    4000a256:	48 89 45 c8          	mov    %rax,-0x38(%rbp)
    4000a25a:	e8 b4 81 ff ff       	callq  40002413 <__tls_outside_buffer>
    4000a25f:	48 8b 00             	mov    (%rax),%rax
    4000a262:	48 05 00 10 00 00    	add    $0x1000,%rax
    4000a268:	48 89 45 d8          	mov    %rax,-0x28(%rbp)
    4000a26c:	48 8b 45 d0          	mov    -0x30(%rbp),%rax
    4000a270:	48 8d 50 18          	lea    0x18(%rax),%rdx
    4000a274:	48 8b 45 d8          	mov    -0x28(%rbp),%rax
    4000a278:	48 89 02             	mov    %rax,(%rdx)
    4000a27b:	48 8b 55 80          	mov    -0x80(%rbp),%rdx
    4000a27f:	48 8b 4d c8          	mov    -0x38(%rbp),%rcx
    4000a283:	48 8b 45 d8          	mov    -0x28(%rbp),%rax
    4000a287:	48 89 ce             	mov    %rcx,%rsi
    4000a28a:	48 89 c7             	mov    %rax,%rdi
    4000a28d:	e8 db bc ff ff       	callq  40005f6d <memcpy>
    4000a292:	48 83 7d 98 00       	cmpq   $0x0,-0x68(%rbp)
    4000a297:	75 21                	jne    4000a2ba <ocall_syscall3+0x1c4>
    4000a299:	e8 75 81 ff ff       	callq  40002413 <__tls_outside_buffer>
    4000a29e:	48 8b 00             	mov    (%rax),%rax
    4000a2a1:	48 05 00 10 00 00    	add    $0x1000,%rax
    4000a2a7:	48 89 45 d8          	mov    %rax,-0x28(%rbp)
    4000a2ab:	48 8b 45 d0          	mov    -0x30(%rbp),%rax
    4000a2af:	48 8d 50 18          	lea    0x18(%rax),%rdx
    4000a2b3:	48 8b 45 d8          	mov    -0x28(%rbp),%rax
    4000a2b7:	48 89 02             	mov    %rax,(%rdx)
    4000a2ba:	48 83 7d 98 14       	cmpq   $0x14,-0x68(%rbp)
    4000a2bf:	74 0b                	je     4000a2cc <ocall_syscall3+0x1d6>
    4000a2c1:	48 83 7d 98 13       	cmpq   $0x13,-0x68(%rbp)
    4000a2c6:	0f 85 f0 00 00 00    	jne    4000a3bc <ocall_syscall3+0x2c6>
    4000a2cc:	e8 42 81 ff ff       	callq  40002413 <__tls_outside_buffer>
    4000a2d1:	48 8b 00             	mov    (%rax),%rax
    4000a2d4:	48 05 00 10 00 00    	add    $0x1000,%rax
    4000a2da:	48 89 45 c0          	mov    %rax,-0x40(%rbp)
    4000a2de:	48 8b 45 d0          	mov    -0x30(%rbp),%rax
    4000a2e2:	48 8d 50 18          	lea    0x18(%rax),%rdx
    4000a2e6:	48 8b 45 c0          	mov    -0x40(%rbp),%rax
    4000a2ea:	48 89 02             	mov    %rax,(%rdx)
    4000a2ed:	48 8b 45 80          	mov    -0x80(%rbp),%rax
    4000a2f1:	48 c1 e0 04          	shl    $0x4,%rax
    4000a2f5:	48 89 c2             	mov    %rax,%rdx
    4000a2f8:	48 8b 45 c0          	mov    -0x40(%rbp),%rax
    4000a2fc:	48 01 d0             	add    %rdx,%rax
    4000a2ff:	48 89 45 b8          	mov    %rax,-0x48(%rbp)
    4000a303:	c7 45 f4 00 00 00 00 	movl   $0x0,-0xc(%rbp)
    4000a30a:	48 8b 45 88          	mov    -0x78(%rbp),%rax
    4000a30e:	48 89 45 e8          	mov    %rax,-0x18(%rbp)
    4000a312:	48 8b 45 c0          	mov    -0x40(%rbp),%rax
    4000a316:	48 89 45 e0          	mov    %rax,-0x20(%rbp)
    4000a31a:	c7 45 fc 00 00 00 00 	movl   $0x0,-0x4(%rbp)
    4000a321:	e9 87 00 00 00       	jmpq   4000a3ad <ocall_syscall3+0x2b7>
    4000a326:	8b 45 f4             	mov    -0xc(%rbp),%eax
    4000a329:	48 63 d0             	movslq %eax,%rdx
    4000a32c:	48 8b 45 b8          	mov    -0x48(%rbp),%rax
    4000a330:	48 01 c2             	add    %rax,%rdx
    4000a333:	48 8b 45 e0          	mov    -0x20(%rbp),%rax
    4000a337:	48 89 10             	mov    %rdx,(%rax)
    4000a33a:	48 8b 45 e8          	mov    -0x18(%rbp),%rax
    4000a33e:	48 8b 50 08          	mov    0x8(%rax),%rdx
    4000a342:	48 8b 45 e0          	mov    -0x20(%rbp),%rax
    4000a346:	48 89 50 08          	mov    %rdx,0x8(%rax)
    4000a34a:	c7 45 f8 00 00 00 00 	movl   $0x0,-0x8(%rbp)
    4000a351:	eb 27                	jmp    4000a37a <ocall_syscall3+0x284>
    4000a353:	48 8b 45 e0          	mov    -0x20(%rbp),%rax
    4000a357:	48 8b 10             	mov    (%rax),%rdx
    4000a35a:	8b 45 f8             	mov    -0x8(%rbp),%eax
    4000a35d:	48 98                	cltq   
    4000a35f:	48 01 c2             	add    %rax,%rdx
    4000a362:	48 8b 45 e8          	mov    -0x18(%rbp),%rax
    4000a366:	48 8b 08             	mov    (%rax),%rcx
    4000a369:	8b 45 f8             	mov    -0x8(%rbp),%eax
    4000a36c:	48 98                	cltq   
    4000a36e:	48 01 c8             	add    %rcx,%rax
    4000a371:	0f b6 00             	movzbl (%rax),%eax
    4000a374:	88 02                	mov    %al,(%rdx)
    4000a376:	83 45 f8 01          	addl   $0x1,-0x8(%rbp)
    4000a37a:	8b 45 f8             	mov    -0x8(%rbp),%eax
    4000a37d:	48 63 d0             	movslq %eax,%rdx
    4000a380:	48 8b 45 e0          	mov    -0x20(%rbp),%rax
    4000a384:	48 8b 40 08          	mov    0x8(%rax),%rax
    4000a388:	48 39 c2             	cmp    %rax,%rdx
    4000a38b:	72 c6                	jb     4000a353 <ocall_syscall3+0x25d>
    4000a38d:	48 8b 45 e0          	mov    -0x20(%rbp),%rax
    4000a391:	48 8b 40 08          	mov    0x8(%rax),%rax
    4000a395:	89 c2                	mov    %eax,%edx
    4000a397:	8b 45 f4             	mov    -0xc(%rbp),%eax
    4000a39a:	01 d0                	add    %edx,%eax
    4000a39c:	89 45 f4             	mov    %eax,-0xc(%rbp)
    4000a39f:	48 83 45 e8 10       	addq   $0x10,-0x18(%rbp)
    4000a3a4:	48 83 45 e0 10       	addq   $0x10,-0x20(%rbp)
    4000a3a9:	83 45 fc 01          	addl   $0x1,-0x4(%rbp)
    4000a3ad:	8b 45 fc             	mov    -0x4(%rbp),%eax
    4000a3b0:	48 98                	cltq   
    4000a3b2:	48 3b 45 80          	cmp    -0x80(%rbp),%rax
    4000a3b6:	0f 8c 6a ff ff ff    	jl     4000a326 <ocall_syscall3+0x230>
    4000a3bc:	48 83 7d 98 02       	cmpq   $0x2,-0x68(%rbp)
    4000a3c1:	75 54                	jne    4000a417 <ocall_syscall3+0x321>
    4000a3c3:	48 8b 45 90          	mov    -0x70(%rbp),%rax
    4000a3c7:	48 89 45 c8          	mov    %rax,-0x38(%rbp)
    4000a3cb:	e8 43 80 ff ff       	callq  40002413 <__tls_outside_buffer>
    4000a3d0:	48 8b 00             	mov    (%rax),%rax
    4000a3d3:	48 05 00 10 00 00    	add    $0x1000,%rax
    4000a3d9:	48 89 45 d8          	mov    %rax,-0x28(%rbp)
    4000a3dd:	48 8b 45 d0          	mov    -0x30(%rbp),%rax
    4000a3e1:	48 8d 50 10          	lea    0x10(%rax),%rdx
    4000a3e5:	48 8b 45 d8          	mov    -0x28(%rbp),%rax
    4000a3e9:	48 89 02             	mov    %rax,(%rdx)
    4000a3ec:	48 8b 45 c8          	mov    -0x38(%rbp),%rax
    4000a3f0:	48 89 c7             	mov    %rax,%rdi
    4000a3f3:	e8 c8 ba ff ff       	callq  40005ec0 <strlen>
    4000a3f8:	83 c0 01             	add    $0x1,%eax
    4000a3fb:	89 45 fc             	mov    %eax,-0x4(%rbp)
    4000a3fe:	8b 45 fc             	mov    -0x4(%rbp),%eax
    4000a401:	48 63 d0             	movslq %eax,%rdx
    4000a404:	48 8b 4d c8          	mov    -0x38(%rbp),%rcx
    4000a408:	48 8b 45 d8          	mov    -0x28(%rbp),%rax
    4000a40c:	48 89 ce             	mov    %rcx,%rsi
    4000a40f:	48 89 c7             	mov    %rax,%rdi
    4000a412:	e8 56 bb ff ff       	callq  40005f6d <memcpy>
    4000a417:	48 83 7d 98 10       	cmpq   $0x10,-0x68(%rbp)
    4000a41c:	75 21                	jne    4000a43f <ocall_syscall3+0x349>
    4000a41e:	e8 f0 7f ff ff       	callq  40002413 <__tls_outside_buffer>
    4000a423:	48 8b 00             	mov    (%rax),%rax
    4000a426:	48 05 00 10 00 00    	add    $0x1000,%rax
    4000a42c:	48 89 45 d8          	mov    %rax,-0x28(%rbp)
    4000a430:	48 8b 45 d0          	mov    -0x30(%rbp),%rax
    4000a434:	48 8d 50 20          	lea    0x20(%rax),%rdx
    4000a438:	48 8b 45 d8          	mov    -0x28(%rbp),%rax
    4000a43c:	48 89 02             	mov    %rax,(%rdx)
    4000a43f:	b8 00 00 00 00       	mov    $0x0,%eax
    4000a444:	e8 79 5c ff ff       	callq  400000c2 <ocall_syscall>
    4000a449:	48 83 7d 98 2b       	cmpq   $0x2b,-0x68(%rbp)
    4000a44e:	75 66                	jne    4000a4b6 <ocall_syscall3+0x3c0>
    4000a450:	48 83 7d 88 00       	cmpq   $0x0,-0x78(%rbp)
    4000a455:	74 5f                	je     4000a4b6 <ocall_syscall3+0x3c0>
    4000a457:	48 8b 45 80          	mov    -0x80(%rbp),%rax
    4000a45b:	48 89 45 c8          	mov    %rax,-0x38(%rbp)
    4000a45f:	e8 af 7f ff ff       	callq  40002413 <__tls_outside_buffer>
    4000a464:	48 8b 00             	mov    (%rax),%rax
    4000a467:	48 05 00 10 00 00    	add    $0x1000,%rax
    4000a46d:	48 89 45 d8          	mov    %rax,-0x28(%rbp)
    4000a471:	48 8b 45 d8          	mov    -0x28(%rbp),%rax
    4000a475:	8b 10                	mov    (%rax),%edx
    4000a477:	48 8b 45 c8          	mov    -0x38(%rbp),%rax
    4000a47b:	89 10                	mov    %edx,(%rax)
    4000a47d:	48 8b 45 d8          	mov    -0x28(%rbp),%rax
    4000a481:	8b 00                	mov    (%rax),%eax
    4000a483:	89 45 b4             	mov    %eax,-0x4c(%rbp)
    4000a486:	48 8b 45 88          	mov    -0x78(%rbp),%rax
    4000a48a:	48 89 45 c8          	mov    %rax,-0x38(%rbp)
    4000a48e:	e8 80 7f ff ff       	callq  40002413 <__tls_outside_buffer>
    4000a493:	48 8b 00             	mov    (%rax),%rax
    4000a496:	48 05 04 10 00 00    	add    $0x1004,%rax
    4000a49c:	48 89 45 d8          	mov    %rax,-0x28(%rbp)
    4000a4a0:	8b 55 b4             	mov    -0x4c(%rbp),%edx
    4000a4a3:	48 8b 4d d8          	mov    -0x28(%rbp),%rcx
    4000a4a7:	48 8b 45 c8          	mov    -0x38(%rbp),%rax
    4000a4ab:	48 89 ce             	mov    %rcx,%rsi
    4000a4ae:	48 89 c7             	mov    %rax,%rdi
    4000a4b1:	e8 b7 ba ff ff       	callq  40005f6d <memcpy>
    4000a4b6:	48 83 7d 98 10       	cmpq   $0x10,-0x68(%rbp)
    4000a4bb:	75 18                	jne    4000a4d5 <ocall_syscall3+0x3df>
    4000a4bd:	48 81 7d 88 13 54 00 	cmpq   $0x5413,-0x78(%rbp)
    4000a4c4:	00 
    4000a4c5:	75 0e                	jne    4000a4d5 <ocall_syscall3+0x3df>
    4000a4c7:	48 8b 45 80          	mov    -0x80(%rbp),%rax
    4000a4cb:	48 8b 55 d8          	mov    -0x28(%rbp),%rdx
    4000a4cf:	48 8b 12             	mov    (%rdx),%rdx
    4000a4d2:	48 89 10             	mov    %rdx,(%rax)
    4000a4d5:	48 83 7d 98 13       	cmpq   $0x13,-0x68(%rbp)
    4000a4da:	0f 85 9d 00 00 00    	jne    4000a57d <ocall_syscall3+0x487>
    4000a4e0:	e8 2e 7f ff ff       	callq  40002413 <__tls_outside_buffer>
    4000a4e5:	48 8b 00             	mov    (%rax),%rax
    4000a4e8:	48 05 00 10 00 00    	add    $0x1000,%rax
    4000a4ee:	48 89 45 c0          	mov    %rax,-0x40(%rbp)
    4000a4f2:	48 8b 45 80          	mov    -0x80(%rbp),%rax
    4000a4f6:	48 c1 e0 04          	shl    $0x4,%rax
    4000a4fa:	48 89 c2             	mov    %rax,%rdx
    4000a4fd:	48 8b 45 c0          	mov    -0x40(%rbp),%rax
    4000a501:	48 01 d0             	add    %rdx,%rax
    4000a504:	48 89 45 b8          	mov    %rax,-0x48(%rbp)
    4000a508:	48 8b 45 c0          	mov    -0x40(%rbp),%rax
    4000a50c:	48 89 45 e8          	mov    %rax,-0x18(%rbp)
    4000a510:	48 8b 45 88          	mov    -0x78(%rbp),%rax
    4000a514:	48 89 45 e0          	mov    %rax,-0x20(%rbp)
    4000a518:	c7 45 fc 00 00 00 00 	movl   $0x0,-0x4(%rbp)
    4000a51f:	eb 51                	jmp    4000a572 <ocall_syscall3+0x47c>
    4000a521:	c7 45 f8 00 00 00 00 	movl   $0x0,-0x8(%rbp)
    4000a528:	eb 27                	jmp    4000a551 <ocall_syscall3+0x45b>
    4000a52a:	48 8b 45 e0          	mov    -0x20(%rbp),%rax
    4000a52e:	48 8b 10             	mov    (%rax),%rdx
    4000a531:	8b 45 f8             	mov    -0x8(%rbp),%eax
    4000a534:	48 98                	cltq   
    4000a536:	48 01 c2             	add    %rax,%rdx
    4000a539:	48 8b 45 e8          	mov    -0x18(%rbp),%rax
    4000a53d:	48 8b 08             	mov    (%rax),%rcx
    4000a540:	8b 45 f8             	mov    -0x8(%rbp),%eax
    4000a543:	48 98                	cltq   
    4000a545:	48 01 c8             	add    %rcx,%rax
    4000a548:	0f b6 00             	movzbl (%rax),%eax
    4000a54b:	88 02                	mov    %al,(%rdx)
    4000a54d:	83 45 f8 01          	addl   $0x1,-0x8(%rbp)
    4000a551:	8b 45 f8             	mov    -0x8(%rbp),%eax
    4000a554:	48 63 d0             	movslq %eax,%rdx
    4000a557:	48 8b 45 e0          	mov    -0x20(%rbp),%rax
    4000a55b:	48 8b 40 08          	mov    0x8(%rax),%rax
    4000a55f:	48 39 c2             	cmp    %rax,%rdx
    4000a562:	72 c6                	jb     4000a52a <ocall_syscall3+0x434>
    4000a564:	48 83 45 e8 10       	addq   $0x10,-0x18(%rbp)
    4000a569:	48 83 45 e0 10       	addq   $0x10,-0x20(%rbp)
    4000a56e:	83 45 fc 01          	addl   $0x1,-0x4(%rbp)
    4000a572:	8b 45 fc             	mov    -0x4(%rbp),%eax
    4000a575:	48 98                	cltq   
    4000a577:	48 3b 45 80          	cmp    -0x80(%rbp),%rax
    4000a57b:	7c a4                	jl     4000a521 <ocall_syscall3+0x42b>
    4000a57d:	48 83 7d 98 00       	cmpq   $0x0,-0x68(%rbp)
    4000a582:	75 63                	jne    4000a5e7 <ocall_syscall3+0x4f1>
    4000a584:	48 8b 45 d0          	mov    -0x30(%rbp),%rax
    4000a588:	48 8b 00             	mov    (%rax),%rax
    4000a58b:	48 89 45 a8          	mov    %rax,-0x58(%rbp)
    4000a58f:	48 83 7d a8 00       	cmpq   $0x0,-0x58(%rbp)
    4000a594:	7e 31                	jle    4000a5c7 <ocall_syscall3+0x4d1>
    4000a596:	48 8b 45 88          	mov    -0x78(%rbp),%rax
    4000a59a:	48 89 45 c8          	mov    %rax,-0x38(%rbp)
    4000a59e:	e8 70 7e ff ff       	callq  40002413 <__tls_outside_buffer>
    4000a5a3:	48 8b 00             	mov    (%rax),%rax
    4000a5a6:	48 05 00 10 00 00    	add    $0x1000,%rax
    4000a5ac:	48 89 45 d8          	mov    %rax,-0x28(%rbp)
    4000a5b0:	48 8b 55 80          	mov    -0x80(%rbp),%rdx
    4000a5b4:	48 8b 4d d8          	mov    -0x28(%rbp),%rcx
    4000a5b8:	48 8b 45 c8          	mov    -0x38(%rbp),%rax
    4000a5bc:	48 89 ce             	mov    %rcx,%rsi
    4000a5bf:	48 89 c7             	mov    %rax,%rdi
    4000a5c2:	e8 a6 b9 ff ff       	callq  40005f6d <memcpy>
    4000a5c7:	48 83 7d a8 00       	cmpq   $0x0,-0x58(%rbp)
    4000a5cc:	79 19                	jns    4000a5e7 <ocall_syscall3+0x4f1>
    4000a5ce:	e8 f0 7d ff ff       	callq  400023c3 <__tls_errno_location>
    4000a5d3:	48 89 c2             	mov    %rax,%rdx
    4000a5d6:	48 8b 45 a8          	mov    -0x58(%rbp),%rax
    4000a5da:	f7 d8                	neg    %eax
    4000a5dc:	89 02                	mov    %eax,(%rdx)
    4000a5de:	48 c7 c0 ff ff ff ff 	mov    $0xffffffffffffffff,%rax
    4000a5e5:	eb 0f                	jmp    4000a5f6 <ocall_syscall3+0x500>
    4000a5e7:	48 8b 45 d0          	mov    -0x30(%rbp),%rax
    4000a5eb:	48 8b 00             	mov    (%rax),%rax
    4000a5ee:	48 89 45 a8          	mov    %rax,-0x58(%rbp)
    4000a5f2:	48 8b 45 a8          	mov    -0x58(%rbp),%rax
    4000a5f6:	c9                   	leaveq 
    4000a5f7:	c3                   	retq   

000000004000a5f8 <ocall_syscall4>:
    4000a5f8:	55                   	push   %rbp
    4000a5f9:	48 89 e5             	mov    %rsp,%rbp
    4000a5fc:	48 83 ec 50          	sub    $0x50,%rsp
    4000a600:	48 89 7d d8          	mov    %rdi,-0x28(%rbp)
    4000a604:	48 89 75 d0          	mov    %rsi,-0x30(%rbp)
    4000a608:	48 89 55 c8          	mov    %rdx,-0x38(%rbp)
    4000a60c:	48 89 4d c0          	mov    %rcx,-0x40(%rbp)
    4000a610:	4c 89 45 b8          	mov    %r8,-0x48(%rbp)
    4000a614:	e8 fa 7d ff ff       	callq  40002413 <__tls_outside_buffer>
    4000a619:	48 8b 00             	mov    (%rax),%rax
    4000a61c:	48 89 45 f8          	mov    %rax,-0x8(%rbp)
    4000a620:	48 8b 45 f8          	mov    -0x8(%rbp),%rax
    4000a624:	48 c7 00 04 00 00 00 	movq   $0x4,(%rax)
    4000a62b:	48 8b 45 f8          	mov    -0x8(%rbp),%rax
    4000a62f:	48 8d 50 08          	lea    0x8(%rax),%rdx
    4000a633:	48 8b 45 d8          	mov    -0x28(%rbp),%rax
    4000a637:	48 89 02             	mov    %rax,(%rdx)
    4000a63a:	48 8b 45 f8          	mov    -0x8(%rbp),%rax
    4000a63e:	48 8d 50 10          	lea    0x10(%rax),%rdx
    4000a642:	48 8b 45 d0          	mov    -0x30(%rbp),%rax
    4000a646:	48 89 02             	mov    %rax,(%rdx)
    4000a649:	48 8b 45 f8          	mov    -0x8(%rbp),%rax
    4000a64d:	48 8d 50 18          	lea    0x18(%rax),%rdx
    4000a651:	48 8b 45 c8          	mov    -0x38(%rbp),%rax
    4000a655:	48 89 02             	mov    %rax,(%rdx)
    4000a658:	48 8b 45 f8          	mov    -0x8(%rbp),%rax
    4000a65c:	48 8d 50 20          	lea    0x20(%rax),%rdx
    4000a660:	48 8b 45 c0          	mov    -0x40(%rbp),%rax
    4000a664:	48 89 02             	mov    %rax,(%rdx)
    4000a667:	48 8b 45 f8          	mov    -0x8(%rbp),%rax
    4000a66b:	48 8d 50 28          	lea    0x28(%rax),%rdx
    4000a66f:	48 8b 45 b8          	mov    -0x48(%rbp),%rax
    4000a673:	48 89 02             	mov    %rax,(%rdx)
    4000a676:	48 81 7d d8 ca 00 00 	cmpq   $0xca,-0x28(%rbp)
    4000a67d:	00 
    4000a67e:	75 46                	jne    4000a6c6 <ocall_syscall4+0xce>
    4000a680:	48 83 7d b8 00       	cmpq   $0x0,-0x48(%rbp)
    4000a685:	74 3f                	je     4000a6c6 <ocall_syscall4+0xce>
    4000a687:	48 8b 45 b8          	mov    -0x48(%rbp),%rax
    4000a68b:	48 89 45 f0          	mov    %rax,-0x10(%rbp)
    4000a68f:	e8 7f 7d ff ff       	callq  40002413 <__tls_outside_buffer>
    4000a694:	48 8b 00             	mov    (%rax),%rax
    4000a697:	48 05 00 10 00 00    	add    $0x1000,%rax
    4000a69d:	48 89 45 e8          	mov    %rax,-0x18(%rbp)
    4000a6a1:	48 8b 45 f8          	mov    -0x8(%rbp),%rax
    4000a6a5:	48 8d 50 28          	lea    0x28(%rax),%rdx
    4000a6a9:	48 8b 45 e8          	mov    -0x18(%rbp),%rax
    4000a6ad:	48 89 02             	mov    %rax,(%rdx)
    4000a6b0:	48 8b 45 f0          	mov    -0x10(%rbp),%rax
    4000a6b4:	48 8b 50 08          	mov    0x8(%rax),%rdx
    4000a6b8:	48 8b 00             	mov    (%rax),%rax
    4000a6bb:	48 8b 4d e8          	mov    -0x18(%rbp),%rcx
    4000a6bf:	48 89 01             	mov    %rax,(%rcx)
    4000a6c2:	48 89 51 08          	mov    %rdx,0x8(%rcx)
    4000a6c6:	48 83 7d d8 0e       	cmpq   $0xe,-0x28(%rbp)
    4000a6cb:	0f 85 95 00 00 00    	jne    4000a766 <ocall_syscall4+0x16e>
    4000a6d1:	48 83 7d c8 00       	cmpq   $0x0,-0x38(%rbp)
    4000a6d6:	74 40                	je     4000a718 <ocall_syscall4+0x120>
    4000a6d8:	48 8b 45 c8          	mov    -0x38(%rbp),%rax
    4000a6dc:	48 89 45 f0          	mov    %rax,-0x10(%rbp)
    4000a6e0:	e8 2e 7d ff ff       	callq  40002413 <__tls_outside_buffer>
    4000a6e5:	48 8b 00             	mov    (%rax),%rax
    4000a6e8:	48 05 00 10 00 00    	add    $0x1000,%rax
    4000a6ee:	48 89 45 e8          	mov    %rax,-0x18(%rbp)
    4000a6f2:	48 8b 45 f8          	mov    -0x8(%rbp),%rax
    4000a6f6:	48 8d 50 18          	lea    0x18(%rax),%rdx
    4000a6fa:	48 8b 45 e8          	mov    -0x18(%rbp),%rax
    4000a6fe:	48 89 02             	mov    %rax,(%rdx)
    4000a701:	48 8b 55 b8          	mov    -0x48(%rbp),%rdx
    4000a705:	48 8b 4d f0          	mov    -0x10(%rbp),%rcx
    4000a709:	48 8b 45 e8          	mov    -0x18(%rbp),%rax
    4000a70d:	48 89 ce             	mov    %rcx,%rsi
    4000a710:	48 89 c7             	mov    %rax,%rdi
    4000a713:	e8 55 b8 ff ff       	callq  40005f6d <memcpy>
    4000a718:	48 83 7d c0 00       	cmpq   $0x0,-0x40(%rbp)
    4000a71d:	74 47                	je     4000a766 <ocall_syscall4+0x16e>
    4000a71f:	48 8b 45 c0          	mov    -0x40(%rbp),%rax
    4000a723:	48 89 45 f0          	mov    %rax,-0x10(%rbp)
    4000a727:	e8 e7 7c ff ff       	callq  40002413 <__tls_outside_buffer>
    4000a72c:	48 8b 10             	mov    (%rax),%rdx
    4000a72f:	48 8b 45 b8          	mov    -0x48(%rbp),%rax
    4000a733:	48 01 d0             	add    %rdx,%rax
    4000a736:	48 05 00 10 00 00    	add    $0x1000,%rax
    4000a73c:	48 89 45 e8          	mov    %rax,-0x18(%rbp)
    4000a740:	48 8b 45 f8          	mov    -0x8(%rbp),%rax
    4000a744:	48 8d 50 20          	lea    0x20(%rax),%rdx
    4000a748:	48 8b 45 e8          	mov    -0x18(%rbp),%rax
    4000a74c:	48 89 02             	mov    %rax,(%rdx)
    4000a74f:	48 8b 55 b8          	mov    -0x48(%rbp),%rdx
    4000a753:	48 8b 4d f0          	mov    -0x10(%rbp),%rcx
    4000a757:	48 8b 45 e8          	mov    -0x18(%rbp),%rax
    4000a75b:	48 89 ce             	mov    %rcx,%rsi
    4000a75e:	48 89 c7             	mov    %rax,%rdi
    4000a761:	e8 07 b8 ff ff       	callq  40005f6d <memcpy>
    4000a766:	48 81 7d d8 2e 01 00 	cmpq   $0x12e,-0x28(%rbp)
    4000a76d:	00 
    4000a76e:	0f 85 8c 00 00 00    	jne    4000a800 <ocall_syscall4+0x208>
    4000a774:	48 83 7d c0 00       	cmpq   $0x0,-0x40(%rbp)
    4000a779:	74 3f                	je     4000a7ba <ocall_syscall4+0x1c2>
    4000a77b:	48 8b 45 c0          	mov    -0x40(%rbp),%rax
    4000a77f:	48 89 45 f0          	mov    %rax,-0x10(%rbp)
    4000a783:	e8 8b 7c ff ff       	callq  40002413 <__tls_outside_buffer>
    4000a788:	48 8b 00             	mov    (%rax),%rax
    4000a78b:	48 05 00 10 00 00    	add    $0x1000,%rax
    4000a791:	48 89 45 e8          	mov    %rax,-0x18(%rbp)
    4000a795:	48 8b 45 f8          	mov    -0x8(%rbp),%rax
    4000a799:	48 8d 50 20          	lea    0x20(%rax),%rdx
    4000a79d:	48 8b 45 e8          	mov    -0x18(%rbp),%rax
    4000a7a1:	48 89 02             	mov    %rax,(%rdx)
    4000a7a4:	48 8b 45 f0          	mov    -0x10(%rbp),%rax
    4000a7a8:	48 8b 50 08          	mov    0x8(%rax),%rdx
    4000a7ac:	48 8b 00             	mov    (%rax),%rax
    4000a7af:	48 8b 4d e8          	mov    -0x18(%rbp),%rcx
    4000a7b3:	48 89 01             	mov    %rax,(%rcx)
    4000a7b6:	48 89 51 08          	mov    %rdx,0x8(%rcx)
    4000a7ba:	48 83 7d b8 00       	cmpq   $0x0,-0x48(%rbp)
    4000a7bf:	74 3f                	je     4000a800 <ocall_syscall4+0x208>
    4000a7c1:	48 8b 45 b8          	mov    -0x48(%rbp),%rax
    4000a7c5:	48 89 45 f0          	mov    %rax,-0x10(%rbp)
    4000a7c9:	e8 45 7c ff ff       	callq  40002413 <__tls_outside_buffer>
    4000a7ce:	48 8b 00             	mov    (%rax),%rax
    4000a7d1:	48 05 10 10 00 00    	add    $0x1010,%rax
    4000a7d7:	48 89 45 e8          	mov    %rax,-0x18(%rbp)
    4000a7db:	48 8b 45 f8          	mov    -0x8(%rbp),%rax
    4000a7df:	48 8d 50 28          	lea    0x28(%rax),%rdx
    4000a7e3:	48 8b 45 e8          	mov    -0x18(%rbp),%rax
    4000a7e7:	48 89 02             	mov    %rax,(%rdx)
    4000a7ea:	48 8b 45 f0          	mov    -0x10(%rbp),%rax
    4000a7ee:	48 8b 50 08          	mov    0x8(%rax),%rdx
    4000a7f2:	48 8b 00             	mov    (%rax),%rax
    4000a7f5:	48 8b 4d e8          	mov    -0x18(%rbp),%rcx
    4000a7f9:	48 89 01             	mov    %rax,(%rcx)
    4000a7fc:	48 89 51 08          	mov    %rdx,0x8(%rcx)
    4000a800:	48 81 7d d8 e9 00 00 	cmpq   $0xe9,-0x28(%rbp)
    4000a807:	00 
    4000a808:	75 41                	jne    4000a84b <ocall_syscall4+0x253>
    4000a80a:	48 8b 45 b8          	mov    -0x48(%rbp),%rax
    4000a80e:	48 89 45 f0          	mov    %rax,-0x10(%rbp)
    4000a812:	e8 fc 7b ff ff       	callq  40002413 <__tls_outside_buffer>
    4000a817:	48 8b 00             	mov    (%rax),%rax
    4000a81a:	48 05 00 10 00 00    	add    $0x1000,%rax
    4000a820:	48 89 45 e8          	mov    %rax,-0x18(%rbp)
    4000a824:	48 8b 45 f8          	mov    -0x8(%rbp),%rax
    4000a828:	48 8d 50 28          	lea    0x28(%rax),%rdx
    4000a82c:	48 8b 45 e8          	mov    -0x18(%rbp),%rax
    4000a830:	48 89 02             	mov    %rax,(%rdx)
    4000a833:	48 8b 4d f0          	mov    -0x10(%rbp),%rcx
    4000a837:	48 8b 45 e8          	mov    -0x18(%rbp),%rax
    4000a83b:	ba 0c 00 00 00       	mov    $0xc,%edx
    4000a840:	48 89 ce             	mov    %rcx,%rsi
    4000a843:	48 89 c7             	mov    %rax,%rdi
    4000a846:	e8 22 b7 ff ff       	callq  40005f6d <memcpy>
    4000a84b:	b8 00 00 00 00       	mov    $0x0,%eax
    4000a850:	e8 6d 58 ff ff       	callq  400000c2 <ocall_syscall>
    4000a855:	48 81 7d d8 e9 00 00 	cmpq   $0xe9,-0x28(%rbp)
    4000a85c:	00 
    4000a85d:	75 32                	jne    4000a891 <ocall_syscall4+0x299>
    4000a85f:	48 8b 45 b8          	mov    -0x48(%rbp),%rax
    4000a863:	48 89 45 f0          	mov    %rax,-0x10(%rbp)
    4000a867:	e8 a7 7b ff ff       	callq  40002413 <__tls_outside_buffer>
    4000a86c:	48 8b 00             	mov    (%rax),%rax
    4000a86f:	48 05 00 10 00 00    	add    $0x1000,%rax
    4000a875:	48 89 45 e8          	mov    %rax,-0x18(%rbp)
    4000a879:	48 8b 4d e8          	mov    -0x18(%rbp),%rcx
    4000a87d:	48 8b 45 f0          	mov    -0x10(%rbp),%rax
    4000a881:	ba 0c 00 00 00       	mov    $0xc,%edx
    4000a886:	48 89 ce             	mov    %rcx,%rsi
    4000a889:	48 89 c7             	mov    %rax,%rdi
    4000a88c:	e8 dc b6 ff ff       	callq  40005f6d <memcpy>
    4000a891:	48 83 7d d8 0e       	cmpq   $0xe,-0x28(%rbp)
    4000a896:	0f 85 95 00 00 00    	jne    4000a931 <ocall_syscall4+0x339>
    4000a89c:	48 83 7d c8 00       	cmpq   $0x0,-0x38(%rbp)
    4000a8a1:	74 40                	je     4000a8e3 <ocall_syscall4+0x2eb>
    4000a8a3:	48 8b 45 c8          	mov    -0x38(%rbp),%rax
    4000a8a7:	48 89 45 f0          	mov    %rax,-0x10(%rbp)
    4000a8ab:	e8 63 7b ff ff       	callq  40002413 <__tls_outside_buffer>
    4000a8b0:	48 8b 00             	mov    (%rax),%rax
    4000a8b3:	48 05 00 10 00 00    	add    $0x1000,%rax
    4000a8b9:	48 89 45 e8          	mov    %rax,-0x18(%rbp)
    4000a8bd:	48 8b 45 f8          	mov    -0x8(%rbp),%rax
    4000a8c1:	48 8d 50 18          	lea    0x18(%rax),%rdx
    4000a8c5:	48 8b 45 e8          	mov    -0x18(%rbp),%rax
    4000a8c9:	48 89 02             	mov    %rax,(%rdx)
    4000a8cc:	48 8b 55 b8          	mov    -0x48(%rbp),%rdx
    4000a8d0:	48 8b 4d e8          	mov    -0x18(%rbp),%rcx
    4000a8d4:	48 8b 45 f0          	mov    -0x10(%rbp),%rax
    4000a8d8:	48 89 ce             	mov    %rcx,%rsi
    4000a8db:	48 89 c7             	mov    %rax,%rdi
    4000a8de:	e8 8a b6 ff ff       	callq  40005f6d <memcpy>
    4000a8e3:	48 83 7d c0 00       	cmpq   $0x0,-0x40(%rbp)
    4000a8e8:	74 47                	je     4000a931 <ocall_syscall4+0x339>
    4000a8ea:	48 8b 45 c0          	mov    -0x40(%rbp),%rax
    4000a8ee:	48 89 45 f0          	mov    %rax,-0x10(%rbp)
    4000a8f2:	e8 1c 7b ff ff       	callq  40002413 <__tls_outside_buffer>
    4000a8f7:	48 8b 10             	mov    (%rax),%rdx
    4000a8fa:	48 8b 45 b8          	mov    -0x48(%rbp),%rax
    4000a8fe:	48 01 d0             	add    %rdx,%rax
    4000a901:	48 05 00 10 00 00    	add    $0x1000,%rax
    4000a907:	48 89 45 e8          	mov    %rax,-0x18(%rbp)
    4000a90b:	48 8b 45 f8          	mov    -0x8(%rbp),%rax
    4000a90f:	48 8d 50 20          	lea    0x20(%rax),%rdx
    4000a913:	48 8b 45 e8          	mov    -0x18(%rbp),%rax
    4000a917:	48 89 02             	mov    %rax,(%rdx)
    4000a91a:	48 8b 55 b8          	mov    -0x48(%rbp),%rdx
    4000a91e:	48 8b 4d e8          	mov    -0x18(%rbp),%rcx
    4000a922:	48 8b 45 f0          	mov    -0x10(%rbp),%rax
    4000a926:	48 89 ce             	mov    %rcx,%rsi
    4000a929:	48 89 c7             	mov    %rax,%rdi
    4000a92c:	e8 3c b6 ff ff       	callq  40005f6d <memcpy>
    4000a931:	48 81 7d d8 2e 01 00 	cmpq   $0x12e,-0x28(%rbp)
    4000a938:	00 
    4000a939:	75 6e                	jne    4000a9a9 <ocall_syscall4+0x3b1>
    4000a93b:	48 83 7d c0 00       	cmpq   $0x0,-0x40(%rbp)
    4000a940:	74 30                	je     4000a972 <ocall_syscall4+0x37a>
    4000a942:	48 8b 45 c0          	mov    -0x40(%rbp),%rax
    4000a946:	48 89 45 f0          	mov    %rax,-0x10(%rbp)
    4000a94a:	e8 c4 7a ff ff       	callq  40002413 <__tls_outside_buffer>
    4000a94f:	48 8b 00             	mov    (%rax),%rax
    4000a952:	48 05 00 10 00 00    	add    $0x1000,%rax
    4000a958:	48 89 45 e8          	mov    %rax,-0x18(%rbp)
    4000a95c:	48 8b 45 e8          	mov    -0x18(%rbp),%rax
    4000a960:	48 8b 50 08          	mov    0x8(%rax),%rdx
    4000a964:	48 8b 00             	mov    (%rax),%rax
    4000a967:	48 8b 4d f0          	mov    -0x10(%rbp),%rcx
    4000a96b:	48 89 01             	mov    %rax,(%rcx)
    4000a96e:	48 89 51 08          	mov    %rdx,0x8(%rcx)
    4000a972:	48 83 7d b8 00       	cmpq   $0x0,-0x48(%rbp)
    4000a977:	74 30                	je     4000a9a9 <ocall_syscall4+0x3b1>
    4000a979:	48 8b 45 b8          	mov    -0x48(%rbp),%rax
    4000a97d:	48 89 45 f0          	mov    %rax,-0x10(%rbp)
    4000a981:	e8 8d 7a ff ff       	callq  40002413 <__tls_outside_buffer>
    4000a986:	48 8b 00             	mov    (%rax),%rax
    4000a989:	48 05 10 10 00 00    	add    $0x1010,%rax
    4000a98f:	48 89 45 e8          	mov    %rax,-0x18(%rbp)
    4000a993:	48 8b 45 e8          	mov    -0x18(%rbp),%rax
    4000a997:	48 8b 50 08          	mov    0x8(%rax),%rdx
    4000a99b:	48 8b 00             	mov    (%rax),%rax
    4000a99e:	48 8b 4d f0          	mov    -0x10(%rbp),%rcx
    4000a9a2:	48 89 01             	mov    %rax,(%rcx)
    4000a9a5:	48 89 51 08          	mov    %rdx,0x8(%rcx)
    4000a9a9:	48 8b 45 f8          	mov    -0x8(%rbp),%rax
    4000a9ad:	48 8b 00             	mov    (%rax),%rax
    4000a9b0:	48 89 45 e0          	mov    %rax,-0x20(%rbp)
    4000a9b4:	48 8b 45 e0          	mov    -0x20(%rbp),%rax
    4000a9b8:	c9                   	leaveq 
    4000a9b9:	c3                   	retq   

000000004000a9ba <ocall_syscall5>:
    4000a9ba:	55                   	push   %rbp
    4000a9bb:	48 89 e5             	mov    %rsp,%rbp
    4000a9be:	48 83 ec 40          	sub    $0x40,%rsp
    4000a9c2:	48 89 7d e8          	mov    %rdi,-0x18(%rbp)
    4000a9c6:	48 89 75 e0          	mov    %rsi,-0x20(%rbp)
    4000a9ca:	48 89 55 d8          	mov    %rdx,-0x28(%rbp)
    4000a9ce:	48 89 4d d0          	mov    %rcx,-0x30(%rbp)
    4000a9d2:	4c 89 45 c8          	mov    %r8,-0x38(%rbp)
    4000a9d6:	4c 89 4d c0          	mov    %r9,-0x40(%rbp)
    4000a9da:	e8 34 7a ff ff       	callq  40002413 <__tls_outside_buffer>
    4000a9df:	48 8b 00             	mov    (%rax),%rax
    4000a9e2:	48 89 45 f8          	mov    %rax,-0x8(%rbp)
    4000a9e6:	48 8b 45 f8          	mov    -0x8(%rbp),%rax
    4000a9ea:	48 c7 00 05 00 00 00 	movq   $0x5,(%rax)
    4000a9f1:	48 8b 45 f8          	mov    -0x8(%rbp),%rax
    4000a9f5:	48 8d 50 08          	lea    0x8(%rax),%rdx
    4000a9f9:	48 8b 45 e8          	mov    -0x18(%rbp),%rax
    4000a9fd:	48 89 02             	mov    %rax,(%rdx)
    4000aa00:	48 8b 45 f8          	mov    -0x8(%rbp),%rax
    4000aa04:	48 8d 50 10          	lea    0x10(%rax),%rdx
    4000aa08:	48 8b 45 e0          	mov    -0x20(%rbp),%rax
    4000aa0c:	48 89 02             	mov    %rax,(%rdx)
    4000aa0f:	48 8b 45 f8          	mov    -0x8(%rbp),%rax
    4000aa13:	48 8d 50 18          	lea    0x18(%rax),%rdx
    4000aa17:	48 8b 45 d8          	mov    -0x28(%rbp),%rax
    4000aa1b:	48 89 02             	mov    %rax,(%rdx)
    4000aa1e:	48 8b 45 f8          	mov    -0x8(%rbp),%rax
    4000aa22:	48 8d 50 20          	lea    0x20(%rax),%rdx
    4000aa26:	48 8b 45 d0          	mov    -0x30(%rbp),%rax
    4000aa2a:	48 89 02             	mov    %rax,(%rdx)
    4000aa2d:	48 8b 45 f8          	mov    -0x8(%rbp),%rax
    4000aa31:	48 8d 50 28          	lea    0x28(%rax),%rdx
    4000aa35:	48 8b 45 c8          	mov    -0x38(%rbp),%rax
    4000aa39:	48 89 02             	mov    %rax,(%rdx)
    4000aa3c:	48 8b 45 f8          	mov    -0x8(%rbp),%rax
    4000aa40:	48 8d 50 30          	lea    0x30(%rax),%rdx
    4000aa44:	48 8b 45 c0          	mov    -0x40(%rbp),%rax
    4000aa48:	48 89 02             	mov    %rax,(%rdx)
    4000aa4b:	b8 00 00 00 00       	mov    $0x0,%eax
    4000aa50:	e8 6d 56 ff ff       	callq  400000c2 <ocall_syscall>
    4000aa55:	48 8b 45 f8          	mov    -0x8(%rbp),%rax
    4000aa59:	48 8b 00             	mov    (%rax),%rax
    4000aa5c:	48 89 45 f0          	mov    %rax,-0x10(%rbp)
    4000aa60:	48 8b 45 f0          	mov    -0x10(%rbp),%rax
    4000aa64:	c9                   	leaveq 
    4000aa65:	c3                   	retq   

000000004000aa66 <ocall_syscall6>:
    4000aa66:	55                   	push   %rbp
    4000aa67:	48 89 e5             	mov    %rsp,%rbp
    4000aa6a:	48 83 c4 80          	add    $0xffffffffffffff80,%rsp
    4000aa6e:	48 89 7d a8          	mov    %rdi,-0x58(%rbp)
    4000aa72:	48 89 75 a0          	mov    %rsi,-0x60(%rbp)
    4000aa76:	48 89 55 98          	mov    %rdx,-0x68(%rbp)
    4000aa7a:	48 89 4d 90          	mov    %rcx,-0x70(%rbp)
    4000aa7e:	4c 89 45 88          	mov    %r8,-0x78(%rbp)
    4000aa82:	4c 89 4d 80          	mov    %r9,-0x80(%rbp)
    4000aa86:	e8 88 79 ff ff       	callq  40002413 <__tls_outside_buffer>
    4000aa8b:	48 8b 00             	mov    (%rax),%rax
    4000aa8e:	48 89 45 d8          	mov    %rax,-0x28(%rbp)
    4000aa92:	48 8b 45 d8          	mov    -0x28(%rbp),%rax
    4000aa96:	48 c7 00 06 00 00 00 	movq   $0x6,(%rax)
    4000aa9d:	48 8b 45 d8          	mov    -0x28(%rbp),%rax
    4000aaa1:	48 8d 50 08          	lea    0x8(%rax),%rdx
    4000aaa5:	48 8b 45 a8          	mov    -0x58(%rbp),%rax
    4000aaa9:	48 89 02             	mov    %rax,(%rdx)
    4000aaac:	48 8b 45 d8          	mov    -0x28(%rbp),%rax
    4000aab0:	48 8d 50 10          	lea    0x10(%rax),%rdx
    4000aab4:	48 8b 45 a0          	mov    -0x60(%rbp),%rax
    4000aab8:	48 89 02             	mov    %rax,(%rdx)
    4000aabb:	48 8b 45 d8          	mov    -0x28(%rbp),%rax
    4000aabf:	48 8d 50 18          	lea    0x18(%rax),%rdx
    4000aac3:	48 8b 45 98          	mov    -0x68(%rbp),%rax
    4000aac7:	48 89 02             	mov    %rax,(%rdx)
    4000aaca:	48 8b 45 d8          	mov    -0x28(%rbp),%rax
    4000aace:	48 8d 50 20          	lea    0x20(%rax),%rdx
    4000aad2:	48 8b 45 90          	mov    -0x70(%rbp),%rax
    4000aad6:	48 89 02             	mov    %rax,(%rdx)
    4000aad9:	48 8b 45 d8          	mov    -0x28(%rbp),%rax
    4000aadd:	48 8d 50 28          	lea    0x28(%rax),%rdx
    4000aae1:	48 8b 45 88          	mov    -0x78(%rbp),%rax
    4000aae5:	48 89 02             	mov    %rax,(%rdx)
    4000aae8:	48 8b 45 d8          	mov    -0x28(%rbp),%rax
    4000aaec:	48 8d 50 30          	lea    0x30(%rax),%rdx
    4000aaf0:	48 8b 45 80          	mov    -0x80(%rbp),%rax
    4000aaf4:	48 89 02             	mov    %rax,(%rdx)
    4000aaf7:	48 8b 45 d8          	mov    -0x28(%rbp),%rax
    4000aafb:	48 8d 50 38          	lea    0x38(%rax),%rdx
    4000aaff:	48 8b 45 10          	mov    0x10(%rbp),%rax
    4000ab03:	48 89 02             	mov    %rax,(%rdx)
    4000ab06:	48 81 7d a8 20 01 00 	cmpq   $0x120,-0x58(%rbp)
    4000ab0d:	00 
    4000ab0e:	75 5d                	jne    4000ab6d <ocall_syscall6+0x107>
    4000ab10:	48 83 7d 98 00       	cmpq   $0x0,-0x68(%rbp)
    4000ab15:	74 56                	je     4000ab6d <ocall_syscall6+0x107>
    4000ab17:	48 8b 45 90          	mov    -0x70(%rbp),%rax
    4000ab1b:	48 89 45 d0          	mov    %rax,-0x30(%rbp)
    4000ab1f:	e8 ef 78 ff ff       	callq  40002413 <__tls_outside_buffer>
    4000ab24:	48 8b 00             	mov    (%rax),%rax
    4000ab27:	48 05 00 10 00 00    	add    $0x1000,%rax
    4000ab2d:	48 89 45 f8          	mov    %rax,-0x8(%rbp)
    4000ab31:	48 8b 45 d8          	mov    -0x28(%rbp),%rax
    4000ab35:	48 8d 50 20          	lea    0x20(%rax),%rdx
    4000ab39:	48 8b 45 f8          	mov    -0x8(%rbp),%rax
    4000ab3d:	48 89 02             	mov    %rax,(%rdx)
    4000ab40:	48 8b 45 d0          	mov    -0x30(%rbp),%rax
    4000ab44:	8b 10                	mov    (%rax),%edx
    4000ab46:	48 8b 45 f8          	mov    -0x8(%rbp),%rax
    4000ab4a:	89 10                	mov    %edx,(%rax)
    4000ab4c:	e8 c2 78 ff ff       	callq  40002413 <__tls_outside_buffer>
    4000ab51:	48 8b 00             	mov    (%rax),%rax
    4000ab54:	48 05 04 10 00 00    	add    $0x1004,%rax
    4000ab5a:	48 89 45 f8          	mov    %rax,-0x8(%rbp)
    4000ab5e:	48 8b 45 d8          	mov    -0x28(%rbp),%rax
    4000ab62:	48 8d 50 18          	lea    0x18(%rax),%rdx
    4000ab66:	48 8b 45 f8          	mov    -0x8(%rbp),%rax
    4000ab6a:	48 89 02             	mov    %rax,(%rdx)
    4000ab6d:	48 83 7d a8 33       	cmpq   $0x33,-0x58(%rbp)
    4000ab72:	75 56                	jne    4000abca <ocall_syscall6+0x164>
    4000ab74:	48 8b 45 90          	mov    -0x70(%rbp),%rax
    4000ab78:	48 89 45 d0          	mov    %rax,-0x30(%rbp)
    4000ab7c:	e8 92 78 ff ff       	callq  40002413 <__tls_outside_buffer>
    4000ab81:	48 8b 00             	mov    (%rax),%rax
    4000ab84:	48 05 00 10 00 00    	add    $0x1000,%rax
    4000ab8a:	48 89 45 f8          	mov    %rax,-0x8(%rbp)
    4000ab8e:	48 8b 45 d8          	mov    -0x28(%rbp),%rax
    4000ab92:	48 8d 50 20          	lea    0x20(%rax),%rdx
    4000ab96:	48 8b 45 f8          	mov    -0x8(%rbp),%rax
    4000ab9a:	48 89 02             	mov    %rax,(%rdx)
    4000ab9d:	48 8b 45 d0          	mov    -0x30(%rbp),%rax
    4000aba1:	8b 10                	mov    (%rax),%edx
    4000aba3:	48 8b 45 f8          	mov    -0x8(%rbp),%rax
    4000aba7:	89 10                	mov    %edx,(%rax)
    4000aba9:	e8 65 78 ff ff       	callq  40002413 <__tls_outside_buffer>
    4000abae:	48 8b 00             	mov    (%rax),%rax
    4000abb1:	48 05 04 10 00 00    	add    $0x1004,%rax
    4000abb7:	48 89 45 f8          	mov    %rax,-0x8(%rbp)
    4000abbb:	48 8b 45 d8          	mov    -0x28(%rbp),%rax
    4000abbf:	48 8d 50 18          	lea    0x18(%rax),%rdx
    4000abc3:	48 8b 45 f8          	mov    -0x8(%rbp),%rax
    4000abc7:	48 89 02             	mov    %rax,(%rdx)
    4000abca:	48 83 7d a8 37       	cmpq   $0x37,-0x58(%rbp)
    4000abcf:	75 5d                	jne    4000ac2e <ocall_syscall6+0x1c8>
    4000abd1:	48 83 7d 88 00       	cmpq   $0x0,-0x78(%rbp)
    4000abd6:	74 56                	je     4000ac2e <ocall_syscall6+0x1c8>
    4000abd8:	48 8b 45 80          	mov    -0x80(%rbp),%rax
    4000abdc:	48 89 45 d0          	mov    %rax,-0x30(%rbp)
    4000abe0:	e8 2e 78 ff ff       	callq  40002413 <__tls_outside_buffer>
    4000abe5:	48 8b 00             	mov    (%rax),%rax
    4000abe8:	48 05 00 10 00 00    	add    $0x1000,%rax
    4000abee:	48 89 45 f8          	mov    %rax,-0x8(%rbp)
    4000abf2:	48 8b 45 d8          	mov    -0x28(%rbp),%rax
    4000abf6:	48 8d 50 30          	lea    0x30(%rax),%rdx
    4000abfa:	48 8b 45 f8          	mov    -0x8(%rbp),%rax
    4000abfe:	48 89 02             	mov    %rax,(%rdx)
    4000ac01:	48 8b 45 d0          	mov    -0x30(%rbp),%rax
    4000ac05:	8b 10                	mov    (%rax),%edx
    4000ac07:	48 8b 45 f8          	mov    -0x8(%rbp),%rax
    4000ac0b:	89 10                	mov    %edx,(%rax)
    4000ac0d:	e8 01 78 ff ff       	callq  40002413 <__tls_outside_buffer>
    4000ac12:	48 8b 00             	mov    (%rax),%rax
    4000ac15:	48 05 04 10 00 00    	add    $0x1004,%rax
    4000ac1b:	48 89 45 f8          	mov    %rax,-0x8(%rbp)
    4000ac1f:	48 8b 45 d8          	mov    -0x28(%rbp),%rax
    4000ac23:	48 8d 50 28          	lea    0x28(%rax),%rdx
    4000ac27:	48 8b 45 f8          	mov    -0x8(%rbp),%rax
    4000ac2b:	48 89 02             	mov    %rax,(%rdx)
    4000ac2e:	48 83 7d a8 36       	cmpq   $0x36,-0x58(%rbp)
    4000ac33:	75 4e                	jne    4000ac83 <ocall_syscall6+0x21d>
    4000ac35:	48 83 7d 88 00       	cmpq   $0x0,-0x78(%rbp)
    4000ac3a:	74 47                	je     4000ac83 <ocall_syscall6+0x21d>
    4000ac3c:	48 83 7d 80 00       	cmpq   $0x0,-0x80(%rbp)
    4000ac41:	74 40                	je     4000ac83 <ocall_syscall6+0x21d>
    4000ac43:	48 8b 45 88          	mov    -0x78(%rbp),%rax
    4000ac47:	48 89 45 d0          	mov    %rax,-0x30(%rbp)
    4000ac4b:	e8 c3 77 ff ff       	callq  40002413 <__tls_outside_buffer>
    4000ac50:	48 8b 00             	mov    (%rax),%rax
    4000ac53:	48 05 00 10 00 00    	add    $0x1000,%rax
    4000ac59:	48 89 45 f8          	mov    %rax,-0x8(%rbp)
    4000ac5d:	48 8b 45 d8          	mov    -0x28(%rbp),%rax
    4000ac61:	48 8d 50 28          	lea    0x28(%rax),%rdx
    4000ac65:	48 8b 45 f8          	mov    -0x8(%rbp),%rax
    4000ac69:	48 89 02             	mov    %rax,(%rdx)
    4000ac6c:	48 8b 55 80          	mov    -0x80(%rbp),%rdx
    4000ac70:	48 8b 4d d0          	mov    -0x30(%rbp),%rcx
    4000ac74:	48 8b 45 f8          	mov    -0x8(%rbp),%rax
    4000ac78:	48 89 ce             	mov    %rcx,%rsi
    4000ac7b:	48 89 c7             	mov    %rax,%rdi
    4000ac7e:	e8 ea b2 ff ff       	callq  40005f6d <memcpy>
    4000ac83:	48 81 7d a8 19 01 00 	cmpq   $0x119,-0x58(%rbp)
    4000ac8a:	00 
    4000ac8b:	75 67                	jne    4000acf4 <ocall_syscall6+0x28e>
    4000ac8d:	48 83 7d 80 00       	cmpq   $0x0,-0x80(%rbp)
    4000ac92:	74 38                	je     4000accc <ocall_syscall6+0x266>
    4000ac94:	e8 7a 77 ff ff       	callq  40002413 <__tls_outside_buffer>
    4000ac99:	48 8b 00             	mov    (%rax),%rax
    4000ac9c:	48 05 00 10 00 00    	add    $0x1000,%rax
    4000aca2:	48 89 45 f8          	mov    %rax,-0x8(%rbp)
    4000aca6:	48 8b 45 d8          	mov    -0x28(%rbp),%rax
    4000acaa:	48 8d 50 30          	lea    0x30(%rax),%rdx
    4000acae:	48 8b 45 f8          	mov    -0x8(%rbp),%rax
    4000acb2:	48 89 02             	mov    %rax,(%rdx)
    4000acb5:	48 8b 55 10          	mov    0x10(%rbp),%rdx
    4000acb9:	48 8b 4d 80          	mov    -0x80(%rbp),%rcx
    4000acbd:	48 8b 45 f8          	mov    -0x8(%rbp),%rax
    4000acc1:	48 89 ce             	mov    %rcx,%rsi
    4000acc4:	48 89 c7             	mov    %rax,%rdi
    4000acc7:	e8 a1 b2 ff ff       	callq  40005f6d <memcpy>
    4000accc:	e8 42 77 ff ff       	callq  40002413 <__tls_outside_buffer>
    4000acd1:	48 8b 10             	mov    (%rax),%rdx
    4000acd4:	48 8b 45 10          	mov    0x10(%rbp),%rax
    4000acd8:	48 01 d0             	add    %rdx,%rax
    4000acdb:	48 05 00 10 00 00    	add    $0x1000,%rax
    4000ace1:	48 89 45 f8          	mov    %rax,-0x8(%rbp)
    4000ace5:	48 8b 45 d8          	mov    -0x28(%rbp),%rax
    4000ace9:	48 8d 50 18          	lea    0x18(%rax),%rdx
    4000aced:	48 8b 45 f8          	mov    -0x8(%rbp),%rax
    4000acf1:	48 89 02             	mov    %rax,(%rdx)
    4000acf4:	48 83 7d a8 34       	cmpq   $0x34,-0x58(%rbp)
    4000acf9:	75 54                	jne    4000ad4f <ocall_syscall6+0x2e9>
    4000acfb:	48 8b 45 90          	mov    -0x70(%rbp),%rax
    4000acff:	8b 00                	mov    (%rax),%eax
    4000ad01:	89 45 cc             	mov    %eax,-0x34(%rbp)
    4000ad04:	e8 0a 77 ff ff       	callq  40002413 <__tls_outside_buffer>
    4000ad09:	48 8b 00             	mov    (%rax),%rax
    4000ad0c:	48 05 00 10 00 00    	add    $0x1000,%rax
    4000ad12:	48 89 45 f8          	mov    %rax,-0x8(%rbp)
    4000ad16:	48 8b 45 f8          	mov    -0x8(%rbp),%rax
    4000ad1a:	8b 55 cc             	mov    -0x34(%rbp),%edx
    4000ad1d:	89 10                	mov    %edx,(%rax)
    4000ad1f:	48 8b 45 d8          	mov    -0x28(%rbp),%rax
    4000ad23:	48 8d 50 20          	lea    0x20(%rax),%rdx
    4000ad27:	48 8b 45 f8          	mov    -0x8(%rbp),%rax
    4000ad2b:	48 89 02             	mov    %rax,(%rdx)
    4000ad2e:	e8 e0 76 ff ff       	callq  40002413 <__tls_outside_buffer>
    4000ad33:	48 8b 00             	mov    (%rax),%rax
    4000ad36:	48 05 04 10 00 00    	add    $0x1004,%rax
    4000ad3c:	48 89 45 f8          	mov    %rax,-0x8(%rbp)
    4000ad40:	48 8b 45 d8          	mov    -0x28(%rbp),%rax
    4000ad44:	48 8d 50 18          	lea    0x18(%rax),%rdx
    4000ad48:	48 8b 45 f8          	mov    -0x8(%rbp),%rax
    4000ad4c:	48 89 02             	mov    %rax,(%rdx)
    4000ad4f:	48 83 7d a8 35       	cmpq   $0x35,-0x58(%rbp)
    4000ad54:	75 37                	jne    4000ad8d <ocall_syscall6+0x327>
    4000ad56:	48 8b 45 88          	mov    -0x78(%rbp),%rax
    4000ad5a:	48 89 45 d0          	mov    %rax,-0x30(%rbp)
    4000ad5e:	e8 b0 76 ff ff       	callq  40002413 <__tls_outside_buffer>
    4000ad63:	48 8b 00             	mov    (%rax),%rax
    4000ad66:	48 05 00 10 00 00    	add    $0x1000,%rax
    4000ad6c:	48 89 45 f8          	mov    %rax,-0x8(%rbp)
    4000ad70:	48 8b 45 d8          	mov    -0x28(%rbp),%rax
    4000ad74:	48 8d 50 28          	lea    0x28(%rax),%rdx
    4000ad78:	48 8b 45 f8          	mov    -0x8(%rbp),%rax
    4000ad7c:	48 89 02             	mov    %rax,(%rdx)
    4000ad7f:	48 8b 45 d0          	mov    -0x30(%rbp),%rax
    4000ad83:	48 8b 10             	mov    (%rax),%rdx
    4000ad86:	48 8b 45 f8          	mov    -0x8(%rbp),%rax
    4000ad8a:	48 89 10             	mov    %rdx,(%rax)
    4000ad8d:	48 83 7d a8 2d       	cmpq   $0x2d,-0x58(%rbp)
    4000ad92:	0f 85 9b 00 00 00    	jne    4000ae33 <ocall_syscall6+0x3cd>
    4000ad98:	e8 76 76 ff ff       	callq  40002413 <__tls_outside_buffer>
    4000ad9d:	48 8b 00             	mov    (%rax),%rax
    4000ada0:	48 05 00 10 00 00    	add    $0x1000,%rax
    4000ada6:	48 89 45 f8          	mov    %rax,-0x8(%rbp)
    4000adaa:	48 8b 45 d8          	mov    -0x28(%rbp),%rax
    4000adae:	48 8d 50 18          	lea    0x18(%rax),%rdx
    4000adb2:	48 8b 45 f8          	mov    -0x8(%rbp),%rax
    4000adb6:	48 89 02             	mov    %rax,(%rdx)
    4000adb9:	48 83 7d 80 00       	cmpq   $0x0,-0x80(%rbp)
    4000adbe:	74 73                	je     4000ae33 <ocall_syscall6+0x3cd>
    4000adc0:	e8 4e 76 ff ff       	callq  40002413 <__tls_outside_buffer>
    4000adc5:	48 8b 10             	mov    (%rax),%rdx
    4000adc8:	48 8b 45 90          	mov    -0x70(%rbp),%rax
    4000adcc:	48 01 d0             	add    %rdx,%rax
    4000adcf:	48 05 00 10 00 00    	add    $0x1000,%rax
    4000add5:	48 89 45 f8          	mov    %rax,-0x8(%rbp)
    4000add9:	48 8b 45 d8          	mov    -0x28(%rbp),%rax
    4000addd:	48 8d 50 38          	lea    0x38(%rax),%rdx
    4000ade1:	48 8b 45 f8          	mov    -0x8(%rbp),%rax
    4000ade5:	48 89 02             	mov    %rax,(%rdx)
    4000ade8:	48 8b 45 10          	mov    0x10(%rbp),%rax
    4000adec:	8b 10                	mov    (%rax),%edx
    4000adee:	48 8b 45 f8          	mov    -0x8(%rbp),%rax
    4000adf2:	89 10                	mov    %edx,(%rax)
    4000adf4:	e8 1a 76 ff ff       	callq  40002413 <__tls_outside_buffer>
    4000adf9:	48 8b 10             	mov    (%rax),%rdx
    4000adfc:	48 8b 45 90          	mov    -0x70(%rbp),%rax
    4000ae00:	48 01 d0             	add    %rdx,%rax
    4000ae03:	48 05 04 10 00 00    	add    $0x1004,%rax
    4000ae09:	48 89 45 f8          	mov    %rax,-0x8(%rbp)
    4000ae0d:	48 8b 45 d8          	mov    -0x28(%rbp),%rax
    4000ae11:	48 8d 50 30          	lea    0x30(%rax),%rdx
    4000ae15:	48 8b 45 f8          	mov    -0x8(%rbp),%rax
    4000ae19:	48 89 02             	mov    %rax,(%rdx)
    4000ae1c:	48 8b 55 10          	mov    0x10(%rbp),%rdx
    4000ae20:	48 8b 4d 80          	mov    -0x80(%rbp),%rcx
    4000ae24:	48 8b 45 f8          	mov    -0x8(%rbp),%rax
    4000ae28:	48 89 ce             	mov    %rcx,%rsi
    4000ae2b:	48 89 c7             	mov    %rax,%rdi
    4000ae2e:	e8 3a b1 ff ff       	callq  40005f6d <memcpy>
    4000ae33:	48 83 7d a8 2e       	cmpq   $0x2e,-0x58(%rbp)
    4000ae38:	0f 85 bb 01 00 00    	jne    4000aff9 <ocall_syscall6+0x593>
    4000ae3e:	48 8b 45 98          	mov    -0x68(%rbp),%rax
    4000ae42:	48 89 45 d0          	mov    %rax,-0x30(%rbp)
    4000ae46:	e8 c8 75 ff ff       	callq  40002413 <__tls_outside_buffer>
    4000ae4b:	48 8b 00             	mov    (%rax),%rax
    4000ae4e:	48 05 00 10 00 00    	add    $0x1000,%rax
    4000ae54:	48 89 45 f8          	mov    %rax,-0x8(%rbp)
    4000ae58:	48 8b 45 d8          	mov    -0x28(%rbp),%rax
    4000ae5c:	48 8d 50 18          	lea    0x18(%rax),%rdx
    4000ae60:	48 8b 45 f8          	mov    -0x8(%rbp),%rax
    4000ae64:	48 89 02             	mov    %rax,(%rdx)
    4000ae67:	48 8b 45 f8          	mov    -0x8(%rbp),%rax
    4000ae6b:	48 89 45 c0          	mov    %rax,-0x40(%rbp)
    4000ae6f:	48 8b 45 d0          	mov    -0x30(%rbp),%rax
    4000ae73:	48 89 45 b8          	mov    %rax,-0x48(%rbp)
    4000ae77:	48 8b 4d d0          	mov    -0x30(%rbp),%rcx
    4000ae7b:	48 8b 45 f8          	mov    -0x8(%rbp),%rax
    4000ae7f:	ba 38 00 00 00       	mov    $0x38,%edx
    4000ae84:	48 89 ce             	mov    %rcx,%rsi
    4000ae87:	48 89 c7             	mov    %rax,%rdi
    4000ae8a:	e8 de b0 ff ff       	callq  40005f6d <memcpy>
    4000ae8f:	48 83 45 f8 38       	addq   $0x38,-0x8(%rbp)
    4000ae94:	48 8b 45 b8          	mov    -0x48(%rbp),%rax
    4000ae98:	48 8b 00             	mov    (%rax),%rax
    4000ae9b:	48 85 c0             	test   %rax,%rax
    4000ae9e:	74 42                	je     4000aee2 <ocall_syscall6+0x47c>
    4000aea0:	48 8b 45 b8          	mov    -0x48(%rbp),%rax
    4000aea4:	8b 40 08             	mov    0x8(%rax),%eax
    4000aea7:	85 c0                	test   %eax,%eax
    4000aea9:	74 37                	je     4000aee2 <ocall_syscall6+0x47c>
    4000aeab:	48 8b 45 c0          	mov    -0x40(%rbp),%rax
    4000aeaf:	48 8b 55 f8          	mov    -0x8(%rbp),%rdx
    4000aeb3:	48 89 10             	mov    %rdx,(%rax)
    4000aeb6:	48 8b 45 b8          	mov    -0x48(%rbp),%rax
    4000aeba:	8b 40 08             	mov    0x8(%rax),%eax
    4000aebd:	89 c2                	mov    %eax,%edx
    4000aebf:	48 8b 45 b8          	mov    -0x48(%rbp),%rax
    4000aec3:	48 8b 08             	mov    (%rax),%rcx
    4000aec6:	48 8b 45 f8          	mov    -0x8(%rbp),%rax
    4000aeca:	48 89 ce             	mov    %rcx,%rsi
    4000aecd:	48 89 c7             	mov    %rax,%rdi
    4000aed0:	e8 98 b0 ff ff       	callq  40005f6d <memcpy>
    4000aed5:	48 8b 45 b8          	mov    -0x48(%rbp),%rax
    4000aed9:	8b 40 08             	mov    0x8(%rax),%eax
    4000aedc:	89 c0                	mov    %eax,%eax
    4000aede:	48 01 45 f8          	add    %rax,-0x8(%rbp)
    4000aee2:	48 8b 45 b8          	mov    -0x48(%rbp),%rax
    4000aee6:	48 8b 40 20          	mov    0x20(%rax),%rax
    4000aeea:	48 85 c0             	test   %rax,%rax
    4000aeed:	74 44                	je     4000af33 <ocall_syscall6+0x4cd>
    4000aeef:	48 8b 45 b8          	mov    -0x48(%rbp),%rax
    4000aef3:	8b 40 28             	mov    0x28(%rax),%eax
    4000aef6:	85 c0                	test   %eax,%eax
    4000aef8:	74 39                	je     4000af33 <ocall_syscall6+0x4cd>
    4000aefa:	48 8b 45 c0          	mov    -0x40(%rbp),%rax
    4000aefe:	48 8b 55 f8          	mov    -0x8(%rbp),%rdx
    4000af02:	48 89 50 20          	mov    %rdx,0x20(%rax)
    4000af06:	48 8b 45 b8          	mov    -0x48(%rbp),%rax
    4000af0a:	8b 40 28             	mov    0x28(%rax),%eax
    4000af0d:	89 c2                	mov    %eax,%edx
    4000af0f:	48 8b 45 b8          	mov    -0x48(%rbp),%rax
    4000af13:	48 8b 48 20          	mov    0x20(%rax),%rcx
    4000af17:	48 8b 45 f8          	mov    -0x8(%rbp),%rax
    4000af1b:	48 89 ce             	mov    %rcx,%rsi
    4000af1e:	48 89 c7             	mov    %rax,%rdi
    4000af21:	e8 47 b0 ff ff       	callq  40005f6d <memcpy>
    4000af26:	48 8b 45 b8          	mov    -0x48(%rbp),%rax
    4000af2a:	8b 40 28             	mov    0x28(%rax),%eax
    4000af2d:	89 c0                	mov    %eax,%eax
    4000af2f:	48 01 45 f8          	add    %rax,-0x8(%rbp)
    4000af33:	48 8b 45 c0          	mov    -0x40(%rbp),%rax
    4000af37:	48 8b 55 f8          	mov    -0x8(%rbp),%rdx
    4000af3b:	48 89 50 10          	mov    %rdx,0x10(%rax)
    4000af3f:	48 8b 45 b8          	mov    -0x48(%rbp),%rax
    4000af43:	48 8b 40 10          	mov    0x10(%rax),%rax
    4000af47:	48 89 45 f0          	mov    %rax,-0x10(%rbp)
    4000af4b:	48 8b 45 c0          	mov    -0x40(%rbp),%rax
    4000af4f:	48 8b 40 10          	mov    0x10(%rax),%rax
    4000af53:	48 89 45 e8          	mov    %rax,-0x18(%rbp)
    4000af57:	48 8b 45 b8          	mov    -0x48(%rbp),%rax
    4000af5b:	8b 40 18             	mov    0x18(%rax),%eax
    4000af5e:	48 98                	cltq   
    4000af60:	48 c1 e0 04          	shl    $0x4,%rax
    4000af64:	48 01 45 f8          	add    %rax,-0x8(%rbp)
    4000af68:	c7 45 e4 00 00 00 00 	movl   $0x0,-0x1c(%rbp)
    4000af6f:	eb 78                	jmp    4000afe9 <ocall_syscall6+0x583>
    4000af71:	48 8b 45 e8          	mov    -0x18(%rbp),%rax
    4000af75:	48 8b 55 f8          	mov    -0x8(%rbp),%rdx
    4000af79:	48 89 10             	mov    %rdx,(%rax)
    4000af7c:	48 8b 45 f0          	mov    -0x10(%rbp),%rax
    4000af80:	48 8b 50 08          	mov    0x8(%rax),%rdx
    4000af84:	48 8b 45 e8          	mov    -0x18(%rbp),%rax
    4000af88:	48 89 50 08          	mov    %rdx,0x8(%rax)
    4000af8c:	c7 45 e0 00 00 00 00 	movl   $0x0,-0x20(%rbp)
    4000af93:	eb 27                	jmp    4000afbc <ocall_syscall6+0x556>
    4000af95:	48 8b 45 e8          	mov    -0x18(%rbp),%rax
    4000af99:	48 8b 10             	mov    (%rax),%rdx
    4000af9c:	8b 45 e0             	mov    -0x20(%rbp),%eax
    4000af9f:	48 98                	cltq   
    4000afa1:	48 01 c2             	add    %rax,%rdx
    4000afa4:	48 8b 45 f0          	mov    -0x10(%rbp),%rax
    4000afa8:	48 8b 08             	mov    (%rax),%rcx
    4000afab:	8b 45 e0             	mov    -0x20(%rbp),%eax
    4000afae:	48 98                	cltq   
    4000afb0:	48 01 c8             	add    %rcx,%rax
    4000afb3:	0f b6 00             	movzbl (%rax),%eax
    4000afb6:	88 02                	mov    %al,(%rdx)
    4000afb8:	83 45 e0 01          	addl   $0x1,-0x20(%rbp)
    4000afbc:	8b 45 e0             	mov    -0x20(%rbp),%eax
    4000afbf:	48 63 d0             	movslq %eax,%rdx
    4000afc2:	48 8b 45 f0          	mov    -0x10(%rbp),%rax
    4000afc6:	48 8b 40 08          	mov    0x8(%rax),%rax
    4000afca:	48 39 c2             	cmp    %rax,%rdx
    4000afcd:	72 c6                	jb     4000af95 <ocall_syscall6+0x52f>
    4000afcf:	48 8b 45 f0          	mov    -0x10(%rbp),%rax
    4000afd3:	48 8b 40 08          	mov    0x8(%rax),%rax
    4000afd7:	48 01 45 f8          	add    %rax,-0x8(%rbp)
    4000afdb:	48 83 45 f0 10       	addq   $0x10,-0x10(%rbp)
    4000afe0:	48 83 45 e8 10       	addq   $0x10,-0x18(%rbp)
    4000afe5:	83 45 e4 01          	addl   $0x1,-0x1c(%rbp)
    4000afe9:	48 8b 45 b8          	mov    -0x48(%rbp),%rax
    4000afed:	8b 40 18             	mov    0x18(%rax),%eax
    4000aff0:	3b 45 e4             	cmp    -0x1c(%rbp),%eax
    4000aff3:	0f 8f 78 ff ff ff    	jg     4000af71 <ocall_syscall6+0x50b>
    4000aff9:	48 83 7d a8 2c       	cmpq   $0x2c,-0x58(%rbp)
    4000affe:	75 7e                	jne    4000b07e <ocall_syscall6+0x618>
    4000b000:	e8 0e 74 ff ff       	callq  40002413 <__tls_outside_buffer>
    4000b005:	48 8b 00             	mov    (%rax),%rax
    4000b008:	48 05 00 10 00 00    	add    $0x1000,%rax
    4000b00e:	48 89 45 f8          	mov    %rax,-0x8(%rbp)
    4000b012:	48 8b 45 d8          	mov    -0x28(%rbp),%rax
    4000b016:	48 8d 50 18          	lea    0x18(%rax),%rdx
    4000b01a:	48 8b 45 f8          	mov    -0x8(%rbp),%rax
    4000b01e:	48 89 02             	mov    %rax,(%rdx)
    4000b021:	48 8b 55 90          	mov    -0x70(%rbp),%rdx
    4000b025:	48 8b 4d 98          	mov    -0x68(%rbp),%rcx
    4000b029:	48 8b 45 f8          	mov    -0x8(%rbp),%rax
    4000b02d:	48 89 ce             	mov    %rcx,%rsi
    4000b030:	48 89 c7             	mov    %rax,%rdi
    4000b033:	e8 35 af ff ff       	callq  40005f6d <memcpy>
    4000b038:	48 83 7d 80 00       	cmpq   $0x0,-0x80(%rbp)
    4000b03d:	74 3f                	je     4000b07e <ocall_syscall6+0x618>
    4000b03f:	e8 cf 73 ff ff       	callq  40002413 <__tls_outside_buffer>
    4000b044:	48 8b 10             	mov    (%rax),%rdx
    4000b047:	48 8b 45 90          	mov    -0x70(%rbp),%rax
    4000b04b:	48 01 d0             	add    %rdx,%rax
    4000b04e:	48 05 00 10 00 00    	add    $0x1000,%rax
    4000b054:	48 89 45 f8          	mov    %rax,-0x8(%rbp)
    4000b058:	48 8b 45 d8          	mov    -0x28(%rbp),%rax
    4000b05c:	48 8d 50 30          	lea    0x30(%rax),%rdx
    4000b060:	48 8b 45 f8          	mov    -0x8(%rbp),%rax
    4000b064:	48 89 02             	mov    %rax,(%rdx)
    4000b067:	48 8b 55 10          	mov    0x10(%rbp),%rdx
    4000b06b:	48 8b 4d 80          	mov    -0x80(%rbp),%rcx
    4000b06f:	48 8b 45 f8          	mov    -0x8(%rbp),%rax
    4000b073:	48 89 ce             	mov    %rcx,%rsi
    4000b076:	48 89 c7             	mov    %rax,%rdi
    4000b079:	e8 ef ae ff ff       	callq  40005f6d <memcpy>
    4000b07e:	b8 00 00 00 00       	mov    $0x0,%eax
    4000b083:	e8 3a 50 ff ff       	callq  400000c2 <ocall_syscall>
    4000b088:	48 81 7d a8 20 01 00 	cmpq   $0x120,-0x58(%rbp)
    4000b08f:	00 
    4000b090:	75 66                	jne    4000b0f8 <ocall_syscall6+0x692>
    4000b092:	48 83 7d 98 00       	cmpq   $0x0,-0x68(%rbp)
    4000b097:	74 5f                	je     4000b0f8 <ocall_syscall6+0x692>
    4000b099:	48 8b 45 90          	mov    -0x70(%rbp),%rax
    4000b09d:	48 89 45 d0          	mov    %rax,-0x30(%rbp)
    4000b0a1:	e8 6d 73 ff ff       	callq  40002413 <__tls_outside_buffer>
    4000b0a6:	48 8b 00             	mov    (%rax),%rax
    4000b0a9:	48 05 00 10 00 00    	add    $0x1000,%rax
    4000b0af:	48 89 45 f8          	mov    %rax,-0x8(%rbp)
    4000b0b3:	48 8b 45 f8          	mov    -0x8(%rbp),%rax
    4000b0b7:	8b 10                	mov    (%rax),%edx
    4000b0b9:	48 8b 45 d0          	mov    -0x30(%rbp),%rax
    4000b0bd:	89 10                	mov    %edx,(%rax)
    4000b0bf:	48 8b 45 f8          	mov    -0x8(%rbp),%rax
    4000b0c3:	8b 00                	mov    (%rax),%eax
    4000b0c5:	89 45 cc             	mov    %eax,-0x34(%rbp)
    4000b0c8:	48 8b 45 98          	mov    -0x68(%rbp),%rax
    4000b0cc:	48 89 45 d0          	mov    %rax,-0x30(%rbp)
    4000b0d0:	e8 3e 73 ff ff       	callq  40002413 <__tls_outside_buffer>
    4000b0d5:	48 8b 00             	mov    (%rax),%rax
    4000b0d8:	48 05 04 10 00 00    	add    $0x1004,%rax
    4000b0de:	48 89 45 f8          	mov    %rax,-0x8(%rbp)
    4000b0e2:	8b 55 cc             	mov    -0x34(%rbp),%edx
    4000b0e5:	48 8b 4d f8          	mov    -0x8(%rbp),%rcx
    4000b0e9:	48 8b 45 d0          	mov    -0x30(%rbp),%rax
    4000b0ed:	48 89 ce             	mov    %rcx,%rsi
    4000b0f0:	48 89 c7             	mov    %rax,%rdi
    4000b0f3:	e8 75 ae ff ff       	callq  40005f6d <memcpy>
    4000b0f8:	48 83 7d a8 33       	cmpq   $0x33,-0x58(%rbp)
    4000b0fd:	75 71                	jne    4000b170 <ocall_syscall6+0x70a>
    4000b0ff:	48 8b 45 d8          	mov    -0x28(%rbp),%rax
    4000b103:	48 8b 00             	mov    (%rax),%rax
    4000b106:	48 89 45 b0          	mov    %rax,-0x50(%rbp)
    4000b10a:	48 83 7d b0 00       	cmpq   $0x0,-0x50(%rbp)
    4000b10f:	75 5f                	jne    4000b170 <ocall_syscall6+0x70a>
    4000b111:	48 8b 45 90          	mov    -0x70(%rbp),%rax
    4000b115:	48 89 45 d0          	mov    %rax,-0x30(%rbp)
    4000b119:	e8 f5 72 ff ff       	callq  40002413 <__tls_outside_buffer>
    4000b11e:	48 8b 00             	mov    (%rax),%rax
    4000b121:	48 05 00 10 00 00    	add    $0x1000,%rax
    4000b127:	48 89 45 f8          	mov    %rax,-0x8(%rbp)
    4000b12b:	48 8b 45 f8          	mov    -0x8(%rbp),%rax
    4000b12f:	8b 10                	mov    (%rax),%edx
    4000b131:	48 8b 45 d0          	mov    -0x30(%rbp),%rax
    4000b135:	89 10                	mov    %edx,(%rax)
    4000b137:	48 8b 45 f8          	mov    -0x8(%rbp),%rax
    4000b13b:	8b 00                	mov    (%rax),%eax
    4000b13d:	89 45 cc             	mov    %eax,-0x34(%rbp)
    4000b140:	48 8b 45 98          	mov    -0x68(%rbp),%rax
    4000b144:	48 89 45 d0          	mov    %rax,-0x30(%rbp)
    4000b148:	e8 c6 72 ff ff       	callq  40002413 <__tls_outside_buffer>
    4000b14d:	48 8b 00             	mov    (%rax),%rax
    4000b150:	48 05 04 10 00 00    	add    $0x1004,%rax
    4000b156:	48 89 45 f8          	mov    %rax,-0x8(%rbp)
    4000b15a:	8b 55 cc             	mov    -0x34(%rbp),%edx
    4000b15d:	48 8b 4d f8          	mov    -0x8(%rbp),%rcx
    4000b161:	48 8b 45 d0          	mov    -0x30(%rbp),%rax
    4000b165:	48 89 ce             	mov    %rcx,%rsi
    4000b168:	48 89 c7             	mov    %rax,%rdi
    4000b16b:	e8 fd ad ff ff       	callq  40005f6d <memcpy>
    4000b170:	48 83 7d a8 37       	cmpq   $0x37,-0x58(%rbp)
    4000b175:	75 78                	jne    4000b1ef <ocall_syscall6+0x789>
    4000b177:	48 8b 45 d8          	mov    -0x28(%rbp),%rax
    4000b17b:	48 8b 00             	mov    (%rax),%rax
    4000b17e:	48 89 45 b0          	mov    %rax,-0x50(%rbp)
    4000b182:	48 83 7d b0 00       	cmpq   $0x0,-0x50(%rbp)
    4000b187:	75 66                	jne    4000b1ef <ocall_syscall6+0x789>
    4000b189:	48 83 7d 88 00       	cmpq   $0x0,-0x78(%rbp)
    4000b18e:	74 5f                	je     4000b1ef <ocall_syscall6+0x789>
    4000b190:	48 8b 45 80          	mov    -0x80(%rbp),%rax
    4000b194:	48 89 45 d0          	mov    %rax,-0x30(%rbp)
    4000b198:	e8 76 72 ff ff       	callq  40002413 <__tls_outside_buffer>
    4000b19d:	48 8b 00             	mov    (%rax),%rax
    4000b1a0:	48 05 00 10 00 00    	add    $0x1000,%rax
    4000b1a6:	48 89 45 f8          	mov    %rax,-0x8(%rbp)
    4000b1aa:	48 8b 45 f8          	mov    -0x8(%rbp),%rax
    4000b1ae:	8b 10                	mov    (%rax),%edx
    4000b1b0:	48 8b 45 d0          	mov    -0x30(%rbp),%rax
    4000b1b4:	89 10                	mov    %edx,(%rax)
    4000b1b6:	48 8b 45 f8          	mov    -0x8(%rbp),%rax
    4000b1ba:	8b 00                	mov    (%rax),%eax
    4000b1bc:	89 45 cc             	mov    %eax,-0x34(%rbp)
    4000b1bf:	48 8b 45 88          	mov    -0x78(%rbp),%rax
    4000b1c3:	48 89 45 d0          	mov    %rax,-0x30(%rbp)
    4000b1c7:	e8 47 72 ff ff       	callq  40002413 <__tls_outside_buffer>
    4000b1cc:	48 8b 00             	mov    (%rax),%rax
    4000b1cf:	48 05 04 10 00 00    	add    $0x1004,%rax
    4000b1d5:	48 89 45 f8          	mov    %rax,-0x8(%rbp)
    4000b1d9:	8b 55 cc             	mov    -0x34(%rbp),%edx
    4000b1dc:	48 8b 4d f8          	mov    -0x8(%rbp),%rcx
    4000b1e0:	48 8b 45 d0          	mov    -0x30(%rbp),%rax
    4000b1e4:	48 89 ce             	mov    %rcx,%rsi
    4000b1e7:	48 89 c7             	mov    %rax,%rdi
    4000b1ea:	e8 7e ad ff ff       	callq  40005f6d <memcpy>
    4000b1ef:	48 81 7d a8 19 01 00 	cmpq   $0x119,-0x58(%rbp)
    4000b1f6:	00 
    4000b1f7:	75 52                	jne    4000b24b <ocall_syscall6+0x7e5>
    4000b1f9:	48 8b 45 d8          	mov    -0x28(%rbp),%rax
    4000b1fd:	48 8b 00             	mov    (%rax),%rax
    4000b200:	48 89 45 b0          	mov    %rax,-0x50(%rbp)
    4000b204:	48 83 7d b0 00       	cmpq   $0x0,-0x50(%rbp)
    4000b209:	7e 40                	jle    4000b24b <ocall_syscall6+0x7e5>
    4000b20b:	e8 03 72 ff ff       	callq  40002413 <__tls_outside_buffer>
    4000b210:	48 8b 10             	mov    (%rax),%rdx
    4000b213:	48 8b 45 10          	mov    0x10(%rbp),%rax
    4000b217:	48 01 d0             	add    %rdx,%rax
    4000b21a:	48 05 00 10 00 00    	add    $0x1000,%rax
    4000b220:	48 89 45 f8          	mov    %rax,-0x8(%rbp)
    4000b224:	48 8b 55 b0          	mov    -0x50(%rbp),%rdx
    4000b228:	48 89 d0             	mov    %rdx,%rax
    4000b22b:	48 01 c0             	add    %rax,%rax
    4000b22e:	48 01 d0             	add    %rdx,%rax
    4000b231:	48 c1 e0 02          	shl    $0x2,%rax
    4000b235:	48 89 c2             	mov    %rax,%rdx
    4000b238:	48 8b 45 98          	mov    -0x68(%rbp),%rax
    4000b23c:	48 8b 4d f8          	mov    -0x8(%rbp),%rcx
    4000b240:	48 89 ce             	mov    %rcx,%rsi
    4000b243:	48 89 c7             	mov    %rax,%rdi
    4000b246:	e8 22 ad ff ff       	callq  40005f6d <memcpy>
    4000b24b:	48 83 7d a8 34       	cmpq   $0x34,-0x58(%rbp)
    4000b250:	75 5e                	jne    4000b2b0 <ocall_syscall6+0x84a>
    4000b252:	48 8b 45 d8          	mov    -0x28(%rbp),%rax
    4000b256:	48 8b 00             	mov    (%rax),%rax
    4000b259:	48 89 45 b0          	mov    %rax,-0x50(%rbp)
    4000b25d:	48 83 7d b0 00       	cmpq   $0x0,-0x50(%rbp)
    4000b262:	75 4c                	jne    4000b2b0 <ocall_syscall6+0x84a>
    4000b264:	e8 aa 71 ff ff       	callq  40002413 <__tls_outside_buffer>
    4000b269:	48 8b 00             	mov    (%rax),%rax
    4000b26c:	48 05 00 10 00 00    	add    $0x1000,%rax
    4000b272:	48 89 45 f8          	mov    %rax,-0x8(%rbp)
    4000b276:	48 8b 45 f8          	mov    -0x8(%rbp),%rax
    4000b27a:	8b 00                	mov    (%rax),%eax
    4000b27c:	89 45 cc             	mov    %eax,-0x34(%rbp)
    4000b27f:	48 8b 45 90          	mov    -0x70(%rbp),%rax
    4000b283:	8b 55 cc             	mov    -0x34(%rbp),%edx
    4000b286:	89 10                	mov    %edx,(%rax)
    4000b288:	e8 86 71 ff ff       	callq  40002413 <__tls_outside_buffer>
    4000b28d:	48 8b 00             	mov    (%rax),%rax
    4000b290:	48 05 04 10 00 00    	add    $0x1004,%rax
    4000b296:	48 89 45 f8          	mov    %rax,-0x8(%rbp)
    4000b29a:	8b 55 cc             	mov    -0x34(%rbp),%edx
    4000b29d:	48 8b 45 98          	mov    -0x68(%rbp),%rax
    4000b2a1:	48 8b 4d f8          	mov    -0x8(%rbp),%rcx
    4000b2a5:	48 89 ce             	mov    %rcx,%rsi
    4000b2a8:	48 89 c7             	mov    %rax,%rdi
    4000b2ab:	e8 bd ac ff ff       	callq  40005f6d <memcpy>
    4000b2b0:	48 83 7d a8 35       	cmpq   $0x35,-0x58(%rbp)
    4000b2b5:	75 28                	jne    4000b2df <ocall_syscall6+0x879>
    4000b2b7:	48 8b 45 88          	mov    -0x78(%rbp),%rax
    4000b2bb:	48 89 45 d0          	mov    %rax,-0x30(%rbp)
    4000b2bf:	e8 4f 71 ff ff       	callq  40002413 <__tls_outside_buffer>
    4000b2c4:	48 8b 00             	mov    (%rax),%rax
    4000b2c7:	48 05 00 10 00 00    	add    $0x1000,%rax
    4000b2cd:	48 89 45 f8          	mov    %rax,-0x8(%rbp)
    4000b2d1:	48 8b 45 f8          	mov    -0x8(%rbp),%rax
    4000b2d5:	48 8b 10             	mov    (%rax),%rdx
    4000b2d8:	48 8b 45 d0          	mov    -0x30(%rbp),%rax
    4000b2dc:	48 89 10             	mov    %rdx,(%rax)
    4000b2df:	48 83 7d a8 2d       	cmpq   $0x2d,-0x58(%rbp)
    4000b2e4:	0f 85 85 00 00 00    	jne    4000b36f <ocall_syscall6+0x909>
    4000b2ea:	e8 24 71 ff ff       	callq  40002413 <__tls_outside_buffer>
    4000b2ef:	48 8b 00             	mov    (%rax),%rax
    4000b2f2:	48 05 00 10 00 00    	add    $0x1000,%rax
    4000b2f8:	48 89 45 f8          	mov    %rax,-0x8(%rbp)
    4000b2fc:	48 8b 55 90          	mov    -0x70(%rbp),%rdx
    4000b300:	48 8b 45 98          	mov    -0x68(%rbp),%rax
    4000b304:	48 8b 4d f8          	mov    -0x8(%rbp),%rcx
    4000b308:	48 89 ce             	mov    %rcx,%rsi
    4000b30b:	48 89 c7             	mov    %rax,%rdi
    4000b30e:	e8 5a ac ff ff       	callq  40005f6d <memcpy>
    4000b313:	48 83 7d 80 00       	cmpq   $0x0,-0x80(%rbp)
    4000b318:	74 55                	je     4000b36f <ocall_syscall6+0x909>
    4000b31a:	e8 f4 70 ff ff       	callq  40002413 <__tls_outside_buffer>
    4000b31f:	48 8b 10             	mov    (%rax),%rdx
    4000b322:	48 8b 45 90          	mov    -0x70(%rbp),%rax
    4000b326:	48 01 d0             	add    %rdx,%rax
    4000b329:	48 05 00 10 00 00    	add    $0x1000,%rax
    4000b32f:	48 89 45 f8          	mov    %rax,-0x8(%rbp)
    4000b333:	48 8b 45 10          	mov    0x10(%rbp),%rax
    4000b337:	48 8b 55 f8          	mov    -0x8(%rbp),%rdx
    4000b33b:	8b 12                	mov    (%rdx),%edx
    4000b33d:	89 10                	mov    %edx,(%rax)
    4000b33f:	e8 cf 70 ff ff       	callq  40002413 <__tls_outside_buffer>
    4000b344:	48 8b 10             	mov    (%rax),%rdx
    4000b347:	48 8b 45 90          	mov    -0x70(%rbp),%rax
    4000b34b:	48 01 d0             	add    %rdx,%rax
    4000b34e:	48 05 04 10 00 00    	add    $0x1004,%rax
    4000b354:	48 89 45 f8          	mov    %rax,-0x8(%rbp)
    4000b358:	48 8b 55 10          	mov    0x10(%rbp),%rdx
    4000b35c:	48 8b 45 80          	mov    -0x80(%rbp),%rax
    4000b360:	48 8b 4d f8          	mov    -0x8(%rbp),%rcx
    4000b364:	48 89 ce             	mov    %rcx,%rsi
    4000b367:	48 89 c7             	mov    %rax,%rdi
    4000b36a:	e8 fe ab ff ff       	callq  40005f6d <memcpy>
    4000b36f:	48 8b 45 d8          	mov    -0x28(%rbp),%rax
    4000b373:	48 8b 00             	mov    (%rax),%rax
    4000b376:	48 89 45 b0          	mov    %rax,-0x50(%rbp)
    4000b37a:	48 8b 45 b0          	mov    -0x50(%rbp),%rax
    4000b37e:	c9                   	leaveq 
    4000b37f:	c3                   	retq   

000000004000b380 <dump_out>:
    4000b380:	55                   	push   %rbp
    4000b381:	48 89 e5             	mov    %rsp,%rbp
    4000b384:	48 83 ec 40          	sub    $0x40,%rsp
    4000b388:	48 89 7d c8          	mov    %rdi,-0x38(%rbp)
    4000b38c:	48 8b 05 6d 69 3f 00 	mov    0x3f696d(%rip),%rax        # 40401d00 <__fini_array_end+0x8>
    4000b393:	48 89 45 d8          	mov    %rax,-0x28(%rbp)
    4000b397:	48 8b 45 c8          	mov    -0x38(%rbp),%rax
    4000b39b:	48 89 c6             	mov    %rax,%rsi
    4000b39e:	48 8d 3d db 60 3f 00 	lea    0x3f60db(%rip),%rdi        # 40401480 <__fsmu8+0xd0>
    4000b3a5:	b8 00 00 00 00       	mov    $0x0,%eax
    4000b3aa:	e8 4f 8c ff ff       	callq  40003ffe <printf>
    4000b3af:	48 8b 45 d8          	mov    -0x28(%rbp),%rax
    4000b3b3:	48 89 45 f8          	mov    %rax,-0x8(%rbp)
    4000b3b7:	48 8b 45 c8          	mov    -0x38(%rbp),%rax
    4000b3bb:	48 89 45 f0          	mov    %rax,-0x10(%rbp)
    4000b3bf:	48 8b 55 f0          	mov    -0x10(%rbp),%rdx
    4000b3c3:	48 8b 45 f8          	mov    -0x8(%rbp),%rax
    4000b3c7:	48 89 c6             	mov    %rax,%rsi
    4000b3ca:	48 8d 3d cf 60 3f 00 	lea    0x3f60cf(%rip),%rdi        # 404014a0 <__fsmu8+0xf0>
    4000b3d1:	b8 00 00 00 00       	mov    $0x0,%eax
    4000b3d6:	e8 23 8c ff ff       	callq  40003ffe <printf>
    4000b3db:	48 8d 05 06 a2 3f 00 	lea    0x3fa206(%rip),%rax        # 404055e8 <mthread_pages>
    4000b3e2:	48 8b 38             	mov    (%rax),%rdi
    4000b3e5:	48 8d 05 f4 a1 3f 00 	lea    0x3fa1f4(%rip),%rax        # 404055e0 <mstack_pages>
    4000b3ec:	48 8b 30             	mov    (%rax),%rsi
    4000b3ef:	48 8d 05 e2 a1 3f 00 	lea    0x3fa1e2(%rip),%rax        # 404055d8 <mheap_pages>
    4000b3f6:	48 8b 08             	mov    (%rax),%rcx
    4000b3f9:	48 8d 05 d0 a1 3f 00 	lea    0x3fa1d0(%rip),%rax        # 404055d0 <mdata_pages>
    4000b400:	48 8b 10             	mov    (%rax),%rdx
    4000b403:	48 8d 05 be a1 3f 00 	lea    0x3fa1be(%rip),%rax        # 404055c8 <mcode_pages>
    4000b40a:	48 8b 00             	mov    (%rax),%rax
    4000b40d:	49 89 f9             	mov    %rdi,%r9
    4000b410:	49 89 f0             	mov    %rsi,%r8
    4000b413:	48 89 c6             	mov    %rax,%rsi
    4000b416:	48 8d 3d b3 60 3f 00 	lea    0x3f60b3(%rip),%rdi        # 404014d0 <__fsmu8+0x120>
    4000b41d:	b8 00 00 00 00       	mov    $0x0,%eax
    4000b422:	e8 d7 8b ff ff       	callq  40003ffe <printf>
    4000b427:	48 c7 45 e8 00 00 00 	movq   $0x0,-0x18(%rbp)
    4000b42e:	00 
    4000b42f:	eb 4a                	jmp    4000b47b <dump_out+0xfb>
    4000b431:	c7 45 e4 00 00 00 00 	movl   $0x0,-0x1c(%rbp)
    4000b438:	eb 23                	jmp    4000b45d <dump_out+0xdd>
    4000b43a:	8b 45 e4             	mov    -0x1c(%rbp),%eax
    4000b43d:	48 63 d0             	movslq %eax,%rdx
    4000b440:	48 8b 45 f0          	mov    -0x10(%rbp),%rax
    4000b444:	48 01 c2             	add    %rax,%rdx
    4000b447:	8b 45 e4             	mov    -0x1c(%rbp),%eax
    4000b44a:	48 63 c8             	movslq %eax,%rcx
    4000b44d:	48 8b 45 f8          	mov    -0x8(%rbp),%rax
    4000b451:	48 01 c8             	add    %rcx,%rax
    4000b454:	0f b6 00             	movzbl (%rax),%eax
    4000b457:	88 02                	mov    %al,(%rdx)
    4000b459:	83 45 e4 01          	addl   $0x1,-0x1c(%rbp)
    4000b45d:	81 7d e4 ff 0f 00 00 	cmpl   $0xfff,-0x1c(%rbp)
    4000b464:	7e d4                	jle    4000b43a <dump_out+0xba>
    4000b466:	48 81 45 f8 00 10 00 	addq   $0x1000,-0x8(%rbp)
    4000b46d:	00 
    4000b46e:	48 81 45 f0 00 10 00 	addq   $0x1000,-0x10(%rbp)
    4000b475:	00 
    4000b476:	48 83 45 e8 01       	addq   $0x1,-0x18(%rbp)
    4000b47b:	48 8d 05 46 a1 3f 00 	lea    0x3fa146(%rip),%rax        # 404055c8 <mcode_pages>
    4000b482:	48 8b 00             	mov    (%rax),%rax
    4000b485:	48 39 45 e8          	cmp    %rax,-0x18(%rbp)
    4000b489:	72 a6                	jb     4000b431 <dump_out+0xb1>
    4000b48b:	48 8d 05 36 a1 3f 00 	lea    0x3fa136(%rip),%rax        # 404055c8 <mcode_pages>
    4000b492:	48 8b 00             	mov    (%rax),%rax
    4000b495:	48 c1 e0 0c          	shl    $0xc,%rax
    4000b499:	48 89 45 d0          	mov    %rax,-0x30(%rbp)
    4000b49d:	48 8b 55 d8          	mov    -0x28(%rbp),%rdx
    4000b4a1:	48 8b 45 d0          	mov    -0x30(%rbp),%rax
    4000b4a5:	48 01 d0             	add    %rdx,%rax
    4000b4a8:	48 89 45 f8          	mov    %rax,-0x8(%rbp)
    4000b4ac:	48 8b 55 c8          	mov    -0x38(%rbp),%rdx
    4000b4b0:	48 8b 45 d0          	mov    -0x30(%rbp),%rax
    4000b4b4:	48 01 d0             	add    %rdx,%rax
    4000b4b7:	48 89 45 f0          	mov    %rax,-0x10(%rbp)
    4000b4bb:	48 c7 45 e8 00 00 00 	movq   $0x0,-0x18(%rbp)
    4000b4c2:	00 
    4000b4c3:	eb 4a                	jmp    4000b50f <dump_out+0x18f>
    4000b4c5:	c7 45 e4 00 00 00 00 	movl   $0x0,-0x1c(%rbp)
    4000b4cc:	eb 23                	jmp    4000b4f1 <dump_out+0x171>
    4000b4ce:	8b 45 e4             	mov    -0x1c(%rbp),%eax
    4000b4d1:	48 63 d0             	movslq %eax,%rdx
    4000b4d4:	48 8b 45 f0          	mov    -0x10(%rbp),%rax
    4000b4d8:	48 01 c2             	add    %rax,%rdx
    4000b4db:	8b 45 e4             	mov    -0x1c(%rbp),%eax
    4000b4de:	48 63 c8             	movslq %eax,%rcx
    4000b4e1:	48 8b 45 f8          	mov    -0x8(%rbp),%rax
    4000b4e5:	48 01 c8             	add    %rcx,%rax
    4000b4e8:	0f b6 00             	movzbl (%rax),%eax
    4000b4eb:	88 02                	mov    %al,(%rdx)
    4000b4ed:	83 45 e4 01          	addl   $0x1,-0x1c(%rbp)
    4000b4f1:	81 7d e4 ff 0f 00 00 	cmpl   $0xfff,-0x1c(%rbp)
    4000b4f8:	7e d4                	jle    4000b4ce <dump_out+0x14e>
    4000b4fa:	48 81 45 f8 00 10 00 	addq   $0x1000,-0x8(%rbp)
    4000b501:	00 
    4000b502:	48 81 45 f0 00 10 00 	addq   $0x1000,-0x10(%rbp)
    4000b509:	00 
    4000b50a:	48 83 45 e8 01       	addq   $0x1,-0x18(%rbp)
    4000b50f:	48 8d 05 ba a0 3f 00 	lea    0x3fa0ba(%rip),%rax        # 404055d0 <mdata_pages>
    4000b516:	48 8b 00             	mov    (%rax),%rax
    4000b519:	48 39 45 e8          	cmp    %rax,-0x18(%rbp)
    4000b51d:	72 a6                	jb     4000b4c5 <dump_out+0x145>
    4000b51f:	48 8d 05 a2 a0 3f 00 	lea    0x3fa0a2(%rip),%rax        # 404055c8 <mcode_pages>
    4000b526:	48 8b 10             	mov    (%rax),%rdx
    4000b529:	48 8d 05 a0 a0 3f 00 	lea    0x3fa0a0(%rip),%rax        # 404055d0 <mdata_pages>
    4000b530:	48 8b 00             	mov    (%rax),%rax
    4000b533:	48 01 d0             	add    %rdx,%rax
    4000b536:	48 c1 e0 0c          	shl    $0xc,%rax
    4000b53a:	48 89 45 d0          	mov    %rax,-0x30(%rbp)
    4000b53e:	48 8b 55 d8          	mov    -0x28(%rbp),%rdx
    4000b542:	48 8b 45 d0          	mov    -0x30(%rbp),%rax
    4000b546:	48 01 d0             	add    %rdx,%rax
    4000b549:	48 89 45 f8          	mov    %rax,-0x8(%rbp)
    4000b54d:	48 8b 55 c8          	mov    -0x38(%rbp),%rdx
    4000b551:	48 8b 45 d0          	mov    -0x30(%rbp),%rax
    4000b555:	48 01 d0             	add    %rdx,%rax
    4000b558:	48 89 45 f0          	mov    %rax,-0x10(%rbp)
    4000b55c:	48 c7 45 e8 00 00 00 	movq   $0x0,-0x18(%rbp)
    4000b563:	00 
    4000b564:	eb 4a                	jmp    4000b5b0 <dump_out+0x230>
    4000b566:	c7 45 e4 00 00 00 00 	movl   $0x0,-0x1c(%rbp)
    4000b56d:	eb 23                	jmp    4000b592 <dump_out+0x212>
    4000b56f:	8b 45 e4             	mov    -0x1c(%rbp),%eax
    4000b572:	48 63 d0             	movslq %eax,%rdx
    4000b575:	48 8b 45 f0          	mov    -0x10(%rbp),%rax
    4000b579:	48 01 c2             	add    %rax,%rdx
    4000b57c:	8b 45 e4             	mov    -0x1c(%rbp),%eax
    4000b57f:	48 63 c8             	movslq %eax,%rcx
    4000b582:	48 8b 45 f8          	mov    -0x8(%rbp),%rax
    4000b586:	48 01 c8             	add    %rcx,%rax
    4000b589:	0f b6 00             	movzbl (%rax),%eax
    4000b58c:	88 02                	mov    %al,(%rdx)
    4000b58e:	83 45 e4 01          	addl   $0x1,-0x1c(%rbp)
    4000b592:	81 7d e4 ff 0f 00 00 	cmpl   $0xfff,-0x1c(%rbp)
    4000b599:	7e d4                	jle    4000b56f <dump_out+0x1ef>
    4000b59b:	48 81 45 f8 00 10 00 	addq   $0x1000,-0x8(%rbp)
    4000b5a2:	00 
    4000b5a3:	48 81 45 f0 00 10 00 	addq   $0x1000,-0x10(%rbp)
    4000b5aa:	00 
    4000b5ab:	48 83 45 e8 01       	addq   $0x1,-0x18(%rbp)
    4000b5b0:	48 8d 05 21 a0 3f 00 	lea    0x3fa021(%rip),%rax        # 404055d8 <mheap_pages>
    4000b5b7:	48 8b 00             	mov    (%rax),%rax
    4000b5ba:	48 39 45 e8          	cmp    %rax,-0x18(%rbp)
    4000b5be:	72 a6                	jb     4000b566 <dump_out+0x1e6>
    4000b5c0:	48 8d 05 01 a0 3f 00 	lea    0x3fa001(%rip),%rax        # 404055c8 <mcode_pages>
    4000b5c7:	48 8b 10             	mov    (%rax),%rdx
    4000b5ca:	48 8d 05 ff 9f 3f 00 	lea    0x3f9fff(%rip),%rax        # 404055d0 <mdata_pages>
    4000b5d1:	48 8b 00             	mov    (%rax),%rax
    4000b5d4:	48 01 c2             	add    %rax,%rdx
    4000b5d7:	48 8d 05 fa 9f 3f 00 	lea    0x3f9ffa(%rip),%rax        # 404055d8 <mheap_pages>
    4000b5de:	48 8b 00             	mov    (%rax),%rax
    4000b5e1:	48 01 d0             	add    %rdx,%rax
    4000b5e4:	48 c1 e0 0c          	shl    $0xc,%rax
    4000b5e8:	48 89 45 d0          	mov    %rax,-0x30(%rbp)
    4000b5ec:	48 8b 55 d8          	mov    -0x28(%rbp),%rdx
    4000b5f0:	48 8b 45 d0          	mov    -0x30(%rbp),%rax
    4000b5f4:	48 01 d0             	add    %rdx,%rax
    4000b5f7:	48 89 45 f8          	mov    %rax,-0x8(%rbp)
    4000b5fb:	48 8b 55 c8          	mov    -0x38(%rbp),%rdx
    4000b5ff:	48 8b 45 d0          	mov    -0x30(%rbp),%rax
    4000b603:	48 01 d0             	add    %rdx,%rax
    4000b606:	48 89 45 f0          	mov    %rax,-0x10(%rbp)
    4000b60a:	48 c7 45 e8 00 00 00 	movq   $0x0,-0x18(%rbp)
    4000b611:	00 
    4000b612:	eb 4a                	jmp    4000b65e <dump_out+0x2de>
    4000b614:	c7 45 e4 00 00 00 00 	movl   $0x0,-0x1c(%rbp)
    4000b61b:	eb 23                	jmp    4000b640 <dump_out+0x2c0>
    4000b61d:	8b 45 e4             	mov    -0x1c(%rbp),%eax
    4000b620:	48 63 d0             	movslq %eax,%rdx
    4000b623:	48 8b 45 f0          	mov    -0x10(%rbp),%rax
    4000b627:	48 01 c2             	add    %rax,%rdx
    4000b62a:	8b 45 e4             	mov    -0x1c(%rbp),%eax
    4000b62d:	48 63 c8             	movslq %eax,%rcx
    4000b630:	48 8b 45 f8          	mov    -0x8(%rbp),%rax
    4000b634:	48 01 c8             	add    %rcx,%rax
    4000b637:	0f b6 00             	movzbl (%rax),%eax
    4000b63a:	88 02                	mov    %al,(%rdx)
    4000b63c:	83 45 e4 01          	addl   $0x1,-0x1c(%rbp)
    4000b640:	81 7d e4 ff 0f 00 00 	cmpl   $0xfff,-0x1c(%rbp)
    4000b647:	7e d4                	jle    4000b61d <dump_out+0x29d>
    4000b649:	48 81 45 f8 00 10 00 	addq   $0x1000,-0x8(%rbp)
    4000b650:	00 
    4000b651:	48 81 45 f0 00 10 00 	addq   $0x1000,-0x10(%rbp)
    4000b658:	00 
    4000b659:	48 83 45 e8 01       	addq   $0x1,-0x18(%rbp)
    4000b65e:	48 8d 05 7b 9f 3f 00 	lea    0x3f9f7b(%rip),%rax        # 404055e0 <mstack_pages>
    4000b665:	48 8b 00             	mov    (%rax),%rax
    4000b668:	48 39 45 e8          	cmp    %rax,-0x18(%rbp)
    4000b66c:	72 a6                	jb     4000b614 <dump_out+0x294>
    4000b66e:	c7 45 e0 00 00 00 00 	movl   $0x0,-0x20(%rbp)
    4000b675:	48 8d 05 4c 9f 3f 00 	lea    0x3f9f4c(%rip),%rax        # 404055c8 <mcode_pages>
    4000b67c:	48 8b 10             	mov    (%rax),%rdx
    4000b67f:	48 8d 05 4a 9f 3f 00 	lea    0x3f9f4a(%rip),%rax        # 404055d0 <mdata_pages>
    4000b686:	48 8b 00             	mov    (%rax),%rax
    4000b689:	48 01 c2             	add    %rax,%rdx
    4000b68c:	48 8d 05 45 9f 3f 00 	lea    0x3f9f45(%rip),%rax        # 404055d8 <mheap_pages>
    4000b693:	48 8b 00             	mov    (%rax),%rax
    4000b696:	48 01 c2             	add    %rax,%rdx
    4000b699:	48 8d 05 40 9f 3f 00 	lea    0x3f9f40(%rip),%rax        # 404055e0 <mstack_pages>
    4000b6a0:	48 8b 00             	mov    (%rax),%rax
    4000b6a3:	48 01 d0             	add    %rdx,%rax
    4000b6a6:	48 c1 e0 0c          	shl    $0xc,%rax
    4000b6aa:	48 89 45 d0          	mov    %rax,-0x30(%rbp)
    4000b6ae:	48 8b 55 d8          	mov    -0x28(%rbp),%rdx
    4000b6b2:	48 8b 45 d0          	mov    -0x30(%rbp),%rax
    4000b6b6:	48 01 d0             	add    %rdx,%rax
    4000b6b9:	48 89 45 f8          	mov    %rax,-0x8(%rbp)
    4000b6bd:	48 8b 55 c8          	mov    -0x38(%rbp),%rdx
    4000b6c1:	48 8b 45 d0          	mov    -0x30(%rbp),%rax
    4000b6c5:	48 01 d0             	add    %rdx,%rax
    4000b6c8:	48 89 45 f0          	mov    %rax,-0x10(%rbp)
    4000b6cc:	48 c7 45 e8 00 00 00 	movq   $0x0,-0x18(%rbp)
    4000b6d3:	00 
    4000b6d4:	e9 99 00 00 00       	jmpq   4000b772 <dump_out+0x3f2>
    4000b6d9:	8b 4d e0             	mov    -0x20(%rbp),%ecx
    4000b6dc:	ba 56 55 55 55       	mov    $0x55555556,%edx
    4000b6e1:	89 c8                	mov    %ecx,%eax
    4000b6e3:	f7 ea                	imul   %edx
    4000b6e5:	89 c8                	mov    %ecx,%eax
    4000b6e7:	c1 f8 1f             	sar    $0x1f,%eax
    4000b6ea:	29 c2                	sub    %eax,%edx
    4000b6ec:	89 d0                	mov    %edx,%eax
    4000b6ee:	89 c2                	mov    %eax,%edx
    4000b6f0:	01 d2                	add    %edx,%edx
    4000b6f2:	01 c2                	add    %eax,%edx
    4000b6f4:	89 c8                	mov    %ecx,%eax
    4000b6f6:	29 d0                	sub    %edx,%eax
    4000b6f8:	85 c0                	test   %eax,%eax
    4000b6fa:	74 37                	je     4000b733 <dump_out+0x3b3>
    4000b6fc:	c7 45 e4 00 00 00 00 	movl   $0x0,-0x1c(%rbp)
    4000b703:	eb 23                	jmp    4000b728 <dump_out+0x3a8>
    4000b705:	8b 45 e4             	mov    -0x1c(%rbp),%eax
    4000b708:	48 63 d0             	movslq %eax,%rdx
    4000b70b:	48 8b 45 f0          	mov    -0x10(%rbp),%rax
    4000b70f:	48 01 c2             	add    %rax,%rdx
    4000b712:	8b 45 e4             	mov    -0x1c(%rbp),%eax
    4000b715:	48 63 c8             	movslq %eax,%rcx
    4000b718:	48 8b 45 f8          	mov    -0x8(%rbp),%rax
    4000b71c:	48 01 c8             	add    %rcx,%rax
    4000b71f:	0f b6 00             	movzbl (%rax),%eax
    4000b722:	88 02                	mov    %al,(%rdx)
    4000b724:	83 45 e4 01          	addl   $0x1,-0x1c(%rbp)
    4000b728:	81 7d e4 ff 0f 00 00 	cmpl   $0xfff,-0x1c(%rbp)
    4000b72f:	7e d4                	jle    4000b705 <dump_out+0x385>
    4000b731:	eb 26                	jmp    4000b759 <dump_out+0x3d9>
    4000b733:	c7 45 e4 00 00 00 00 	movl   $0x0,-0x1c(%rbp)
    4000b73a:	eb 14                	jmp    4000b750 <dump_out+0x3d0>
    4000b73c:	8b 45 e4             	mov    -0x1c(%rbp),%eax
    4000b73f:	48 63 d0             	movslq %eax,%rdx
    4000b742:	48 8b 45 f0          	mov    -0x10(%rbp),%rax
    4000b746:	48 01 d0             	add    %rdx,%rax
    4000b749:	c6 00 00             	movb   $0x0,(%rax)
    4000b74c:	83 45 e4 01          	addl   $0x1,-0x1c(%rbp)
    4000b750:	81 7d e4 ff 0f 00 00 	cmpl   $0xfff,-0x1c(%rbp)
    4000b757:	7e e3                	jle    4000b73c <dump_out+0x3bc>
    4000b759:	48 81 45 f8 00 10 00 	addq   $0x1000,-0x8(%rbp)
    4000b760:	00 
    4000b761:	48 81 45 f0 00 10 00 	addq   $0x1000,-0x10(%rbp)
    4000b768:	00 
    4000b769:	83 45 e0 01          	addl   $0x1,-0x20(%rbp)
    4000b76d:	48 83 45 e8 01       	addq   $0x1,-0x18(%rbp)
    4000b772:	48 8d 05 6f 9e 3f 00 	lea    0x3f9e6f(%rip),%rax        # 404055e8 <mthread_pages>
    4000b779:	48 8b 00             	mov    (%rax),%rax
    4000b77c:	48 39 45 e8          	cmp    %rax,-0x18(%rbp)
    4000b780:	0f 82 53 ff ff ff    	jb     4000b6d9 <dump_out+0x359>
    4000b786:	90                   	nop
    4000b787:	c9                   	leaveq 
    4000b788:	c3                   	retq   
