
mcf_enclave:     file format elf64-x86-64


Disassembly of section .text:

0000000040000000 <enclave_start>:
    40000000:	49 83 f9 00          	cmp    $0x0,%r9
    40000004:	75 35                	jne    4000003b <entry>
    40000006:	48 89 e0             	mov    %rsp,%rax
    40000009:	48 c7 c4 00 10 80 40 	mov    $0x40801000,%rsp
    40000010:	50                   	push   %rax
    40000011:	53                   	push   %rbx
    40000012:	51                   	push   %rcx
    40000013:	52                   	push   %rdx
    40000014:	55                   	push   %rbp
    40000015:	56                   	push   %rsi
    40000016:	57                   	push   %rdi
    40000017:	41 50                	push   %r8
    40000019:	41 51                	push   %r9
    4000001b:	41 52                	push   %r10
    4000001d:	41 53                	push   %r11
    4000001f:	41 54                	push   %r12
    40000021:	41 55                	push   %r13
    40000023:	41 56                	push   %r14
    40000025:	41 57                	push   %r15
    40000027:	9c                   	pushfq 
    40000028:	48 8d 05 59 00 00 00 	lea    0x59(%rip),%rax        # 40000088 <exit>
    4000002f:	50                   	push   %rax
    40000030:	4c 89 cf             	mov    %r9,%rdi
    40000033:	4c 89 d6             	mov    %r10,%rsi
    40000036:	e9 03 01 00 00       	jmpq   4000013e <trampoline>

000000004000003b <entry>:
    4000003b:	49 81 f9 86 00 01 00 	cmp    $0x10086,%r9
    40000042:	0f 84 ca 00 00 00    	je     40000112 <ocall_return>
    40000048:	48 89 e0             	mov    %rsp,%rax
    4000004b:	64 48 89 04 25 20 00 	mov    %rax,%fs:0x20
    40000052:	00 00 
    40000054:	64 48 8b 24 25 30 00 	mov    %fs:0x30,%rsp
    4000005b:	00 00 
    4000005d:	50                   	push   %rax
    4000005e:	53                   	push   %rbx
    4000005f:	51                   	push   %rcx
    40000060:	52                   	push   %rdx
    40000061:	55                   	push   %rbp
    40000062:	56                   	push   %rsi
    40000063:	57                   	push   %rdi
    40000064:	41 50                	push   %r8
    40000066:	41 51                	push   %r9
    40000068:	41 52                	push   %r10
    4000006a:	41 53                	push   %r11
    4000006c:	41 54                	push   %r12
    4000006e:	41 55                	push   %r13
    40000070:	41 56                	push   %r14
    40000072:	41 57                	push   %r15
    40000074:	9c                   	pushfq 
    40000075:	48 8d 05 0c 00 00 00 	lea    0xc(%rip),%rax        # 40000088 <exit>
    4000007c:	50                   	push   %rax
    4000007d:	4c 89 cf             	mov    %r9,%rdi
    40000080:	4c 89 d6             	mov    %r10,%rsi
    40000083:	e9 b6 00 00 00       	jmpq   4000013e <trampoline>

0000000040000088 <exit>:
    40000088:	9d                   	popfq  
    40000089:	41 5f                	pop    %r15
    4000008b:	41 5e                	pop    %r14
    4000008d:	41 5d                	pop    %r13
    4000008f:	41 5c                	pop    %r12
    40000091:	41 5b                	pop    %r11
    40000093:	41 5a                	pop    %r10
    40000095:	41 59                	pop    %r9
    40000097:	41 58                	pop    %r8
    40000099:	5f                   	pop    %rdi
    4000009a:	5e                   	pop    %rsi
    4000009b:	5d                   	pop    %rbp
    4000009c:	5a                   	pop    %rdx
    4000009d:	59                   	pop    %rcx
    4000009e:	5b                   	pop    %rbx
    4000009f:	5c                   	pop    %rsp
    400000a0:	48 89 cb             	mov    %rcx,%rbx
    400000a3:	48 c7 c1 00 50 40 00 	mov    $0x405000,%rcx
    400000aa:	48 c7 c0 04 00 00 00 	mov    $0x4,%rax

00000000400000b1 <eexit_tag>:
    400000b1:	0f 01 d7             	enclu  
    400000b4:	90                   	nop
    400000b5:	90                   	nop
    400000b6:	90                   	nop
    400000b7:	90                   	nop
    400000b8:	90                   	nop
    400000b9:	90                   	nop
    400000ba:	90                   	nop
    400000bb:	90                   	nop
    400000bc:	90                   	nop
    400000bd:	90                   	nop
    400000be:	90                   	nop
    400000bf:	90                   	nop
    400000c0:	90                   	nop
    400000c1:	90                   	nop

00000000400000c2 <ocall_syscall>:
    400000c2:	48 8d 44 24 08       	lea    0x8(%rsp),%rax
    400000c7:	64 48 89 04 25 30 00 	mov    %rax,%fs:0x30
    400000ce:	00 00 
    400000d0:	48 8b 04 24          	mov    (%rsp),%rax
    400000d4:	64 48 8b 24 25 10 00 	mov    %fs:0x10,%rsp
    400000db:	00 00 
    400000dd:	50                   	push   %rax
    400000de:	53                   	push   %rbx
    400000df:	51                   	push   %rcx
    400000e0:	52                   	push   %rdx
    400000e1:	55                   	push   %rbp
    400000e2:	56                   	push   %rsi
    400000e3:	57                   	push   %rdi
    400000e4:	41 50                	push   %r8
    400000e6:	41 51                	push   %r9
    400000e8:	41 52                	push   %r10
    400000ea:	41 53                	push   %r11
    400000ec:	41 54                	push   %r12
    400000ee:	41 55                	push   %r13
    400000f0:	41 56                	push   %r14
    400000f2:	41 57                	push   %r15
    400000f4:	9c                   	pushfq 
    400000f5:	64 48 8b 24 25 20 00 	mov    %fs:0x20,%rsp
    400000fc:	00 00 
    400000fe:	48 8b 1c 25 70 58 40 	mov    0x40405870,%rbx
    40000105:	40 
    40000106:	48 c7 c0 04 00 00 00 	mov    $0x4,%rax
    4000010d:	e9 9f ff ff ff       	jmpq   400000b1 <eexit_tag>

0000000040000112 <ocall_return>:
    40000112:	64 48 8b 24 25 18 00 	mov    %fs:0x18,%rsp
    40000119:	00 00 
    4000011b:	9d                   	popfq  
    4000011c:	41 5f                	pop    %r15
    4000011e:	41 5e                	pop    %r14
    40000120:	41 5d                	pop    %r13
    40000122:	41 5c                	pop    %r12
    40000124:	41 5b                	pop    %r11
    40000126:	41 5a                	pop    %r10
    40000128:	41 59                	pop    %r9
    4000012a:	41 58                	pop    %r8
    4000012c:	5f                   	pop    %rdi
    4000012d:	5e                   	pop    %rsi
    4000012e:	5d                   	pop    %rbp
    4000012f:	5a                   	pop    %rdx
    40000130:	59                   	pop    %rcx
    40000131:	5b                   	pop    %rbx
    40000132:	58                   	pop    %rax
    40000133:	64 48 8b 24 25 30 00 	mov    %fs:0x30,%rsp
    4000013a:	00 00 
    4000013c:	ff e0                	jmpq   *%rax

000000004000013e <trampoline>:
    4000013e:	55                   	push   %rbp
    4000013f:	48 89 e5             	mov    %rsp,%rbp
    40000142:	48 83 ec 40          	sub    $0x40,%rsp
    40000146:	48 89 7d c8          	mov    %rdi,-0x38(%rbp)
    4000014a:	48 89 75 c0          	mov    %rsi,-0x40(%rbp)
    4000014e:	48 8b 45 c8          	mov    -0x38(%rbp),%rax
    40000152:	48 83 f8 01          	cmp    $0x1,%rax
    40000156:	74 1e                	je     40000176 <trampoline+0x38>
    40000158:	48 3d 87 00 01 00    	cmp    $0x10087,%rax
    4000015e:	74 5d                	je     400001bd <trampoline+0x7f>
    40000160:	48 85 c0             	test   %rax,%rax
    40000163:	75 66                	jne    400001cb <trampoline+0x8d>
    40000165:	48 8b 45 c0          	mov    -0x40(%rbp),%rax
    40000169:	48 89 c7             	mov    %rax,%rdi
    4000016c:	e8 3a 20 00 00       	callq  400021ab <init_syscall>
    40000171:	e9 93 00 00 00       	jmpq   40000209 <trampoline+0xcb>
    40000176:	e8 98 22 00 00       	callq  40002413 <__tls_outside_buffer>
    4000017b:	48 8b 00             	mov    (%rax),%rax
    4000017e:	48 05 00 10 00 00    	add    $0x1000,%rax
    40000184:	48 89 45 f8          	mov    %rax,-0x8(%rbp)
    40000188:	48 8b 45 f8          	mov    -0x8(%rbp),%rax
    4000018c:	48 8b 00             	mov    (%rax),%rax
    4000018f:	89 45 f4             	mov    %eax,-0xc(%rbp)
    40000192:	83 6d f4 01          	subl   $0x1,-0xc(%rbp)
    40000196:	48 8b 45 f8          	mov    -0x8(%rbp),%rax
    4000019a:	48 83 c0 08          	add    $0x8,%rax
    4000019e:	48 8b 00             	mov    (%rax),%rax
    400001a1:	48 89 45 e8          	mov    %rax,-0x18(%rbp)
    400001a5:	48 83 45 e8 08       	addq   $0x8,-0x18(%rbp)
    400001aa:	48 8b 55 e8          	mov    -0x18(%rbp),%rdx
    400001ae:	8b 45 f4             	mov    -0xc(%rbp),%eax
    400001b1:	48 89 d6             	mov    %rdx,%rsi
    400001b4:	89 c7                	mov    %eax,%edi
    400001b6:	e8 55 01 00 00       	callq  40000310 <main>
    400001bb:	eb 4c                	jmp    40000209 <trampoline+0xcb>
    400001bd:	48 8b 45 c0          	mov    -0x40(%rbp),%rax
    400001c1:	48 89 c7             	mov    %rax,%rdi
    400001c4:	e8 b7 b1 00 00       	callq  4000b380 <dump_out>
    400001c9:	eb 3e                	jmp    40000209 <trampoline+0xcb>
    400001cb:	48 8d 3d 2e fe 3f 00 	lea    0x3ffe2e(%rip),%rdi        # 40400000 <data_start>
    400001d2:	e8 d1 3e 00 00       	callq  400040a8 <puts>
    400001d7:	48 8b 45 c8          	mov    -0x38(%rbp),%rax
    400001db:	48 89 45 e0          	mov    %rax,-0x20(%rbp)
    400001df:	48 8b 55 c0          	mov    -0x40(%rbp),%rdx
    400001e3:	48 8b 45 e0          	mov    -0x20(%rbp),%rax
    400001e7:	48 89 d7             	mov    %rdx,%rdi
    400001ea:	ff d0                	callq  *%rax
    400001ec:	48 89 45 d8          	mov    %rax,-0x28(%rbp)
    400001f0:	48 8b 45 d8          	mov    -0x28(%rbp),%rax
    400001f4:	48 89 c6             	mov    %rax,%rsi
    400001f7:	48 8d 3d 2a fe 3f 00 	lea    0x3ffe2a(%rip),%rdi        # 40400028 <data_start+0x28>
    400001fe:	b8 00 00 00 00       	mov    $0x0,%eax
    40000203:	e8 f6 3d 00 00       	callq  40003ffe <printf>
    40000208:	90                   	nop
    40000209:	90                   	nop
    4000020a:	c9                   	leaveq 
    4000020b:	c3                   	retq   
    4000020c:	0f 1f 40 00          	nopl   0x0(%rax)

0000000040000210 <global_opt>:
    40000210:	41 54                	push   %r12
    40000212:	55                   	push   %rbp
    40000213:	bd 06 00 00 00       	mov    $0x6,%ebp
    40000218:	53                   	push   %rbx
    40000219:	48 8d 1d e0 53 40 00 	lea    0x4053e0(%rip),%rbx        # 40405600 <net>
    40000220:	48 8b b3 a8 01 00 00 	mov    0x1a8(%rbx),%rsi
    40000227:	48 8d 3d 32 fe 3f 00 	lea    0x3ffe32(%rip),%rdi        # 40400060 <data_start+0x60>
    4000022e:	31 c0                	xor    %eax,%eax
    40000230:	e8 c9 3d 00 00       	callq  40003ffe <printf>
    40000235:	48 89 df             	mov    %rbx,%rdi
    40000238:	e8 c3 19 00 00       	callq  40001c00 <primal_net_simplex>
    4000023d:	48 8b b3 58 02 00 00 	mov    0x258(%rbx),%rsi
    40000244:	48 8d 3d 3d fe 3f 00 	lea    0x3ffe3d(%rip),%rdi        # 40400088 <data_start+0x88>
    4000024b:	31 c0                	xor    %eax,%eax
    4000024d:	e8 ac 3d 00 00       	callq  40003ffe <printf>
    40000252:	48 89 df             	mov    %rbx,%rdi
    40000255:	e8 f6 02 00 00       	callq  40000550 <flow_cost>
    4000025a:	48 8d 3d 4f fe 3f 00 	lea    0x3ffe4f(%rip),%rdi        # 404000b0 <data_start+0xb0>
    40000261:	b8 01 00 00 00       	mov    $0x1,%eax
    40000266:	e8 93 3d 00 00       	callq  40003ffe <printf>
    4000026b:	48 83 ed 01          	sub    $0x1,%rbp
    4000026f:	74 1a                	je     4000028b <global_opt+0x7b>
    40000271:	48 83 bb b8 01 00 00 	cmpq   $0x0,0x1b8(%rbx)
    40000278:	00 
    40000279:	75 65                	jne    400002e0 <global_opt+0xd0>
    4000027b:	48 89 df             	mov    %rbx,%rdi
    4000027e:	e8 ed 0e 00 00       	callq  40001170 <price_out_impl>
    40000283:	48 85 c0             	test   %rax,%rax
    40000286:	49 89 c4             	mov    %rax,%r12
    40000289:	75 25                	jne    400002b0 <global_opt+0xa0>
    4000028b:	48 8b b3 68 02 00 00 	mov    0x268(%rbx),%rsi
    40000292:	48 8d 3d 8f fe 3f 00 	lea    0x3ffe8f(%rip),%rdi        # 40400128 <data_start+0x128>
    40000299:	31 c0                	xor    %eax,%eax
    4000029b:	e8 5e 3d 00 00       	callq  40003ffe <printf>
    400002a0:	5b                   	pop    %rbx
    400002a1:	31 c0                	xor    %eax,%eax
    400002a3:	5d                   	pop    %rbp
    400002a4:	41 5c                	pop    %r12
    400002a6:	c3                   	retq   
    400002a7:	66 0f 1f 84 00 00 00 	nopw   0x0(%rax,%rax,1)
    400002ae:	00 00 
    400002b0:	48 8d 3d 49 fe 3f 00 	lea    0x3ffe49(%rip),%rdi        # 40400100 <data_start+0x100>
    400002b7:	48 89 c6             	mov    %rax,%rsi
    400002ba:	31 c0                	xor    %eax,%eax
    400002bc:	e8 3d 3d 00 00       	callq  40003ffe <printf>
    400002c1:	4d 85 e4             	test   %r12,%r12
    400002c4:	0f 89 56 ff ff ff    	jns    40000220 <global_opt+0x10>
    400002ca:	48 8d 3d 51 ff 3f 00 	lea    0x3fff51(%rip),%rdi        # 40400222 <data_start+0x222>
    400002d1:	e8 d2 3d 00 00       	callq  400040a8 <puts>
    400002d6:	bf ff ff ff ff       	mov    $0xffffffff,%edi
    400002db:	e8 91 21 00 00       	callq  40002471 <exit>
    400002e0:	31 d2                	xor    %edx,%edx
    400002e2:	48 c7 c6 ff ff ff ff 	mov    $0xffffffffffffffff,%rsi
    400002e9:	48 89 df             	mov    %rbx,%rdi
    400002ec:	e8 af 11 00 00       	callq  400014a0 <suspend_impl>
    400002f1:	48 85 c0             	test   %rax,%rax
    400002f4:	74 85                	je     4000027b <global_opt+0x6b>
    400002f6:	48 8d 3d db fd 3f 00 	lea    0x3ffddb(%rip),%rdi        # 404000d8 <data_start+0xd8>
    400002fd:	48 89 c6             	mov    %rax,%rsi
    40000300:	31 c0                	xor    %eax,%eax
    40000302:	e8 f7 3c 00 00       	callq  40003ffe <printf>
    40000307:	e9 6f ff ff ff       	jmpq   4000027b <global_opt+0x6b>
    4000030c:	0f 1f 40 00          	nopl   0x0(%rax)

0000000040000310 <main>:
    40000310:	83 ff 01             	cmp    $0x1,%edi
    40000313:	0f 8e f1 00 00 00    	jle    4000040a <main+0xfa>
    40000319:	55                   	push   %rbp
    4000031a:	53                   	push   %rbx
    4000031b:	48 8d 3d 2e fe 3f 00 	lea    0x3ffe2e(%rip),%rdi        # 40400150 <data_start+0x150>
    40000322:	48 89 f5             	mov    %rsi,%rbp
    40000325:	48 83 ec 08          	sub    $0x8,%rsp
    40000329:	e8 7a 3d 00 00       	callq  400040a8 <puts>
    4000032e:	48 8d 3d 3b fe 3f 00 	lea    0x3ffe3b(%rip),%rdi        # 40400170 <data_start+0x170>
    40000335:	e8 6e 3d 00 00       	callq  400040a8 <puts>
    4000033a:	48 8d 3d 67 fe 3f 00 	lea    0x3ffe67(%rip),%rdi        # 404001a8 <data_start+0x1a8>
    40000341:	e8 62 3d 00 00       	callq  400040a8 <puts>
    40000346:	48 8d 3d 8b fe 3f 00 	lea    0x3ffe8b(%rip),%rdi        # 404001d8 <data_start+0x1d8>
    4000034d:	e8 56 3d 00 00       	callq  400040a8 <puts>
    40000352:	bf 0a 00 00 00       	mov    $0xa,%edi
    40000357:	e8 40 3d 00 00       	callq  4000409c <putchar>
    4000035c:	48 8d 1d 9d 52 40 00 	lea    0x40529d(%rip),%rbx        # 40405600 <net>
    40000363:	31 c0                	xor    %eax,%eax
    40000365:	b9 4e 00 00 00       	mov    $0x4e,%ecx
    4000036a:	48 89 df             	mov    %rbx,%rdi
    4000036d:	f3 48 ab             	rep stos %rax,%es:(%rdi)
    40000370:	48 89 df             	mov    %rbx,%rdi
    40000373:	48 c7 83 10 02 00 00 	movq   $0x989680,0x210(%rbx)
    4000037a:	80 96 98 00 
    4000037e:	48 8b 75 08          	mov    0x8(%rbp),%rsi
    40000382:	e8 29 5b 00 00       	callq  40005eb0 <strcpy>
    40000387:	48 89 df             	mov    %rbx,%rdi
    4000038a:	e8 71 06 00 00       	callq  40000a00 <read_min>
    4000038f:	48 85 c0             	test   %rax,%rax
    40000392:	75 53                	jne    400003e7 <main+0xd7>
    40000394:	48 8b b3 98 01 00 00 	mov    0x198(%rbx),%rsi
    4000039b:	48 8d 3d 5e fe 3f 00 	lea    0x3ffe5e(%rip),%rdi        # 40400200 <data_start+0x200>
    400003a2:	31 c0                	xor    %eax,%eax
    400003a4:	e8 55 3c 00 00       	callq  40003ffe <printf>
    400003a9:	48 89 df             	mov    %rbx,%rdi
    400003ac:	e8 ff 11 00 00       	callq  400015b0 <primal_start_artificial>
    400003b1:	e8 5a fe ff ff       	callq  40000210 <global_opt>
    400003b6:	48 8d 3d 92 fe 3f 00 	lea    0x3ffe92(%rip),%rdi        # 4040024f <data_start+0x24f>
    400003bd:	e8 e6 3c 00 00       	callq  400040a8 <puts>
    400003c2:	48 8d 3d 8b fe 3f 00 	lea    0x3ffe8b(%rip),%rdi        # 40400254 <data_start+0x254>
    400003c9:	48 89 de             	mov    %rbx,%rsi
    400003cc:	e8 3f 13 00 00       	callq  40001710 <write_circulations>
    400003d1:	48 85 c0             	test   %rax,%rax
    400003d4:	48 89 df             	mov    %rbx,%rdi
    400003d7:	75 27                	jne    40000400 <main+0xf0>
    400003d9:	e8 a2 05 00 00       	callq  40000980 <getfree>
    400003de:	31 c0                	xor    %eax,%eax
    400003e0:	48 83 c4 08          	add    $0x8,%rsp
    400003e4:	5b                   	pop    %rbx
    400003e5:	5d                   	pop    %rbp
    400003e6:	c3                   	retq   
    400003e7:	48 8d 3d 50 fe 3f 00 	lea    0x3ffe50(%rip),%rdi        # 4040023e <data_start+0x23e>
    400003ee:	e8 b5 3c 00 00       	callq  400040a8 <puts>
    400003f3:	48 89 df             	mov    %rbx,%rdi
    400003f6:	e8 85 05 00 00       	callq  40000980 <getfree>
    400003fb:	83 c8 ff             	or     $0xffffffff,%eax
    400003fe:	eb e0                	jmp    400003e0 <main+0xd0>
    40000400:	e8 7b 05 00 00       	callq  40000980 <getfree>
    40000405:	83 c8 ff             	or     $0xffffffff,%eax
    40000408:	eb d6                	jmp    400003e0 <main+0xd0>
    4000040a:	83 c8 ff             	or     $0xffffffff,%eax
    4000040d:	c3                   	retq   
    4000040e:	66 90                	xchg   %ax,%ax

0000000040000410 <refresh_neighbour_lists>:
    40000410:	48 8b 87 28 02 00 00 	mov    0x228(%rdi),%rax
    40000417:	48 8b 97 30 02 00 00 	mov    0x230(%rdi),%rdx
    4000041e:	48 39 d0             	cmp    %rdx,%rax
    40000421:	73 1e                	jae    40000441 <refresh_neighbour_lists+0x31>
    40000423:	0f 1f 44 00 00       	nopl   0x0(%rax,%rax,1)
    40000428:	48 c7 40 40 00 00 00 	movq   $0x0,0x40(%rax)
    4000042f:	00 
    40000430:	48 c7 40 38 00 00 00 	movq   $0x0,0x38(%rax)
    40000437:	00 
    40000438:	48 83 c0 68          	add    $0x68,%rax
    4000043c:	48 39 c2             	cmp    %rax,%rdx
    4000043f:	77 e7                	ja     40000428 <refresh_neighbour_lists+0x18>
    40000441:	48 8b 87 38 02 00 00 	mov    0x238(%rdi),%rax
    40000448:	48 8b b7 40 02 00 00 	mov    0x240(%rdi),%rsi
    4000044f:	48 39 f0             	cmp    %rsi,%rax
    40000452:	73 2f                	jae    40000483 <refresh_neighbour_lists+0x73>
    40000454:	0f 1f 40 00          	nopl   0x0(%rax)
    40000458:	48 8b 50 08          	mov    0x8(%rax),%rdx
    4000045c:	48 8b 4a 38          	mov    0x38(%rdx),%rcx
    40000460:	48 89 48 20          	mov    %rcx,0x20(%rax)
    40000464:	48 89 42 38          	mov    %rax,0x38(%rdx)
    40000468:	48 8b 50 10          	mov    0x10(%rax),%rdx
    4000046c:	48 8b 4a 40          	mov    0x40(%rdx),%rcx
    40000470:	48 89 48 28          	mov    %rcx,0x28(%rax)
    40000474:	48 89 42 40          	mov    %rax,0x40(%rdx)
    40000478:	48 83 c0 40          	add    $0x40,%rax
    4000047c:	48 39 c6             	cmp    %rax,%rsi
    4000047f:	77 d7                	ja     40000458 <refresh_neighbour_lists+0x48>
    40000481:	f3 c3                	repz retq 
    40000483:	f3 c3                	repz retq 
    40000485:	90                   	nop
    40000486:	66 2e 0f 1f 84 00 00 	nopw   %cs:0x0(%rax,%rax,1)
    4000048d:	00 00 00 

0000000040000490 <refresh_potential>:
    40000490:	48 8b bf 28 02 00 00 	mov    0x228(%rdi),%rdi
    40000497:	31 c0                	xor    %eax,%eax
    40000499:	48 8b 57 10          	mov    0x10(%rdi),%rdx
    4000049d:	48 c7 07 00 1f 0a fa 	movq   $0xfffffffffa0a1f00,(%rdi)
    400004a4:	48 39 d7             	cmp    %rdx,%rdi
    400004a7:	48 89 d6             	mov    %rdx,%rsi
    400004aa:	0f 84 93 00 00 00    	je     40000543 <refresh_potential+0xb3>
    400004b0:	48 85 d2             	test   %rdx,%rdx
    400004b3:	75 2c                	jne    400004e1 <refresh_potential+0x51>
    400004b5:	e9 84 00 00 00       	jmpq   4000053e <refresh_potential+0xae>
    400004ba:	66 0f 1f 44 00 00    	nopw   0x0(%rax,%rax,1)
    400004c0:	48 8b 4a 18          	mov    0x18(%rdx),%rcx
    400004c4:	48 8b 72 30          	mov    0x30(%rdx),%rsi
    400004c8:	48 83 c0 01          	add    $0x1,%rax
    400004cc:	48 8b 09             	mov    (%rcx),%rcx
    400004cf:	48 2b 0e             	sub    (%rsi),%rcx
    400004d2:	48 89 0a             	mov    %rcx,(%rdx)
    400004d5:	48 8b 4a 10          	mov    0x10(%rdx),%rcx
    400004d9:	48 85 c9             	test   %rcx,%rcx
    400004dc:	74 23                	je     40000501 <refresh_potential+0x71>
    400004de:	48 89 ca             	mov    %rcx,%rdx
    400004e1:	83 7a 08 01          	cmpl   $0x1,0x8(%rdx)
    400004e5:	75 d9                	jne    400004c0 <refresh_potential+0x30>
    400004e7:	48 8b 72 30          	mov    0x30(%rdx),%rsi
    400004eb:	48 8b 4a 18          	mov    0x18(%rdx),%rcx
    400004ef:	48 8b 09             	mov    (%rcx),%rcx
    400004f2:	48 03 0e             	add    (%rsi),%rcx
    400004f5:	48 89 0a             	mov    %rcx,(%rdx)
    400004f8:	48 8b 4a 10          	mov    0x10(%rdx),%rcx
    400004fc:	48 85 c9             	test   %rcx,%rcx
    400004ff:	75 dd                	jne    400004de <refresh_potential+0x4e>
    40000501:	48 89 d6             	mov    %rdx,%rsi
    40000504:	eb 16                	jmp    4000051c <refresh_potential+0x8c>
    40000506:	66 2e 0f 1f 84 00 00 	nopw   %cs:0x0(%rax,%rax,1)
    4000050d:	00 00 00 
    40000510:	48 8b 72 20          	mov    0x20(%rdx),%rsi
    40000514:	48 89 ca             	mov    %rcx,%rdx
    40000517:	48 85 f6             	test   %rsi,%rsi
    4000051a:	75 14                	jne    40000530 <refresh_potential+0xa0>
    4000051c:	48 8b 4a 18          	mov    0x18(%rdx),%rcx
    40000520:	48 85 c9             	test   %rcx,%rcx
    40000523:	75 eb                	jne    40000510 <refresh_potential+0x80>
    40000525:	48 39 d7             	cmp    %rdx,%rdi
    40000528:	75 86                	jne    400004b0 <refresh_potential+0x20>
    4000052a:	f3 c3                	repz retq 
    4000052c:	0f 1f 40 00          	nopl   0x0(%rax)
    40000530:	48 89 f2             	mov    %rsi,%rdx
    40000533:	48 39 d7             	cmp    %rdx,%rdi
    40000536:	0f 85 74 ff ff ff    	jne    400004b0 <refresh_potential+0x20>
    4000053c:	eb ec                	jmp    4000052a <refresh_potential+0x9a>
    4000053e:	48 89 f2             	mov    %rsi,%rdx
    40000541:	eb be                	jmp    40000501 <refresh_potential+0x71>
    40000543:	f3 c3                	repz retq 
    40000545:	90                   	nop
    40000546:	66 2e 0f 1f 84 00 00 	nopw   %cs:0x0(%rax,%rax,1)
    4000054d:	00 00 00 

0000000040000550 <flow_cost>:
    40000550:	48 8b 8f 40 02 00 00 	mov    0x240(%rdi),%rcx
    40000557:	48 8b 87 38 02 00 00 	mov    0x238(%rdi),%rax
    4000055e:	48 39 c1             	cmp    %rax,%rcx
    40000561:	0f 84 d9 00 00 00    	je     40000640 <flow_cost+0xf0>
    40000567:	48 89 c2             	mov    %rax,%rdx
    4000056a:	66 0f 1f 44 00 00    	nopw   0x0(%rax,%rax,1)
    40000570:	31 f6                	xor    %esi,%esi
    40000572:	83 7a 18 02          	cmpl   $0x2,0x18(%rdx)
    40000576:	40 0f 94 c6          	sete   %sil
    4000057a:	48 83 c2 40          	add    $0x40,%rdx
    4000057e:	48 89 72 f0          	mov    %rsi,-0x10(%rdx)
    40000582:	48 39 d1             	cmp    %rdx,%rcx
    40000585:	75 e9                	jne    40000570 <flow_cost+0x20>
    40000587:	48 8b b7 28 02 00 00 	mov    0x228(%rdi),%rsi
    4000058e:	4c 8b 8f 30 02 00 00 	mov    0x230(%rdi),%r9
    40000595:	48 8d 56 68          	lea    0x68(%rsi),%rdx
    40000599:	49 39 d1             	cmp    %rdx,%r9
    4000059c:	74 20                	je     400005be <flow_cost+0x6e>
    4000059e:	66 90                	xchg   %ax,%ax
    400005a0:	4c 8b 42 50          	mov    0x50(%rdx),%r8
    400005a4:	48 8b 72 30          	mov    0x30(%rdx),%rsi
    400005a8:	48 83 c2 68          	add    $0x68,%rdx
    400005ac:	4c 39 ca             	cmp    %r9,%rdx
    400005af:	4c 89 46 30          	mov    %r8,0x30(%rsi)
    400005b3:	75 eb                	jne    400005a0 <flow_cost+0x50>
    400005b5:	48 39 c1             	cmp    %rax,%rcx
    400005b8:	0f 84 9d 00 00 00    	je     4000065b <flow_cost+0x10b>
    400005be:	4c 8b 87 10 02 00 00 	mov    0x210(%rdi),%r8
    400005c5:	31 d2                	xor    %edx,%edx
    400005c7:	31 ff                	xor    %edi,%edi
    400005c9:	eb 18                	jmp    400005e3 <flow_cost+0x93>
    400005cb:	0f 1f 44 00 00       	nopl   0x0(%rax,%rax,1)
    400005d0:	4c 29 c2             	sub    %r8,%rdx
    400005d3:	48 03 10             	add    (%rax),%rdx
    400005d6:	48 83 c7 01          	add    $0x1,%rdi
    400005da:	48 83 c0 40          	add    $0x40,%rax
    400005de:	48 39 c1             	cmp    %rax,%rcx
    400005e1:	74 22                	je     40000605 <flow_cost+0xb5>
    400005e3:	48 83 78 30 00       	cmpq   $0x0,0x30(%rax)
    400005e8:	74 f0                	je     400005da <flow_cost+0x8a>
    400005ea:	48 8b 70 08          	mov    0x8(%rax),%rsi
    400005ee:	44 8b 4e 60          	mov    0x60(%rsi),%r9d
    400005f2:	45 85 c9             	test   %r9d,%r9d
    400005f5:	78 39                	js     40000630 <flow_cost+0xe0>
    400005f7:	74 d7                	je     400005d0 <flow_cost+0x80>
    400005f9:	48 03 10             	add    (%rax),%rdx
    400005fc:	48 83 c0 40          	add    $0x40,%rax
    40000600:	48 39 c1             	cmp    %rax,%rcx
    40000603:	75 de                	jne    400005e3 <flow_cost+0x93>
    40000605:	66 0f ef c0          	pxor   %xmm0,%xmm0
    40000609:	66 0f ef c9          	pxor   %xmm1,%xmm1
    4000060d:	f2 48 0f 2a c7       	cvtsi2sd %rdi,%xmm0
    40000612:	f2 48 0f 2a ca       	cvtsi2sd %rdx,%xmm1
    40000617:	66 0f ef d2          	pxor   %xmm2,%xmm2
    4000061b:	f2 49 0f 2a d0       	cvtsi2sd %r8,%xmm2
    40000620:	f2 0f 59 c2          	mulsd  %xmm2,%xmm0
    40000624:	f2 0f 58 c1          	addsd  %xmm1,%xmm0
    40000628:	c3                   	retq   
    40000629:	0f 1f 80 00 00 00 00 	nopl   0x0(%rax)
    40000630:	48 8b 70 10          	mov    0x10(%rax),%rsi
    40000634:	8b 76 60             	mov    0x60(%rsi),%esi
    40000637:	85 f6                	test   %esi,%esi
    40000639:	7f 9f                	jg     400005da <flow_cost+0x8a>
    4000063b:	48 03 10             	add    (%rax),%rdx
    4000063e:	eb bc                	jmp    400005fc <flow_cost+0xac>
    40000640:	48 8b b7 28 02 00 00 	mov    0x228(%rdi),%rsi
    40000647:	4c 8b 8f 30 02 00 00 	mov    0x230(%rdi),%r9
    4000064e:	48 8d 56 68          	lea    0x68(%rsi),%rdx
    40000652:	49 39 d1             	cmp    %rdx,%r9
    40000655:	0f 85 45 ff ff ff    	jne    400005a0 <flow_cost+0x50>
    4000065b:	66 0f ef c9          	pxor   %xmm1,%xmm1
    4000065f:	4c 8b 87 10 02 00 00 	mov    0x210(%rdi),%r8
    40000666:	66 0f 28 c1          	movapd %xmm1,%xmm0
    4000066a:	eb ab                	jmp    40000617 <flow_cost+0xc7>
    4000066c:	0f 1f 40 00          	nopl   0x0(%rax)

0000000040000670 <flow_org_cost>:
    40000670:	48 8b 8f 40 02 00 00 	mov    0x240(%rdi),%rcx
    40000677:	48 8b 87 38 02 00 00 	mov    0x238(%rdi),%rax
    4000067e:	48 39 c1             	cmp    %rax,%rcx
    40000681:	0f 84 da 00 00 00    	je     40000761 <flow_org_cost+0xf1>
    40000687:	48 89 c2             	mov    %rax,%rdx
    4000068a:	66 0f 1f 44 00 00    	nopw   0x0(%rax,%rax,1)
    40000690:	31 f6                	xor    %esi,%esi
    40000692:	83 7a 18 02          	cmpl   $0x2,0x18(%rdx)
    40000696:	40 0f 94 c6          	sete   %sil
    4000069a:	48 83 c2 40          	add    $0x40,%rdx
    4000069e:	48 89 72 f0          	mov    %rsi,-0x10(%rdx)
    400006a2:	48 39 d1             	cmp    %rdx,%rcx
    400006a5:	75 e9                	jne    40000690 <flow_org_cost+0x20>
    400006a7:	48 8b b7 28 02 00 00 	mov    0x228(%rdi),%rsi
    400006ae:	4c 8b 8f 30 02 00 00 	mov    0x230(%rdi),%r9
    400006b5:	48 8d 56 68          	lea    0x68(%rsi),%rdx
    400006b9:	49 39 d1             	cmp    %rdx,%r9
    400006bc:	74 20                	je     400006de <flow_org_cost+0x6e>
    400006be:	66 90                	xchg   %ax,%ax
    400006c0:	4c 8b 42 50          	mov    0x50(%rdx),%r8
    400006c4:	48 8b 72 30          	mov    0x30(%rdx),%rsi
    400006c8:	48 83 c2 68          	add    $0x68,%rdx
    400006cc:	4c 39 ca             	cmp    %r9,%rdx
    400006cf:	4c 89 46 30          	mov    %r8,0x30(%rsi)
    400006d3:	75 eb                	jne    400006c0 <flow_org_cost+0x50>
    400006d5:	48 39 c1             	cmp    %rax,%rcx
    400006d8:	0f 84 9e 00 00 00    	je     4000077c <flow_org_cost+0x10c>
    400006de:	4c 8b 87 10 02 00 00 	mov    0x210(%rdi),%r8
    400006e5:	31 d2                	xor    %edx,%edx
    400006e7:	31 ff                	xor    %edi,%edi
    400006e9:	eb 19                	jmp    40000704 <flow_org_cost+0x94>
    400006eb:	0f 1f 44 00 00       	nopl   0x0(%rax,%rax,1)
    400006f0:	4c 29 c2             	sub    %r8,%rdx
    400006f3:	48 03 50 38          	add    0x38(%rax),%rdx
    400006f7:	48 83 c7 01          	add    $0x1,%rdi
    400006fb:	48 83 c0 40          	add    $0x40,%rax
    400006ff:	48 39 c1             	cmp    %rax,%rcx
    40000702:	74 23                	je     40000727 <flow_org_cost+0xb7>
    40000704:	48 83 78 30 00       	cmpq   $0x0,0x30(%rax)
    40000709:	74 f0                	je     400006fb <flow_org_cost+0x8b>
    4000070b:	48 8b 70 08          	mov    0x8(%rax),%rsi
    4000070f:	44 8b 4e 60          	mov    0x60(%rsi),%r9d
    40000713:	45 85 c9             	test   %r9d,%r9d
    40000716:	78 38                	js     40000750 <flow_org_cost+0xe0>
    40000718:	74 d6                	je     400006f0 <flow_org_cost+0x80>
    4000071a:	48 03 50 38          	add    0x38(%rax),%rdx
    4000071e:	48 83 c0 40          	add    $0x40,%rax
    40000722:	48 39 c1             	cmp    %rax,%rcx
    40000725:	75 dd                	jne    40000704 <flow_org_cost+0x94>
    40000727:	66 0f ef c0          	pxor   %xmm0,%xmm0
    4000072b:	66 0f ef c9          	pxor   %xmm1,%xmm1
    4000072f:	f2 48 0f 2a c7       	cvtsi2sd %rdi,%xmm0
    40000734:	f2 48 0f 2a ca       	cvtsi2sd %rdx,%xmm1
    40000739:	66 0f ef d2          	pxor   %xmm2,%xmm2
    4000073d:	f2 49 0f 2a d0       	cvtsi2sd %r8,%xmm2
    40000742:	f2 0f 59 c2          	mulsd  %xmm2,%xmm0
    40000746:	f2 0f 58 c1          	addsd  %xmm1,%xmm0
    4000074a:	c3                   	retq   
    4000074b:	0f 1f 44 00 00       	nopl   0x0(%rax,%rax,1)
    40000750:	48 8b 70 10          	mov    0x10(%rax),%rsi
    40000754:	8b 76 60             	mov    0x60(%rsi),%esi
    40000757:	85 f6                	test   %esi,%esi
    40000759:	7f a0                	jg     400006fb <flow_org_cost+0x8b>
    4000075b:	48 03 50 38          	add    0x38(%rax),%rdx
    4000075f:	eb bd                	jmp    4000071e <flow_org_cost+0xae>
    40000761:	48 8b b7 28 02 00 00 	mov    0x228(%rdi),%rsi
    40000768:	4c 8b 8f 30 02 00 00 	mov    0x230(%rdi),%r9
    4000076f:	48 8d 56 68          	lea    0x68(%rsi),%rdx
    40000773:	49 39 d1             	cmp    %rdx,%r9
    40000776:	0f 85 44 ff ff ff    	jne    400006c0 <flow_org_cost+0x50>
    4000077c:	66 0f ef c9          	pxor   %xmm1,%xmm1
    40000780:	4c 8b 87 10 02 00 00 	mov    0x210(%rdi),%r8
    40000787:	66 0f 28 c1          	movapd %xmm1,%xmm0
    4000078b:	eb ac                	jmp    40000739 <flow_org_cost+0xc9>
    4000078d:	0f 1f 00             	nopl   (%rax)

0000000040000790 <primal_feasible>:
    40000790:	41 57                	push   %r15
    40000792:	41 56                	push   %r14
    40000794:	41 55                	push   %r13
    40000796:	41 54                	push   %r12
    40000798:	49 89 fc             	mov    %rdi,%r12
    4000079b:	55                   	push   %rbp
    4000079c:	53                   	push   %rbx
    4000079d:	48 83 ec 08          	sub    $0x8,%rsp
    400007a1:	48 8b 87 28 02 00 00 	mov    0x228(%rdi),%rax
    400007a8:	4c 8b af 30 02 00 00 	mov    0x230(%rdi),%r13
    400007af:	4c 8b b7 48 02 00 00 	mov    0x248(%rdi),%r14
    400007b6:	4c 8b bf 50 02 00 00 	mov    0x250(%rdi),%r15
    400007bd:	48 8d 58 68          	lea    0x68(%rax),%rbx
    400007c1:	49 39 dd             	cmp    %rbx,%r13
    400007c4:	77 36                	ja     400007fc <primal_feasible+0x6c>
    400007c6:	e9 cc 00 00 00       	jmpq   40000897 <primal_feasible+0x107>
    400007cb:	0f 1f 44 00 00       	nopl   0x0(%rax,%rax,1)
    400007d0:	49 39 c7             	cmp    %rax,%r15
    400007d3:	76 34                	jbe    40000809 <primal_feasible+0x79>
    400007d5:	48 89 ea             	mov    %rbp,%rdx
    400007d8:	48 c1 fa 3f          	sar    $0x3f,%rdx
    400007dc:	48 89 d0             	mov    %rdx,%rax
    400007df:	48 31 e8             	xor    %rbp,%rax
    400007e2:	48 29 d0             	sub    %rdx,%rax
    400007e5:	49 3b 84 24 00 02 00 	cmp    0x200(%r12),%rax
    400007ec:	00 
    400007ed:	7f 79                	jg     40000868 <primal_feasible+0xd8>
    400007ef:	48 83 c3 68          	add    $0x68,%rbx
    400007f3:	49 39 dd             	cmp    %rbx,%r13
    400007f6:	0f 86 9b 00 00 00    	jbe    40000897 <primal_feasible+0x107>
    400007fc:	48 8b 43 30          	mov    0x30(%rbx),%rax
    40000800:	48 8b 6b 50          	mov    0x50(%rbx),%rbp
    40000804:	49 39 c6             	cmp    %rax,%r14
    40000807:	76 c7                	jbe    400007d0 <primal_feasible+0x40>
    40000809:	49 8b 84 24 00 02 00 	mov    0x200(%r12),%rax
    40000810:	00 
    40000811:	48 89 c2             	mov    %rax,%rdx
    40000814:	48 f7 da             	neg    %rdx
    40000817:	48 39 d5             	cmp    %rdx,%rbp
    4000081a:	7c 09                	jl     40000825 <primal_feasible+0x95>
    4000081c:	48 8d 55 ff          	lea    -0x1(%rbp),%rdx
    40000820:	48 39 d0             	cmp    %rdx,%rax
    40000823:	7d ca                	jge    400007ef <primal_feasible+0x5f>
    40000825:	48 8d 3d 30 fa 3f 00 	lea    0x3ffa30(%rip),%rdi        # 4040025c <data_start+0x25c>
    4000082c:	31 c0                	xor    %eax,%eax
    4000082e:	e8 cb 37 00 00       	callq  40003ffe <printf>
    40000833:	48 8d 3d a6 fa 3f 00 	lea    0x3ffaa6(%rip),%rdi        # 404002e0 <data_start+0x2e0>
    4000083a:	48 89 ee             	mov    %rbp,%rsi
    4000083d:	31 c0                	xor    %eax,%eax
    4000083f:	e8 ba 37 00 00       	callq  40003ffe <printf>
    40000844:	49 c7 84 24 e8 01 00 	movq   $0x0,0x1e8(%r12)
    4000084b:	00 00 00 00 00 
    40000850:	48 83 c4 08          	add    $0x8,%rsp
    40000854:	b8 01 00 00 00       	mov    $0x1,%eax
    40000859:	5b                   	pop    %rbx
    4000085a:	5d                   	pop    %rbp
    4000085b:	41 5c                	pop    %r12
    4000085d:	41 5d                	pop    %r13
    4000085f:	41 5e                	pop    %r14
    40000861:	41 5f                	pop    %r15
    40000863:	c3                   	retq   
    40000864:	0f 1f 40 00          	nopl   0x0(%rax)
    40000868:	48 8d 3d ed f9 3f 00 	lea    0x3ff9ed(%rip),%rdi        # 4040025c <data_start+0x25c>
    4000086f:	31 c0                	xor    %eax,%eax
    40000871:	48 83 c3 68          	add    $0x68,%rbx
    40000875:	e8 84 37 00 00       	callq  40003ffe <printf>
    4000087a:	8b 73 f8             	mov    -0x8(%rbx),%esi
    4000087d:	48 8d 3d 24 fa 3f 00 	lea    0x3ffa24(%rip),%rdi        # 404002a8 <data_start+0x2a8>
    40000884:	31 c0                	xor    %eax,%eax
    40000886:	48 89 ea             	mov    %rbp,%rdx
    40000889:	e8 70 37 00 00       	callq  40003ffe <printf>
    4000088e:	49 39 dd             	cmp    %rbx,%r13
    40000891:	0f 87 65 ff ff ff    	ja     400007fc <primal_feasible+0x6c>
    40000897:	49 c7 84 24 e8 01 00 	movq   $0x1,0x1e8(%r12)
    4000089e:	00 01 00 00 00 
    400008a3:	48 83 c4 08          	add    $0x8,%rsp
    400008a7:	31 c0                	xor    %eax,%eax
    400008a9:	5b                   	pop    %rbx
    400008aa:	5d                   	pop    %rbp
    400008ab:	41 5c                	pop    %r12
    400008ad:	41 5d                	pop    %r13
    400008af:	41 5e                	pop    %r14
    400008b1:	41 5f                	pop    %r15
    400008b3:	c3                   	retq   
    400008b4:	66 90                	xchg   %ax,%ax
    400008b6:	66 2e 0f 1f 84 00 00 	nopw   %cs:0x0(%rax,%rax,1)
    400008bd:	00 00 00 

00000000400008c0 <dual_feasible>:
    400008c0:	53                   	push   %rbx
    400008c1:	48 8b b7 40 02 00 00 	mov    0x240(%rdi),%rsi
    400008c8:	48 8b 87 38 02 00 00 	mov    0x238(%rdi),%rax
    400008cf:	48 39 c6             	cmp    %rax,%rsi
    400008d2:	77 23                	ja     400008f7 <dual_feasible+0x37>
    400008d4:	e9 97 00 00 00       	jmpq   40000970 <dual_feasible+0xb0>
    400008d9:	0f 1f 80 00 00 00 00 	nopl   0x0(%rax)
    400008e0:	83 f9 02             	cmp    $0x2,%ecx
    400008e3:	75 09                	jne    400008ee <dual_feasible+0x2e>
    400008e5:	48 3b 97 00 02 00 00 	cmp    0x200(%rdi),%rdx
    400008ec:	7f 35                	jg     40000923 <dual_feasible+0x63>
    400008ee:	48 83 c0 40          	add    $0x40,%rax
    400008f2:	48 39 c6             	cmp    %rax,%rsi
    400008f5:	76 79                	jbe    40000970 <dual_feasible+0xb0>
    400008f7:	48 8b 48 08          	mov    0x8(%rax),%rcx
    400008fb:	48 8b 10             	mov    (%rax),%rdx
    400008fe:	48 2b 11             	sub    (%rcx),%rdx
    40000901:	48 8b 48 10          	mov    0x10(%rax),%rcx
    40000905:	48 03 11             	add    (%rcx),%rdx
    40000908:	8b 48 18             	mov    0x18(%rax),%ecx
    4000090b:	85 c9                	test   %ecx,%ecx
    4000090d:	78 df                	js     400008ee <dual_feasible+0x2e>
    4000090f:	83 f9 01             	cmp    $0x1,%ecx
    40000912:	7f cc                	jg     400008e0 <dual_feasible+0x20>
    40000914:	48 8b 8f 00 02 00 00 	mov    0x200(%rdi),%rcx
    4000091b:	48 f7 d9             	neg    %rcx
    4000091e:	48 39 ca             	cmp    %rcx,%rdx
    40000921:	7d cb                	jge    400008ee <dual_feasible+0x2e>
    40000923:	48 8d 05 76 fa 3f 00 	lea    0x3ffa76(%rip),%rax        # 404003a0 <stderr>
    4000092a:	48 8d 3d 44 f9 3f 00 	lea    0x3ff944(%rip),%rdi        # 40400275 <data_start+0x275>
    40000931:	ba 16 00 00 00       	mov    $0x16,%edx
    40000936:	be 01 00 00 00       	mov    $0x1,%esi
    4000093b:	48 8b 18             	mov    (%rax),%rbx
    4000093e:	48 89 d9             	mov    %rbx,%rcx
    40000941:	e8 14 36 00 00       	callq  40003f5a <fwrite>
    40000946:	48 8d 3d 3f f9 3f 00 	lea    0x3ff93f(%rip),%rdi        # 4040028c <data_start+0x28c>
    4000094d:	48 89 d9             	mov    %rbx,%rcx
    40000950:	ba 16 00 00 00       	mov    $0x16,%edx
    40000955:	be 01 00 00 00       	mov    $0x1,%esi
    4000095a:	e8 fb 35 00 00       	callq  40003f5a <fwrite>
    4000095f:	b8 01 00 00 00       	mov    $0x1,%eax
    40000964:	5b                   	pop    %rbx
    40000965:	c3                   	retq   
    40000966:	66 2e 0f 1f 84 00 00 	nopw   %cs:0x0(%rax,%rax,1)
    4000096d:	00 00 00 
    40000970:	31 c0                	xor    %eax,%eax
    40000972:	5b                   	pop    %rbx
    40000973:	c3                   	retq   
    40000974:	66 90                	xchg   %ax,%ax
    40000976:	66 2e 0f 1f 84 00 00 	nopw   %cs:0x0(%rax,%rax,1)
    4000097d:	00 00 00 

0000000040000980 <getfree>:
    40000980:	53                   	push   %rbx
    40000981:	48 89 fb             	mov    %rdi,%rbx
    40000984:	48 8b bf 28 02 00 00 	mov    0x228(%rdi),%rdi
    4000098b:	48 85 ff             	test   %rdi,%rdi
    4000098e:	74 05                	je     40000995 <getfree+0x15>
    40000990:	e8 6b 21 00 00       	callq  40002b00 <free>
    40000995:	48 8b bb 38 02 00 00 	mov    0x238(%rbx),%rdi
    4000099c:	48 85 ff             	test   %rdi,%rdi
    4000099f:	74 05                	je     400009a6 <getfree+0x26>
    400009a1:	e8 5a 21 00 00       	callq  40002b00 <free>
    400009a6:	48 8b bb 48 02 00 00 	mov    0x248(%rbx),%rdi
    400009ad:	48 85 ff             	test   %rdi,%rdi
    400009b0:	74 05                	je     400009b7 <getfree+0x37>
    400009b2:	e8 49 21 00 00       	callq  40002b00 <free>
    400009b7:	48 c7 83 30 02 00 00 	movq   $0x0,0x230(%rbx)
    400009be:	00 00 00 00 
    400009c2:	48 c7 83 28 02 00 00 	movq   $0x0,0x228(%rbx)
    400009c9:	00 00 00 00 
    400009cd:	31 c0                	xor    %eax,%eax
    400009cf:	48 c7 83 40 02 00 00 	movq   $0x0,0x240(%rbx)
    400009d6:	00 00 00 00 
    400009da:	48 c7 83 38 02 00 00 	movq   $0x0,0x238(%rbx)
    400009e1:	00 00 00 00 
    400009e5:	48 c7 83 50 02 00 00 	movq   $0x0,0x250(%rbx)
    400009ec:	00 00 00 00 
    400009f0:	48 c7 83 48 02 00 00 	movq   $0x0,0x248(%rbx)
    400009f7:	00 00 00 00 
    400009fb:	5b                   	pop    %rbx
    400009fc:	c3                   	retq   
    400009fd:	0f 1f 00             	nopl   (%rax)

0000000040000a00 <read_min>:
    40000a00:	41 57                	push   %r15
    40000a02:	41 56                	push   %r14
    40000a04:	48 8d 35 f4 f8 3f 00 	lea    0x3ff8f4(%rip),%rsi        # 404002ff <data_start+0x2ff>
    40000a0b:	41 55                	push   %r13
    40000a0d:	41 54                	push   %r12
    40000a0f:	49 89 fd             	mov    %rdi,%r13
    40000a12:	55                   	push   %rbp
    40000a13:	53                   	push   %rbx
    40000a14:	48 81 ec 18 01 00 00 	sub    $0x118,%rsp
    40000a1b:	e8 5e 33 00 00       	callq  40003d7e <fopen>
    40000a20:	48 85 c0             	test   %rax,%rax
    40000a23:	48 89 04 24          	mov    %rax,(%rsp)
    40000a27:	0f 84 fa 02 00 00    	je     40000d27 <read_min+0x327>
    40000a2d:	48 8d 6c 24 40       	lea    0x40(%rsp),%rbp
    40000a32:	48 8b 14 24          	mov    (%rsp),%rdx
    40000a36:	be c8 00 00 00       	mov    $0xc8,%esi
    40000a3b:	48 89 ef             	mov    %rbp,%rdi
    40000a3e:	e8 ed 31 00 00       	callq  40003c30 <fgets>
    40000a43:	48 8d 44 24 30       	lea    0x30(%rsp),%rax
    40000a48:	48 8d 7c 24 28       	lea    0x28(%rsp),%rdi
    40000a4d:	48 8d 35 cf f8 3f 00 	lea    0x3ff8cf(%rip),%rsi        # 40400323 <data_start+0x323>
    40000a54:	48 89 44 24 10       	mov    %rax,0x10(%rsp)
    40000a59:	48 89 7c 24 08       	mov    %rdi,0x8(%rsp)
    40000a5e:	48 89 c1             	mov    %rax,%rcx
    40000a61:	48 89 fa             	mov    %rdi,%rdx
    40000a64:	31 c0                	xor    %eax,%eax
    40000a66:	48 89 ef             	mov    %rbp,%rdi
    40000a69:	e8 bf 36 00 00       	callq  4000412d <sscanf>
    40000a6e:	83 f8 02             	cmp    $0x2,%eax
    40000a71:	0f 85 b0 02 00 00    	jne    40000d27 <read_min+0x327>
    40000a77:	48 8b 44 24 28       	mov    0x28(%rsp),%rax
    40000a7c:	48 8b 54 24 30       	mov    0x30(%rsp),%rdx
    40000a81:	48 8d 3c 00          	lea    (%rax,%rax,1),%rdi
    40000a85:	49 89 85 98 01 00 00 	mov    %rax,0x198(%r13)
    40000a8c:	49 89 95 b0 01 00 00 	mov    %rdx,0x1b0(%r13)
    40000a93:	4c 8d 3c 38          	lea    (%rax,%rdi,1),%r15
    40000a97:	4c 8d 67 01          	lea    0x1(%rdi),%r12
    40000a9b:	49 01 d7             	add    %rdx,%r15
    40000a9e:	48 3d 98 3a 00 00    	cmp    $0x3a98,%rax
    40000aa4:	4d 89 a5 90 01 00 00 	mov    %r12,0x190(%r13)
    40000aab:	4d 89 bd a8 01 00 00 	mov    %r15,0x1a8(%r13)
    40000ab2:	0f 8e 88 02 00 00    	jle    40000d40 <read_min+0x340>
    40000ab8:	b8 00 00 a1 01       	mov    $0x1a10000,%eax
    40000abd:	49 c7 85 a0 01 00 00 	movq   $0x1a10000,0x1a0(%r13)
    40000ac4:	00 00 a1 01 
    40000ac8:	49 c7 85 c8 01 00 00 	movq   $0x1b8faa0,0x1c8(%r13)
    40000acf:	a0 fa b8 01 
    40000ad3:	4c 29 f8             	sub    %r15,%rax
    40000ad6:	bb 00 00 a1 01       	mov    $0x1a10000,%ebx
    40000adb:	48 83 c7 02          	add    $0x2,%rdi
    40000adf:	be 68 00 00 00       	mov    $0x68,%esi
    40000ae4:	49 89 85 c0 01 00 00 	mov    %rax,0x1c0(%r13)
    40000aeb:	e8 b0 19 00 00       	callq  400024a0 <calloc>
    40000af0:	be 40 00 00 00       	mov    $0x40,%esi
    40000af5:	4c 89 e7             	mov    %r12,%rdi
    40000af8:	49 89 85 28 02 00 00 	mov    %rax,0x228(%r13)
    40000aff:	49 89 c6             	mov    %rax,%r14
    40000b02:	e8 99 19 00 00       	callq  400024a0 <calloc>
    40000b07:	be 40 00 00 00       	mov    $0x40,%esi
    40000b0c:	48 89 df             	mov    %rbx,%rdi
    40000b0f:	49 89 85 48 02 00 00 	mov    %rax,0x248(%r13)
    40000b16:	48 89 44 24 18       	mov    %rax,0x18(%rsp)
    40000b1b:	e8 80 19 00 00       	callq  400024a0 <calloc>
    40000b20:	48 85 c0             	test   %rax,%rax
    40000b23:	48 89 c3             	mov    %rax,%rbx
    40000b26:	49 89 85 38 02 00 00 	mov    %rax,0x238(%r13)
    40000b2d:	40 0f 94 c6          	sete   %sil
    40000b31:	4d 85 f6             	test   %r14,%r14
    40000b34:	0f 94 c0             	sete   %al
    40000b37:	40 08 c6             	or     %al,%sil
    40000b3a:	0f 85 bb 03 00 00    	jne    40000efb <read_min+0x4fb>
    40000b40:	48 8b 54 24 18       	mov    0x18(%rsp),%rdx
    40000b45:	48 85 d2             	test   %rdx,%rdx
    40000b48:	0f 84 ad 03 00 00    	je     40000efb <read_min+0x4fb>
    40000b4e:	49 8d 44 24 01       	lea    0x1(%r12),%rax
    40000b53:	49 8b bd 98 01 00 00 	mov    0x198(%r13),%rdi
    40000b5a:	49 c1 e7 06          	shl    $0x6,%r15
    40000b5e:	49 01 df             	add    %rbx,%r15
    40000b61:	48 8d 34 40          	lea    (%rax,%rax,2),%rsi
    40000b65:	4d 89 bd 40 02 00 00 	mov    %r15,0x240(%r13)
    40000b6c:	48 8d 04 b0          	lea    (%rax,%rsi,4),%rax
    40000b70:	49 8d 04 c6          	lea    (%r14,%rax,8),%rax
    40000b74:	49 89 85 30 02 00 00 	mov    %rax,0x230(%r13)
    40000b7b:	4c 89 e0             	mov    %r12,%rax
    40000b7e:	48 c1 e0 06          	shl    $0x6,%rax
    40000b82:	48 01 d0             	add    %rdx,%rax
    40000b85:	48 85 ff             	test   %rdi,%rdi
    40000b88:	49 89 85 50 02 00 00 	mov    %rax,0x250(%r13)
    40000b8f:	0f 8e 5b 03 00 00    	jle    40000ef0 <read_min+0x4f0>
    40000b95:	4c 89 e8             	mov    %r13,%rax
    40000b98:	41 bc 01 00 00 00    	mov    $0x1,%r12d
    40000b9e:	4d 89 f5             	mov    %r14,%r13
    40000ba1:	49 89 c7             	mov    %rax,%r15
    40000ba4:	e9 49 01 00 00       	jmpq   40000cf2 <read_min+0x2f2>
    40000ba9:	0f 1f 80 00 00 00 00 	nopl   0x0(%rax)
    40000bb0:	48 8b 4c 24 28       	mov    0x28(%rsp),%rcx
    40000bb5:	48 8b 54 24 30       	mov    0x30(%rsp),%rdx
    40000bba:	48 39 d1             	cmp    %rdx,%rcx
    40000bbd:	0f 8f 64 01 00 00    	jg     40000d27 <read_min+0x327>
    40000bc3:	49 8b bf 98 01 00 00 	mov    0x198(%r15),%rdi
    40000bca:	44 89 e0             	mov    %r12d,%eax
    40000bcd:	49 c7 85 b8 00 00 00 	movq   $0xffffffffffffffff,0xb8(%r13)
    40000bd4:	ff ff ff ff 
    40000bd8:	f7 d8                	neg    %eax
    40000bda:	41 b8 80 96 98 00    	mov    $0x989680,%r8d
    40000be0:	49 8d 75 68          	lea    0x68(%r13),%rsi
    40000be4:	41 89 85 c8 00 00 00 	mov    %eax,0xc8(%r13)
    40000beb:	48 c7 43 40 0f 00 00 	movq   $0xf,0x40(%rbx)
    40000bf2:	00 
    40000bf3:	4a 8d 04 27          	lea    (%rdi,%r12,1),%rax
    40000bf7:	48 89 73 10          	mov    %rsi,0x10(%rbx)
    40000bfb:	48 c7 43 78 0f 00 00 	movq   $0xf,0x78(%rbx)
    40000c02:	00 
    40000c03:	48 89 b3 88 00 00 00 	mov    %rsi,0x88(%rbx)
    40000c0a:	4c 8d 1c 40          	lea    (%rax,%rax,2),%r11
    40000c0e:	4a 8d 04 98          	lea    (%rax,%r11,4),%rax
    40000c12:	49 8d 04 c6          	lea    (%r14,%rax,8),%rax
    40000c16:	44 89 60 60          	mov    %r12d,0x60(%rax)
    40000c1a:	48 c7 40 50 01 00 00 	movq   $0x1,0x50(%rax)
    40000c21:	00 
    40000c22:	41 89 8d cc 00 00 00 	mov    %ecx,0xcc(%r13)
    40000c29:	89 50 64             	mov    %edx,0x64(%rax)
    40000c2c:	49 8b 97 90 01 00 00 	mov    0x190(%r15),%rdx
    40000c33:	48 89 43 48          	mov    %rax,0x48(%rbx)
    40000c37:	48 89 83 90 00 00 00 	mov    %rax,0x90(%rbx)
    40000c3e:	48 8d 0c 52          	lea    (%rdx,%rdx,2),%rcx
    40000c42:	48 8d 14 8a          	lea    (%rdx,%rcx,4),%rdx
    40000c46:	49 8d 0c d6          	lea    (%r14,%rdx,8),%rcx
    40000c4a:	49 8b 97 10 02 00 00 	mov    0x210(%r15),%rdx
    40000c51:	48 89 4b 08          	mov    %rcx,0x8(%rbx)
    40000c55:	48 89 4b 50          	mov    %rcx,0x50(%rbx)
    40000c59:	4c 8d 5a 0f          	lea    0xf(%rdx),%r11
    40000c5d:	48 81 fa 80 96 98 00 	cmp    $0x989680,%rdx
    40000c64:	49 0f 4c d0          	cmovl  %r8,%rdx
    40000c68:	49 83 c4 01          	add    $0x1,%r12
    40000c6c:	4c 89 1b             	mov    %r11,(%rbx)
    40000c6f:	4c 89 5b 38          	mov    %r11,0x38(%rbx)
    40000c73:	48 01 d2             	add    %rdx,%rdx
    40000c76:	4c 8b 59 38          	mov    0x38(%rcx),%r11
    40000c7a:	48 89 59 38          	mov    %rbx,0x38(%rcx)
    40000c7e:	48 89 93 80 00 00 00 	mov    %rdx,0x80(%rbx)
    40000c85:	4c 89 5b 20          	mov    %r11,0x20(%rbx)
    40000c89:	4d 8b 9d a8 00 00 00 	mov    0xa8(%r13),%r11
    40000c90:	49 89 9d a8 00 00 00 	mov    %rbx,0xa8(%r13)
    40000c97:	4c 8b 48 38          	mov    0x38(%rax),%r9
    40000c9b:	4c 8b 51 40          	mov    0x40(%rcx),%r10
    40000c9f:	4c 89 5b 28          	mov    %r11,0x28(%rbx)
    40000ca3:	4c 8d 5b 40          	lea    0x40(%rbx),%r11
    40000ca7:	4c 89 4b 60          	mov    %r9,0x60(%rbx)
    40000cab:	4c 89 53 68          	mov    %r10,0x68(%rbx)
    40000caf:	4c 89 58 38          	mov    %r11,0x38(%rax)
    40000cb3:	4c 89 59 40          	mov    %r11,0x40(%rcx)
    40000cb7:	48 89 93 b8 00 00 00 	mov    %rdx,0xb8(%rbx)
    40000cbe:	48 8d 8b 80 00 00 00 	lea    0x80(%rbx),%rcx
    40000cc5:	49 8b 95 a0 00 00 00 	mov    0xa0(%r13),%rdx
    40000ccc:	48 81 c3 c0 00 00 00 	add    $0xc0,%rbx
    40000cd3:	49 89 8d a0 00 00 00 	mov    %rcx,0xa0(%r13)
    40000cda:	49 89 f5             	mov    %rsi,%r13
    40000cdd:	48 89 53 e0          	mov    %rdx,-0x20(%rbx)
    40000ce1:	48 8b 50 40          	mov    0x40(%rax),%rdx
    40000ce5:	48 89 48 40          	mov    %rcx,0x40(%rax)
    40000ce9:	48 89 53 e8          	mov    %rdx,-0x18(%rbx)
    40000ced:	4c 39 e7             	cmp    %r12,%rdi
    40000cf0:	7c 6e                	jl     40000d60 <read_min+0x360>
    40000cf2:	48 8b 14 24          	mov    (%rsp),%rdx
    40000cf6:	be c8 00 00 00       	mov    $0xc8,%esi
    40000cfb:	48 89 ef             	mov    %rbp,%rdi
    40000cfe:	e8 2d 2f 00 00       	callq  40003c30 <fgets>
    40000d03:	48 8b 4c 24 10       	mov    0x10(%rsp),%rcx
    40000d08:	48 8b 54 24 08       	mov    0x8(%rsp),%rdx
    40000d0d:	48 8d 35 0f f6 3f 00 	lea    0x3ff60f(%rip),%rsi        # 40400323 <data_start+0x323>
    40000d14:	31 c0                	xor    %eax,%eax
    40000d16:	48 89 ef             	mov    %rbp,%rdi
    40000d19:	e8 0f 34 00 00       	callq  4000412d <sscanf>
    40000d1e:	83 f8 02             	cmp    $0x2,%eax
    40000d21:	0f 84 89 fe ff ff    	je     40000bb0 <read_min+0x1b0>
    40000d27:	48 c7 c0 ff ff ff ff 	mov    $0xffffffffffffffff,%rax
    40000d2e:	48 81 c4 18 01 00 00 	add    $0x118,%rsp
    40000d35:	5b                   	pop    %rbx
    40000d36:	5d                   	pop    %rbp
    40000d37:	41 5c                	pop    %r12
    40000d39:	41 5d                	pop    %r13
    40000d3b:	41 5e                	pop    %r14
    40000d3d:	41 5f                	pop    %r15
    40000d3f:	c3                   	retq   
    40000d40:	4d 89 bd a0 01 00 00 	mov    %r15,0x1a0(%r13)
    40000d47:	49 c7 85 c8 01 00 00 	movq   $0x2dc6c0,0x1c8(%r13)
    40000d4e:	c0 c6 2d 00 
    40000d52:	4c 89 fb             	mov    %r15,%rbx
    40000d55:	31 c0                	xor    %eax,%eax
    40000d57:	e9 7f fd ff ff       	jmpq   40000adb <read_min+0xdb>
    40000d5c:	0f 1f 40 00          	nopl   0x0(%rax)
    40000d60:	4d 89 fd             	mov    %r15,%r13
    40000d63:	48 83 c7 01          	add    $0x1,%rdi
    40000d67:	4c 39 e7             	cmp    %r12,%rdi
    40000d6a:	75 bb                	jne    40000d27 <read_min+0x327>
    40000d6c:	49 83 bd b0 01 00 00 	cmpq   $0x0,0x1b0(%r13)
    40000d73:	00 
    40000d74:	0f 8e c1 00 00 00    	jle    40000e3b <read_min+0x43b>
    40000d7a:	4c 8d 64 24 38       	lea    0x38(%rsp),%r12
    40000d7f:	45 31 ff             	xor    %r15d,%r15d
    40000d82:	4c 89 e0             	mov    %r12,%rax
    40000d85:	4d 89 fc             	mov    %r15,%r12
    40000d88:	4d 89 ef             	mov    %r13,%r15
    40000d8b:	49 89 c5             	mov    %rax,%r13
    40000d8e:	eb 66                	jmp    40000df6 <read_min+0x3f6>
    40000d90:	48 8b 44 24 28       	mov    0x28(%rsp),%rax
    40000d95:	49 03 87 98 01 00 00 	add    0x198(%r15),%rax
    40000d9c:	49 83 c4 01          	add    $0x1,%r12
    40000da0:	48 8d 14 40          	lea    (%rax,%rax,2),%rdx
    40000da4:	48 8d 04 90          	lea    (%rax,%rdx,4),%rax
    40000da8:	49 8d 14 c6          	lea    (%r14,%rax,8),%rdx
    40000dac:	48 8b 44 24 30       	mov    0x30(%rsp),%rax
    40000db1:	48 89 53 08          	mov    %rdx,0x8(%rbx)
    40000db5:	48 8d 0c 40          	lea    (%rax,%rax,2),%rcx
    40000db9:	48 8d 04 88          	lea    (%rax,%rcx,4),%rax
    40000dbd:	48 8b 4c 24 38       	mov    0x38(%rsp),%rcx
    40000dc2:	49 8d 04 c6          	lea    (%r14,%rax,8),%rax
    40000dc6:	48 89 4b 38          	mov    %rcx,0x38(%rbx)
    40000dca:	48 89 0b             	mov    %rcx,(%rbx)
    40000dcd:	48 8b 4a 38          	mov    0x38(%rdx),%rcx
    40000dd1:	48 89 5a 38          	mov    %rbx,0x38(%rdx)
    40000dd5:	48 8b 50 40          	mov    0x40(%rax),%rdx
    40000dd9:	48 89 43 10          	mov    %rax,0x10(%rbx)
    40000ddd:	48 89 58 40          	mov    %rbx,0x40(%rax)
    40000de1:	48 83 c3 40          	add    $0x40,%rbx
    40000de5:	48 89 4b e0          	mov    %rcx,-0x20(%rbx)
    40000de9:	48 89 53 e8          	mov    %rdx,-0x18(%rbx)
    40000ded:	4d 39 a7 b0 01 00 00 	cmp    %r12,0x1b0(%r15)
    40000df4:	7e 42                	jle    40000e38 <read_min+0x438>
    40000df6:	48 8b 14 24          	mov    (%rsp),%rdx
    40000dfa:	be c8 00 00 00       	mov    $0xc8,%esi
    40000dff:	48 89 ef             	mov    %rbp,%rdi
    40000e02:	e8 29 2e 00 00       	callq  40003c30 <fgets>
    40000e07:	48 8b 4c 24 10       	mov    0x10(%rsp),%rcx
    40000e0c:	48 8b 54 24 08       	mov    0x8(%rsp),%rdx
    40000e11:	48 8d 35 07 f5 3f 00 	lea    0x3ff507(%rip),%rsi        # 4040031f <data_start+0x31f>
    40000e18:	31 c0                	xor    %eax,%eax
    40000e1a:	4d 89 e8             	mov    %r13,%r8
    40000e1d:	48 89 ef             	mov    %rbp,%rdi
    40000e20:	e8 08 33 00 00       	callq  4000412d <sscanf>
    40000e25:	83 f8 03             	cmp    $0x3,%eax
    40000e28:	0f 84 62 ff ff ff    	je     40000d90 <read_min+0x390>
    40000e2e:	e9 f4 fe ff ff       	jmpq   40000d27 <read_min+0x327>
    40000e33:	0f 1f 44 00 00       	nopl   0x0(%rax,%rax,1)
    40000e38:	4d 89 fd             	mov    %r15,%r13
    40000e3b:	49 39 9d 40 02 00 00 	cmp    %rbx,0x240(%r13)
    40000e42:	74 3e                	je     40000e82 <read_min+0x482>
    40000e44:	49 8b 85 38 02 00 00 	mov    0x238(%r13),%rax
    40000e4b:	49 89 9d 40 02 00 00 	mov    %rbx,0x240(%r13)
    40000e52:	49 c7 85 a8 01 00 00 	movq   $0x0,0x1a8(%r13)
    40000e59:	00 00 00 00 
    40000e5d:	48 39 d8             	cmp    %rbx,%rax
    40000e60:	0f 83 ae 00 00 00    	jae    40000f14 <read_min+0x514>
    40000e66:	48 f7 d0             	not    %rax
    40000e69:	48 01 c3             	add    %rax,%rbx
    40000e6c:	48 c1 eb 06          	shr    $0x6,%rbx
    40000e70:	48 8d 43 01          	lea    0x1(%rbx),%rax
    40000e74:	49 89 85 a8 01 00 00 	mov    %rax,0x1a8(%r13)
    40000e7b:	49 89 85 b0 01 00 00 	mov    %rax,0x1b0(%r13)
    40000e82:	48 8b 3c 24          	mov    (%rsp),%rdi
    40000e86:	e8 0f 2c 00 00       	callq  40003a9a <fclose>
    40000e8b:	49 8b 8d 98 01 00 00 	mov    0x198(%r13),%rcx
    40000e92:	41 c6 85 c8 00 00 00 	movb   $0x0,0xc8(%r13)
    40000e99:	00 
    40000e9a:	48 85 c9             	test   %rcx,%rcx
    40000e9d:	7e 4a                	jle    40000ee9 <read_min+0x4e9>
    40000e9f:	49 81 bd 10 02 00 00 	cmpq   $0x989680,0x210(%r13)
    40000ea6:	80 96 98 00 
    40000eaa:	ba 80 96 98 00       	mov    $0x989680,%edx
    40000eaf:	49 8b 85 38 02 00 00 	mov    0x238(%r13),%rax
    40000eb6:	49 0f 4d 95 10 02 00 	cmovge 0x210(%r13),%rdx
    40000ebd:	00 
    40000ebe:	48 8d 0c 49          	lea    (%rcx,%rcx,2),%rcx
    40000ec2:	48 c1 e1 06          	shl    $0x6,%rcx
    40000ec6:	48 01 c1             	add    %rax,%rcx
    40000ec9:	48 f7 da             	neg    %rdx
    40000ecc:	48 01 d2             	add    %rdx,%rdx
    40000ecf:	90                   	nop
    40000ed0:	48 89 90 80 00 00 00 	mov    %rdx,0x80(%rax)
    40000ed7:	48 89 90 b8 00 00 00 	mov    %rdx,0xb8(%rax)
    40000ede:	48 05 c0 00 00 00    	add    $0xc0,%rax
    40000ee4:	48 39 c8             	cmp    %rcx,%rax
    40000ee7:	75 e7                	jne    40000ed0 <read_min+0x4d0>
    40000ee9:	31 c0                	xor    %eax,%eax
    40000eeb:	e9 3e fe ff ff       	jmpq   40000d2e <read_min+0x32e>
    40000ef0:	41 bc 01 00 00 00    	mov    $0x1,%r12d
    40000ef6:	e9 68 fe ff ff       	jmpq   40000d63 <read_min+0x363>
    40000efb:	48 8d 3d ff f3 3f 00 	lea    0x3ff3ff(%rip),%rdi        # 40400301 <data_start+0x301>
    40000f02:	e8 a1 31 00 00       	callq  400040a8 <puts>
    40000f07:	4c 89 ef             	mov    %r13,%rdi
    40000f0a:	e8 71 fa ff ff       	callq  40000980 <getfree>
    40000f0f:	e9 13 fe ff ff       	jmpq   40000d27 <read_min+0x327>
    40000f14:	31 c0                	xor    %eax,%eax
    40000f16:	e9 60 ff ff ff       	jmpq   40000e7b <read_min+0x47b>
    40000f1b:	0f 1f 44 00 00       	nopl   0x0(%rax,%rax,1)

0000000040000f20 <resize_prob>:
    40000f20:	53                   	push   %rbx
    40000f21:	48 8b 87 c8 01 00 00 	mov    0x1c8(%rdi),%rax
    40000f28:	48 89 fb             	mov    %rdi,%rbx
    40000f2b:	48 01 87 c0 01 00 00 	add    %rax,0x1c0(%rdi)
    40000f32:	48 89 c6             	mov    %rax,%rsi
    40000f35:	48 03 b7 a0 01 00 00 	add    0x1a0(%rdi),%rsi
    40000f3c:	48 89 b7 a0 01 00 00 	mov    %rsi,0x1a0(%rdi)
    40000f43:	48 8b bf 38 02 00 00 	mov    0x238(%rdi),%rdi
    40000f4a:	48 c1 e6 06          	shl    $0x6,%rsi
    40000f4e:	e8 4d 27 00 00       	callq  400036a0 <realloc>
    40000f53:	48 85 c0             	test   %rax,%rax
    40000f56:	74 57                	je     40000faf <resize_prob+0x8f>
    40000f58:	48 8b 93 a8 01 00 00 	mov    0x1a8(%rbx),%rdx
    40000f5f:	48 8b 8b 28 02 00 00 	mov    0x228(%rbx),%rcx
    40000f66:	48 89 c6             	mov    %rax,%rsi
    40000f69:	48 2b b3 38 02 00 00 	sub    0x238(%rbx),%rsi
    40000f70:	48 89 83 38 02 00 00 	mov    %rax,0x238(%rbx)
    40000f77:	48 c1 e2 06          	shl    $0x6,%rdx
    40000f7b:	48 01 d0             	add    %rdx,%rax
    40000f7e:	48 8b 93 30 02 00 00 	mov    0x230(%rbx),%rdx
    40000f85:	48 89 83 40 02 00 00 	mov    %rax,0x240(%rbx)
    40000f8c:	48 8d 41 68          	lea    0x68(%rcx),%rax
    40000f90:	48 39 d0             	cmp    %rdx,%rax
    40000f93:	73 16                	jae    40000fab <resize_prob+0x8b>
    40000f95:	0f 1f 00             	nopl   (%rax)
    40000f98:	48 3b 48 18          	cmp    0x18(%rax),%rcx
    40000f9c:	74 04                	je     40000fa2 <resize_prob+0x82>
    40000f9e:	48 01 70 30          	add    %rsi,0x30(%rax)
    40000fa2:	48 83 c0 68          	add    $0x68,%rax
    40000fa6:	48 39 c2             	cmp    %rax,%rdx
    40000fa9:	77 ed                	ja     40000f98 <resize_prob+0x78>
    40000fab:	31 c0                	xor    %eax,%eax
    40000fad:	5b                   	pop    %rbx
    40000fae:	c3                   	retq   
    40000faf:	48 8d 3d 7a f3 3f 00 	lea    0x3ff37a(%rip),%rdi        # 40400330 <data_start+0x330>
    40000fb6:	48 89 de             	mov    %rbx,%rsi
    40000fb9:	e8 40 30 00 00       	callq  40003ffe <printf>
    40000fbe:	48 8d 05 e3 f3 3f 00 	lea    0x3ff3e3(%rip),%rax        # 404003a8 <stdout>
    40000fc5:	48 8b 38             	mov    (%rax),%rdi
    40000fc8:	e8 7c 2b 00 00       	callq  40003b49 <fflush>
    40000fcd:	48 c7 c0 ff ff ff ff 	mov    $0xffffffffffffffff,%rax
    40000fd4:	5b                   	pop    %rbx
    40000fd5:	c3                   	retq   
    40000fd6:	66 2e 0f 1f 84 00 00 	nopw   %cs:0x0(%rax,%rax,1)
    40000fdd:	00 00 00 

0000000040000fe0 <insert_new_arc>:
    40000fe0:	48 89 f0             	mov    %rsi,%rax
    40000fe3:	48 83 c6 01          	add    $0x1,%rsi
    40000fe7:	48 c1 e0 06          	shl    $0x6,%rax
    40000feb:	48 01 f8             	add    %rdi,%rax
    40000fee:	48 83 fe 01          	cmp    $0x1,%rsi
    40000ff2:	48 89 50 08          	mov    %rdx,0x8(%rax)
    40000ff6:	48 89 48 10          	mov    %rcx,0x10(%rax)
    40000ffa:	4c 89 40 38          	mov    %r8,0x38(%rax)
    40000ffe:	4c 89 00             	mov    %r8,(%rax)
    40001001:	4c 89 48 30          	mov    %r9,0x30(%rax)
    40001005:	0f 84 91 00 00 00    	je     4000109c <insert_new_arc+0xbc>
    4000100b:	49 89 f3             	mov    %rsi,%r11
    4000100e:	53                   	push   %rbx
    4000100f:	49 c1 eb 3f          	shr    $0x3f,%r11
    40001013:	49 01 f3             	add    %rsi,%r11
    40001016:	49 d1 fb             	sar    %r11
    40001019:	4c 89 d8             	mov    %r11,%rax
    4000101c:	48 c1 e0 06          	shl    $0x6,%rax
    40001020:	48 8d 44 07 c0       	lea    -0x40(%rdi,%rax,1),%rax
    40001025:	48 8b 58 30          	mov    0x30(%rax),%rbx
    40001029:	49 39 d9             	cmp    %rbx,%r9
    4000102c:	7f 2a                	jg     40001058 <insert_new_arc+0x78>
    4000102e:	eb 6b                	jmp    4000109b <insert_new_arc+0xbb>
    40001030:	4d 89 da             	mov    %r11,%r10
    40001033:	4c 89 de             	mov    %r11,%rsi
    40001036:	49 c1 ea 3f          	shr    $0x3f,%r10
    4000103a:	4d 01 da             	add    %r11,%r10
    4000103d:	49 d1 fa             	sar    %r10
    40001040:	4c 89 d0             	mov    %r10,%rax
    40001043:	48 c1 e0 06          	shl    $0x6,%rax
    40001047:	48 8d 44 07 c0       	lea    -0x40(%rdi,%rax,1),%rax
    4000104c:	48 8b 58 30          	mov    0x30(%rax),%rbx
    40001050:	49 39 d9             	cmp    %rbx,%r9
    40001053:	7e 46                	jle    4000109b <insert_new_arc+0xbb>
    40001055:	4d 89 d3             	mov    %r10,%r11
    40001058:	4c 8b 50 08          	mov    0x8(%rax),%r10
    4000105c:	48 c1 e6 06          	shl    $0x6,%rsi
    40001060:	49 83 fb 01          	cmp    $0x1,%r11
    40001064:	48 8d 74 37 c0       	lea    -0x40(%rdi,%rsi,1),%rsi
    40001069:	4c 89 56 08          	mov    %r10,0x8(%rsi)
    4000106d:	4c 8b 50 10          	mov    0x10(%rax),%r10
    40001071:	4c 89 56 10          	mov    %r10,0x10(%rsi)
    40001075:	4c 8b 10             	mov    (%rax),%r10
    40001078:	4c 89 16             	mov    %r10,(%rsi)
    4000107b:	4c 8b 10             	mov    (%rax),%r10
    4000107e:	48 89 5e 30          	mov    %rbx,0x30(%rsi)
    40001082:	4c 89 56 38          	mov    %r10,0x38(%rsi)
    40001086:	48 89 50 08          	mov    %rdx,0x8(%rax)
    4000108a:	48 89 48 10          	mov    %rcx,0x10(%rax)
    4000108e:	4c 89 00             	mov    %r8,(%rax)
    40001091:	4c 89 40 38          	mov    %r8,0x38(%rax)
    40001095:	4c 89 48 30          	mov    %r9,0x30(%rax)
    40001099:	75 95                	jne    40001030 <insert_new_arc+0x50>
    4000109b:	5b                   	pop    %rbx
    4000109c:	f3 c3                	repz retq 
    4000109e:	66 90                	xchg   %ax,%ax

00000000400010a0 <replace_weaker_arc>:
    400010a0:	45 31 d2             	xor    %r10d,%r10d
    400010a3:	48 8b 86 b0 00 00 00 	mov    0xb0(%rsi),%rax
    400010aa:	48 39 46 70          	cmp    %rax,0x70(%rsi)
    400010ae:	41 56                	push   %r14
    400010b0:	48 89 56 08          	mov    %rdx,0x8(%rsi)
    400010b4:	53                   	push   %rbx
    400010b5:	48 89 4e 10          	mov    %rcx,0x10(%rsi)
    400010b9:	48 8b 9f c0 01 00 00 	mov    0x1c0(%rdi),%rbx
    400010c0:	4c 89 46 38          	mov    %r8,0x38(%rsi)
    400010c4:	bf 01 00 00 00       	mov    $0x1,%edi
    400010c9:	41 0f 9e c2          	setle  %r10b
    400010cd:	4c 89 06             	mov    %r8,(%rsi)
    400010d0:	4c 89 4e 30          	mov    %r9,0x30(%rsi)
    400010d4:	49 83 c2 02          	add    $0x2,%r10
    400010d8:	e9 80 00 00 00       	jmpq   4000115d <replace_weaker_arc+0xbd>
    400010dd:	0f 1f 00             	nopl   (%rax)
    400010e0:	4c 89 d0             	mov    %r10,%rax
    400010e3:	48 c1 e0 06          	shl    $0x6,%rax
    400010e7:	48 8d 44 06 c0       	lea    -0x40(%rsi,%rax,1),%rax
    400010ec:	4c 8b 58 30          	mov    0x30(%rax),%r11
    400010f0:	4d 39 d9             	cmp    %r11,%r9
    400010f3:	7d 71                	jge    40001166 <replace_weaker_arc+0xc6>
    400010f5:	4c 8b 70 08          	mov    0x8(%rax),%r14
    400010f9:	48 c1 e7 06          	shl    $0x6,%rdi
    400010fd:	48 8d 7c 3e c0       	lea    -0x40(%rsi,%rdi,1),%rdi
    40001102:	4c 89 77 08          	mov    %r14,0x8(%rdi)
    40001106:	4c 8b 70 10          	mov    0x10(%rax),%r14
    4000110a:	4c 89 77 10          	mov    %r14,0x10(%rdi)
    4000110e:	4c 8b 30             	mov    (%rax),%r14
    40001111:	4c 89 37             	mov    %r14,(%rdi)
    40001114:	4c 8b 30             	mov    (%rax),%r14
    40001117:	4c 89 5f 30          	mov    %r11,0x30(%rdi)
    4000111b:	4c 89 77 38          	mov    %r14,0x38(%rdi)
    4000111f:	48 89 50 08          	mov    %rdx,0x8(%rax)
    40001123:	48 89 48 10          	mov    %rcx,0x10(%rax)
    40001127:	4c 89 00             	mov    %r8,(%rax)
    4000112a:	4c 89 40 38          	mov    %r8,0x38(%rax)
    4000112e:	4c 89 48 30          	mov    %r9,0x30(%rax)
    40001132:	4b 8d 04 12          	lea    (%r10,%r10,1),%rax
    40001136:	48 39 c3             	cmp    %rax,%rbx
    40001139:	7e 1c                	jle    40001157 <replace_weaker_arc+0xb7>
    4000113b:	4c 89 d7             	mov    %r10,%rdi
    4000113e:	48 c1 e7 07          	shl    $0x7,%rdi
    40001142:	4c 8b 5c 3e 30       	mov    0x30(%rsi,%rdi,1),%r11
    40001147:	4c 39 5c 3e f0       	cmp    %r11,-0x10(%rsi,%rdi,1)
    4000114c:	40 0f 9c c7          	setl   %dil
    40001150:	40 0f b6 ff          	movzbl %dil,%edi
    40001154:	48 01 f8             	add    %rdi,%rax
    40001157:	4c 89 d7             	mov    %r10,%rdi
    4000115a:	49 89 c2             	mov    %rax,%r10
    4000115d:	49 39 da             	cmp    %rbx,%r10
    40001160:	0f 8e 7a ff ff ff    	jle    400010e0 <replace_weaker_arc+0x40>
    40001166:	5b                   	pop    %rbx
    40001167:	41 5e                	pop    %r14
    40001169:	c3                   	retq   
    4000116a:	66 0f 1f 44 00 00    	nopw   0x0(%rax,%rax,1)

0000000040001170 <price_out_impl>:
    40001170:	41 57                	push   %r15
    40001172:	41 56                	push   %r14
    40001174:	49 89 fa             	mov    %rdi,%r10
    40001177:	41 55                	push   %r13
    40001179:	41 54                	push   %r12
    4000117b:	55                   	push   %rbp
    4000117c:	53                   	push   %rbx
    4000117d:	48 83 ec 48          	sub    $0x48,%rsp
    40001181:	48 8b 87 10 02 00 00 	mov    0x210(%rdi),%rax
    40001188:	48 83 e8 0f          	sub    $0xf,%rax
    4000118c:	48 89 44 24 18       	mov    %rax,0x18(%rsp)
    40001191:	48 8b 87 98 01 00 00 	mov    0x198(%rdi),%rax
    40001198:	48 3d 98 3a 00 00    	cmp    $0x3a98,%rax
    4000119e:	48 89 44 24 10       	mov    %rax,0x10(%rsp)
    400011a3:	7f 59                	jg     400011fe <price_out_impl+0x8e>
    400011a5:	48 89 c6             	mov    %rax,%rsi
    400011a8:	48 8b 87 a8 01 00 00 	mov    0x1a8(%rdi),%rax
    400011af:	48 8b 97 a0 01 00 00 	mov    0x1a0(%rdi),%rdx
    400011b6:	48 89 c1             	mov    %rax,%rcx
    400011b9:	48 03 8f c8 01 00 00 	add    0x1c8(%rdi),%rcx
    400011c0:	48 39 d1             	cmp    %rdx,%rcx
    400011c3:	0f 8f 69 02 00 00    	jg     40001432 <price_out_impl+0x2c2>
    400011c9:	48 c7 44 24 38 00 00 	movq   $0x0,0x38(%rsp)
    400011d0:	00 00 
    400011d2:	48 83 7c 24 10 00    	cmpq   $0x0,0x10(%rsp)
    400011d8:	49 8b 82 40 02 00 00 	mov    0x240(%r10),%rax
    400011df:	4d 8b a2 38 02 00 00 	mov    0x238(%r10),%r12
    400011e6:	48 89 44 24 08       	mov    %rax,0x8(%rsp)
    400011eb:	7f 2d                	jg     4000121a <price_out_impl+0xaa>
    400011ed:	31 c0                	xor    %eax,%eax
    400011ef:	48 83 c4 48          	add    $0x48,%rsp
    400011f3:	5b                   	pop    %rbx
    400011f4:	5d                   	pop    %rbp
    400011f5:	41 5c                	pop    %r12
    400011f7:	41 5d                	pop    %r13
    400011f9:	41 5e                	pop    %r14
    400011fb:	41 5f                	pop    %r15
    400011fd:	c3                   	retq   
    400011fe:	48 8b 87 40 02 00 00 	mov    0x240(%rdi),%rax
    40001205:	4c 8b a7 38 02 00 00 	mov    0x238(%rdi),%r12
    4000120c:	48 c7 44 24 38 00 00 	movq   $0x0,0x38(%rsp)
    40001213:	00 00 
    40001215:	48 89 44 24 08       	mov    %rax,0x8(%rsp)
    4000121a:	41 8b 54 24 58       	mov    0x58(%r12),%edx
    4000121f:	45 31 f6             	xor    %r14d,%r14d
    40001222:	83 fa ff             	cmp    $0xffffffff,%edx
    40001225:	75 25                	jne    4000124c <price_out_impl+0xdc>
    40001227:	48 8b 44 24 10       	mov    0x10(%rsp),%rax
    4000122c:	eb 0c                	jmp    4000123a <price_out_impl+0xca>
    4000122e:	66 90                	xchg   %ax,%ax
    40001230:	41 8b 54 24 58       	mov    0x58(%r12),%edx
    40001235:	83 fa ff             	cmp    $0xffffffff,%edx
    40001238:	75 12                	jne    4000124c <price_out_impl+0xdc>
    4000123a:	49 83 c6 01          	add    $0x1,%r14
    4000123e:	49 81 c4 c0 00 00 00 	add    $0xc0,%r12
    40001245:	49 39 c6             	cmp    %rax,%r14
    40001248:	75 e6                	jne    40001230 <price_out_impl+0xc0>
    4000124a:	eb a1                	jmp    400011ed <price_out_impl+0x7d>
    4000124c:	49 83 c4 40          	add    $0x40,%r12
    40001250:	45 31 db             	xor    %r11d,%r11d
    40001253:	31 c0                	xor    %eax,%eax
    40001255:	41 bf 1e 00 00 00    	mov    $0x1e,%r15d
    4000125b:	0f 1f 44 00 00       	nopl   0x0(%rax,%rax,1)
    40001260:	83 fa ff             	cmp    $0xffffffff,%edx
    40001263:	74 14                	je     40001279 <price_out_impl+0x109>
    40001265:	49 8b 54 24 d0       	mov    -0x30(%r12),%rdx
    4000126a:	48 8b 52 38          	mov    0x38(%rdx),%rdx
    4000126e:	48 8b 52 10          	mov    0x10(%rdx),%rdx
    40001272:	4c 89 5a 48          	mov    %r11,0x48(%rdx)
    40001276:	4d 89 e3             	mov    %r12,%r11
    40001279:	41 83 7c 24 d8 ff    	cmpl   $0xffffffff,-0x28(%r12)
    4000127f:	0f 84 9b 00 00 00    	je     40001320 <price_out_impl+0x1b0>
    40001285:	4d 8b 6c 24 d0       	mov    -0x30(%r12),%r13
    4000128a:	49 8b 53 08          	mov    0x8(%r11),%rdx
    4000128e:	49 63 6d 64          	movslq 0x64(%r13),%rbp
    40001292:	48 8b 52 48          	mov    0x48(%rdx),%rdx
    40001296:	49 2b 6c 24 f8       	sub    -0x8(%r12),%rbp
    4000129b:	48 03 6c 24 18       	add    0x18(%rsp),%rbp
    400012a0:	eb 0a                	jmp    400012ac <price_out_impl+0x13c>
    400012a2:	66 0f 1f 44 00 00    	nopw   0x0(%rax,%rax,1)
    400012a8:	48 8b 53 48          	mov    0x48(%rbx),%rdx
    400012ac:	48 85 d2             	test   %rdx,%rdx
    400012af:	74 6f                	je     40001320 <price_out_impl+0x1b0>
    400012b1:	48 8b 5a 08          	mov    0x8(%rdx),%rbx
    400012b5:	48 63 4b 64          	movslq 0x64(%rbx),%rcx
    400012b9:	48 03 4a 38          	add    0x38(%rdx),%rcx
    400012bd:	48 39 cd             	cmp    %rcx,%rbp
    400012c0:	7c e6                	jl     400012a8 <price_out_impl+0x138>
    400012c2:	4d 89 f9             	mov    %r15,%r9
    400012c5:	4c 2b 0b             	sub    (%rbx),%r9
    400012c8:	4d 03 4d 00          	add    0x0(%r13),%r9
    400012cc:	79 da                	jns    400012a8 <price_out_impl+0x138>
    400012ce:	49 39 82 c0 01 00 00 	cmp    %rax,0x1c0(%r10)
    400012d5:	7f 69                	jg     40001340 <price_out_impl+0x1d0>
    400012d7:	48 8b 7c 24 08       	mov    0x8(%rsp),%rdi
    400012dc:	4c 3b 4f 30          	cmp    0x30(%rdi),%r9
    400012e0:	7d c6                	jge    400012a8 <price_out_impl+0x138>
    400012e2:	48 89 fe             	mov    %rdi,%rsi
    400012e5:	41 b8 1e 00 00 00    	mov    $0x1e,%r8d
    400012eb:	4c 89 d7             	mov    %r10,%rdi
    400012ee:	4c 89 e9             	mov    %r13,%rcx
    400012f1:	48 89 da             	mov    %rbx,%rdx
    400012f4:	48 89 44 24 30       	mov    %rax,0x30(%rsp)
    400012f9:	4c 89 5c 24 28       	mov    %r11,0x28(%rsp)
    400012fe:	4c 89 54 24 20       	mov    %r10,0x20(%rsp)
    40001303:	e8 98 fd ff ff       	callq  400010a0 <replace_weaker_arc>
    40001308:	48 8b 44 24 30       	mov    0x30(%rsp),%rax
    4000130d:	4c 8b 5c 24 28       	mov    0x28(%rsp),%r11
    40001312:	4c 8b 54 24 20       	mov    0x20(%rsp),%r10
    40001317:	eb 8f                	jmp    400012a8 <price_out_impl+0x138>
    40001319:	0f 1f 80 00 00 00 00 	nopl   0x0(%rax)
    40001320:	49 83 c6 01          	add    $0x1,%r14
    40001324:	49 81 c4 c0 00 00 00 	add    $0xc0,%r12
    4000132b:	4c 3b 74 24 10       	cmp    0x10(%rsp),%r14
    40001330:	7d 4e                	jge    40001380 <price_out_impl+0x210>
    40001332:	41 8b 54 24 18       	mov    0x18(%r12),%edx
    40001337:	e9 24 ff ff ff       	jmpq   40001260 <price_out_impl+0xf0>
    4000133c:	0f 1f 40 00          	nopl   0x0(%rax)
    40001340:	48 8b 7c 24 08       	mov    0x8(%rsp),%rdi
    40001345:	48 89 c6             	mov    %rax,%rsi
    40001348:	41 b8 1e 00 00 00    	mov    $0x1e,%r8d
    4000134e:	4c 89 e9             	mov    %r13,%rcx
    40001351:	48 89 da             	mov    %rbx,%rdx
    40001354:	4c 89 54 24 30       	mov    %r10,0x30(%rsp)
    40001359:	4c 89 5c 24 28       	mov    %r11,0x28(%rsp)
    4000135e:	48 89 44 24 20       	mov    %rax,0x20(%rsp)
    40001363:	e8 78 fc ff ff       	callq  40000fe0 <insert_new_arc>
    40001368:	48 8b 44 24 20       	mov    0x20(%rsp),%rax
    4000136d:	4c 8b 5c 24 28       	mov    0x28(%rsp),%r11
    40001372:	4c 8b 54 24 30       	mov    0x30(%rsp),%r10
    40001377:	48 83 c0 01          	add    $0x1,%rax
    4000137b:	e9 28 ff ff ff       	jmpq   400012a8 <price_out_impl+0x138>
    40001380:	48 85 c0             	test   %rax,%rax
    40001383:	0f 84 64 fe ff ff    	je     400011ed <price_out_impl+0x7d>
    40001389:	49 8b 92 40 02 00 00 	mov    0x240(%r10),%rdx
    40001390:	48 89 c6             	mov    %rax,%rsi
    40001393:	48 c1 e6 06          	shl    $0x6,%rsi
    40001397:	48 01 d6             	add    %rdx,%rsi
    4000139a:	48 83 7c 24 38 00    	cmpq   $0x0,0x38(%rsp)
    400013a0:	49 89 b2 40 02 00 00 	mov    %rsi,0x240(%r10)
    400013a7:	74 43                	je     400013ec <price_out_impl+0x27c>
    400013a9:	48 39 f2             	cmp    %rsi,%rdx
    400013ac:	74 1a                	je     400013c8 <price_out_impl+0x258>
    400013ae:	66 90                	xchg   %ax,%ax
    400013b0:	48 c7 42 30 00 00 00 	movq   $0x0,0x30(%rdx)
    400013b7:	00 
    400013b8:	c7 42 18 01 00 00 00 	movl   $0x1,0x18(%rdx)
    400013bf:	48 83 c2 40          	add    $0x40,%rdx
    400013c3:	48 39 d6             	cmp    %rdx,%rsi
    400013c6:	75 e8                	jne    400013b0 <price_out_impl+0x240>
    400013c8:	49 01 82 a8 01 00 00 	add    %rax,0x1a8(%r10)
    400013cf:	49 01 82 b8 01 00 00 	add    %rax,0x1b8(%r10)
    400013d6:	49 29 82 c0 01 00 00 	sub    %rax,0x1c0(%r10)
    400013dd:	48 83 c4 48          	add    $0x48,%rsp
    400013e1:	5b                   	pop    %rbx
    400013e2:	5d                   	pop    %rbp
    400013e3:	41 5c                	pop    %r12
    400013e5:	41 5d                	pop    %r13
    400013e7:	41 5e                	pop    %r14
    400013e9:	41 5f                	pop    %r15
    400013eb:	c3                   	retq   
    400013ec:	48 39 f2             	cmp    %rsi,%rdx
    400013ef:	74 d7                	je     400013c8 <price_out_impl+0x258>
    400013f1:	0f 1f 80 00 00 00 00 	nopl   0x0(%rax)
    400013f8:	48 8b 4a 08          	mov    0x8(%rdx),%rcx
    400013fc:	48 c7 42 30 00 00 00 	movq   $0x0,0x30(%rdx)
    40001403:	00 
    40001404:	c7 42 18 01 00 00 00 	movl   $0x1,0x18(%rdx)
    4000140b:	48 8b 79 38          	mov    0x38(%rcx),%rdi
    4000140f:	48 89 7a 20          	mov    %rdi,0x20(%rdx)
    40001413:	48 89 51 38          	mov    %rdx,0x38(%rcx)
    40001417:	48 8b 4a 10          	mov    0x10(%rdx),%rcx
    4000141b:	48 8b 79 40          	mov    0x40(%rcx),%rdi
    4000141f:	48 89 7a 28          	mov    %rdi,0x28(%rdx)
    40001423:	48 89 51 40          	mov    %rdx,0x40(%rcx)
    40001427:	48 83 c2 40          	add    $0x40,%rdx
    4000142b:	48 39 d6             	cmp    %rdx,%rsi
    4000142e:	75 c8                	jne    400013f8 <price_out_impl+0x288>
    40001430:	eb 96                	jmp    400013c8 <price_out_impl+0x258>
    40001432:	48 89 f1             	mov    %rsi,%rcx
    40001435:	48 c7 44 24 38 00 00 	movq   $0x0,0x38(%rsp)
    4000143c:	00 00 
    4000143e:	48 0f af ce          	imul   %rsi,%rcx
    40001442:	48 d1 f9             	sar    %rcx
    40001445:	48 01 c8             	add    %rcx,%rax
    40001448:	48 39 c2             	cmp    %rax,%rdx
    4000144b:	0f 8d 81 fd ff ff    	jge    400011d2 <price_out_impl+0x62>
    40001451:	48 89 7c 24 08       	mov    %rdi,0x8(%rsp)
    40001456:	e8 c5 fa ff ff       	callq  40000f20 <resize_prob>
    4000145b:	48 89 c2             	mov    %rax,%rdx
    4000145e:	48 c7 c0 ff ff ff ff 	mov    $0xffffffffffffffff,%rax
    40001465:	48 85 d2             	test   %rdx,%rdx
    40001468:	0f 85 81 fd ff ff    	jne    400011ef <price_out_impl+0x7f>
    4000146e:	4c 8b 54 24 08       	mov    0x8(%rsp),%r10
    40001473:	4c 89 d7             	mov    %r10,%rdi
    40001476:	e8 95 ef ff ff       	callq  40000410 <refresh_neighbour_lists>
    4000147b:	4c 8b 54 24 08       	mov    0x8(%rsp),%r10
    40001480:	48 c7 44 24 38 01 00 	movq   $0x1,0x38(%rsp)
    40001487:	00 00 
    40001489:	49 8b 82 98 01 00 00 	mov    0x198(%r10),%rax
    40001490:	48 89 44 24 10       	mov    %rax,0x10(%rsp)
    40001495:	e9 38 fd ff ff       	jmpq   400011d2 <price_out_impl+0x62>
    4000149a:	66 0f 1f 44 00 00    	nopw   0x0(%rax,%rax,1)

00000000400014a0 <suspend_impl>:
    400014a0:	48 85 d2             	test   %rdx,%rdx
    400014a3:	53                   	push   %rbx
    400014a4:	74 3a                	je     400014e0 <suspend_impl+0x40>
    400014a6:	48 8b 9f b8 01 00 00 	mov    0x1b8(%rdi),%rbx
    400014ad:	48 85 db             	test   %rbx,%rbx
    400014b0:	74 28                	je     400014da <suspend_impl+0x3a>
    400014b2:	48 89 d8             	mov    %rbx,%rax
    400014b5:	48 29 9f a8 01 00 00 	sub    %rbx,0x1a8(%rdi)
    400014bc:	48 29 9f b8 01 00 00 	sub    %rbx,0x1b8(%rdi)
    400014c3:	48 c1 e0 06          	shl    $0x6,%rax
    400014c7:	48 01 9f c0 01 00 00 	add    %rbx,0x1c0(%rdi)
    400014ce:	48 29 87 40 02 00 00 	sub    %rax,0x240(%rdi)
    400014d5:	e8 36 ef ff ff       	callq  40000410 <refresh_neighbour_lists>
    400014da:	48 89 d8             	mov    %rbx,%rax
    400014dd:	5b                   	pop    %rbx
    400014de:	c3                   	retq   
    400014df:	90                   	nop
    400014e0:	48 8b 8f a8 01 00 00 	mov    0x1a8(%rdi),%rcx
    400014e7:	48 2b 8f b8 01 00 00 	sub    0x1b8(%rdi),%rcx
    400014ee:	48 8b 87 40 02 00 00 	mov    0x240(%rdi),%rax
    400014f5:	48 c1 e1 06          	shl    $0x6,%rcx
    400014f9:	48 03 8f 38 02 00 00 	add    0x238(%rdi),%rcx
    40001500:	48 39 c8             	cmp    %rcx,%rax
    40001503:	0f 86 9a 00 00 00    	jbe    400015a3 <suspend_impl+0x103>
    40001509:	48 89 ca             	mov    %rcx,%rdx
    4000150c:	31 db                	xor    %ebx,%ebx
    4000150e:	eb 0d                	jmp    4000151d <suspend_impl+0x7d>
    40001510:	48 83 c3 01          	add    $0x1,%rbx
    40001514:	48 83 c2 40          	add    $0x40,%rdx
    40001518:	48 39 d0             	cmp    %rdx,%rax
    4000151b:	76 90                	jbe    400014ad <suspend_impl+0xd>
    4000151d:	44 8b 4a 18          	mov    0x18(%rdx),%r9d
    40001521:	41 83 f9 01          	cmp    $0x1,%r9d
    40001525:	74 69                	je     40001590 <suspend_impl+0xf0>
    40001527:	45 85 c9             	test   %r9d,%r9d
    4000152a:	49 c7 c0 fe ff ff ff 	mov    $0xfffffffffffffffe,%r8
    40001531:	75 12                	jne    40001545 <suspend_impl+0xa5>
    40001533:	4c 8b 4a 08          	mov    0x8(%rdx),%r9
    40001537:	49 39 51 30          	cmp    %rdx,0x30(%r9)
    4000153b:	74 04                	je     40001541 <suspend_impl+0xa1>
    4000153d:	4c 8b 4a 10          	mov    0x10(%rdx),%r9
    40001541:	49 89 49 30          	mov    %rcx,0x30(%r9)
    40001545:	49 39 f0             	cmp    %rsi,%r8
    40001548:	7f c6                	jg     40001510 <suspend_impl+0x70>
    4000154a:	4c 8b 02             	mov    (%rdx),%r8
    4000154d:	48 83 c1 40          	add    $0x40,%rcx
    40001551:	4c 89 41 c0          	mov    %r8,-0x40(%rcx)
    40001555:	4c 8b 42 08          	mov    0x8(%rdx),%r8
    40001559:	4c 89 41 c8          	mov    %r8,-0x38(%rcx)
    4000155d:	4c 8b 42 10          	mov    0x10(%rdx),%r8
    40001561:	4c 89 41 d0          	mov    %r8,-0x30(%rcx)
    40001565:	4c 8b 42 18          	mov    0x18(%rdx),%r8
    40001569:	4c 89 41 d8          	mov    %r8,-0x28(%rcx)
    4000156d:	4c 8b 42 20          	mov    0x20(%rdx),%r8
    40001571:	4c 89 41 e0          	mov    %r8,-0x20(%rcx)
    40001575:	4c 8b 42 28          	mov    0x28(%rdx),%r8
    40001579:	4c 89 41 e8          	mov    %r8,-0x18(%rcx)
    4000157d:	4c 8b 42 30          	mov    0x30(%rdx),%r8
    40001581:	4c 89 41 f0          	mov    %r8,-0x10(%rcx)
    40001585:	4c 8b 42 38          	mov    0x38(%rdx),%r8
    40001589:	4c 89 41 f8          	mov    %r8,-0x8(%rcx)
    4000158d:	eb 85                	jmp    40001514 <suspend_impl+0x74>
    4000158f:	90                   	nop
    40001590:	4c 8b 4a 08          	mov    0x8(%rdx),%r9
    40001594:	4c 8b 02             	mov    (%rdx),%r8
    40001597:	4d 2b 01             	sub    (%r9),%r8
    4000159a:	4c 8b 4a 10          	mov    0x10(%rdx),%r9
    4000159e:	4d 03 01             	add    (%r9),%r8
    400015a1:	eb a2                	jmp    40001545 <suspend_impl+0xa5>
    400015a3:	31 db                	xor    %ebx,%ebx
    400015a5:	e9 30 ff ff ff       	jmpq   400014da <suspend_impl+0x3a>
    400015aa:	66 0f 1f 44 00 00    	nopw   0x0(%rax,%rax,1)

00000000400015b0 <primal_start_artificial>:
    400015b0:	48 8b 87 90 01 00 00 	mov    0x190(%rdi),%rax
    400015b7:	48 8b b7 28 02 00 00 	mov    0x228(%rdi),%rsi
    400015be:	48 8b 97 40 02 00 00 	mov    0x240(%rdi),%rdx
    400015c5:	48 83 c0 01          	add    $0x1,%rax
    400015c9:	4c 8d 4e 68          	lea    0x68(%rsi),%r9
    400015cd:	48 c7 46 30 00 00 00 	movq   $0x0,0x30(%rsi)
    400015d4:	00 
    400015d5:	48 89 46 58          	mov    %rax,0x58(%rsi)
    400015d9:	48 8b 87 38 02 00 00 	mov    0x238(%rdi),%rax
    400015e0:	48 c7 46 18 00 00 00 	movq   $0x0,0x18(%rsi)
    400015e7:	00 
    400015e8:	4c 89 4e 10          	mov    %r9,0x10(%rsi)
    400015ec:	48 c7 46 20 00 00 00 	movq   $0x0,0x20(%rsi)
    400015f3:	00 
    400015f4:	48 c7 46 28 00 00 00 	movq   $0x0,0x28(%rsi)
    400015fb:	00 
    400015fc:	48 39 c2             	cmp    %rax,%rdx
    400015ff:	c7 46 08 00 00 00 00 	movl   $0x0,0x8(%rsi)
    40001606:	48 c7 06 00 1f 0a fa 	movq   $0xfffffffffa0a1f00,(%rsi)
    4000160d:	48 c7 46 50 00 00 00 	movq   $0x0,0x50(%rsi)
    40001614:	00 
    40001615:	74 1f                	je     40001636 <primal_start_artificial+0x86>
    40001617:	66 0f 1f 84 00 00 00 	nopw   0x0(%rax,%rax,1)
    4000161e:	00 00 
    40001620:	83 78 18 ff          	cmpl   $0xffffffff,0x18(%rax)
    40001624:	74 07                	je     4000162d <primal_start_artificial+0x7d>
    40001626:	c7 40 18 01 00 00 00 	movl   $0x1,0x18(%rax)
    4000162d:	48 83 c0 40          	add    $0x40,%rax
    40001631:	48 39 c2             	cmp    %rax,%rdx
    40001634:	75 ea                	jne    40001620 <primal_start_artificial+0x70>
    40001636:	4c 8b 87 30 02 00 00 	mov    0x230(%rdi),%r8
    4000163d:	48 8b 8f 48 02 00 00 	mov    0x248(%rdi),%rcx
    40001644:	4c 89 ca             	mov    %r9,%rdx
    40001647:	4d 39 c1             	cmp    %r8,%r9
    4000164a:	0f 84 9b 00 00 00    	je     400016eb <primal_start_artificial+0x13b>
    40001650:	48 8d 42 68          	lea    0x68(%rdx),%rax
    40001654:	48 8d 7a 98          	lea    -0x68(%rdx),%rdi
    40001658:	48 89 4a 30          	mov    %rcx,0x30(%rdx)
    4000165c:	48 89 72 18          	mov    %rsi,0x18(%rdx)
    40001660:	48 c7 42 10 00 00 00 	movq   $0x0,0x10(%rdx)
    40001667:	00 
    40001668:	48 83 c1 40          	add    $0x40,%rcx
    4000166c:	48 89 40 b8          	mov    %rax,-0x48(%rax)
    40001670:	48 89 78 c0          	mov    %rdi,-0x40(%rax)
    40001674:	48 c7 40 f0 01 00 00 	movq   $0x1,-0x10(%rax)
    4000167b:	00 
    4000167c:	48 c7 41 c0 00 e1 f5 	movq   $0x5f5e100,-0x40(%rcx)
    40001683:	05 
    40001684:	c7 41 d8 00 00 00 00 	movl   $0x0,-0x28(%rcx)
    4000168b:	c7 40 a0 01 00 00 00 	movl   $0x1,-0x60(%rax)
    40001692:	48 c7 40 98 00 00 00 	movq   $0x0,-0x68(%rax)
    40001699:	00 
    4000169a:	48 89 51 c8          	mov    %rdx,-0x38(%rcx)
    4000169e:	48 89 c2             	mov    %rax,%rdx
    400016a1:	48 89 71 d0          	mov    %rsi,-0x30(%rcx)
    400016a5:	49 39 c0             	cmp    %rax,%r8
    400016a8:	48 c7 40 e8 00 00 00 	movq   $0x0,-0x18(%rax)
    400016af:	00 
    400016b0:	75 9e                	jne    40001650 <primal_start_artificial+0xa0>
    400016b2:	48 8d 86 d0 00 00 00 	lea    0xd0(%rsi),%rax
    400016b9:	49 29 c0             	sub    %rax,%r8
    400016bc:	48 b8 c5 4e ec c4 4e 	movabs $0xec4ec4ec4ec4ec5,%rax
    400016c3:	ec c4 0e 
    400016c6:	49 c1 e8 03          	shr    $0x3,%r8
    400016ca:	4c 0f af c0          	imul   %rax,%r8
    400016ce:	48 b8 ff ff ff ff ff 	movabs $0x1fffffffffffffff,%rax
    400016d5:	ff ff 1f 
    400016d8:	49 21 c0             	and    %rax,%r8
    400016db:	49 83 c0 01          	add    $0x1,%r8
    400016df:	4b 8d 04 40          	lea    (%r8,%r8,2),%rax
    400016e3:	49 8d 04 80          	lea    (%r8,%rax,4),%rax
    400016e7:	4d 8d 04 c1          	lea    (%r9,%rax,8),%r8
    400016eb:	49 c7 40 b8 00 00 00 	movq   $0x0,-0x48(%r8)
    400016f2:	00 
    400016f3:	31 c0                	xor    %eax,%eax
    400016f5:	48 c7 86 90 00 00 00 	movq   $0x0,0x90(%rsi)
    400016fc:	00 00 00 00 
    40001700:	c3                   	retq   
    40001701:	66 2e 0f 1f 84 00 00 	nopw   %cs:0x0(%rax,%rax,1)
    40001708:	00 00 00 
    4000170b:	0f 1f 44 00 00       	nopl   0x0(%rax,%rax,1)

0000000040001710 <write_circulations>:
    40001710:	41 56                	push   %r14
    40001712:	41 55                	push   %r13
    40001714:	49 89 f5             	mov    %rsi,%r13
    40001717:	41 54                	push   %r12
    40001719:	55                   	push   %rbp
    4000171a:	53                   	push   %rbx
    4000171b:	48 8b 86 b8 01 00 00 	mov    0x1b8(%rsi),%rax
    40001722:	4c 8b b6 40 02 00 00 	mov    0x240(%rsi),%r14
    40001729:	48 8d 35 20 ec 3f 00 	lea    0x3fec20(%rip),%rsi        # 40400350 <data_start+0x350>
    40001730:	48 c1 e0 06          	shl    $0x6,%rax
    40001734:	49 29 c6             	sub    %rax,%r14
    40001737:	e8 42 26 00 00       	callq  40003d7e <fopen>
    4000173c:	48 85 c0             	test   %rax,%rax
    4000173f:	0f 84 03 01 00 00    	je     40001848 <write_circulations+0x138>
    40001745:	4c 89 ef             	mov    %r13,%rdi
    40001748:	48 89 c5             	mov    %rax,%rbp
    4000174b:	e8 c0 ec ff ff       	callq  40000410 <refresh_neighbour_lists>
    40001750:	49 8b 85 90 01 00 00 	mov    0x190(%r13),%rax
    40001757:	48 8d 14 40          	lea    (%rax,%rax,2),%rdx
    4000175b:	48 8d 04 90          	lea    (%rax,%rdx,4),%rax
    4000175f:	49 8b 95 28 02 00 00 	mov    0x228(%r13),%rdx
    40001766:	48 8d 04 c2          	lea    (%rdx,%rax,8),%rax
    4000176a:	4c 8b 60 38          	mov    0x38(%rax),%r12
    4000176e:	4d 85 e4             	test   %r12,%r12
    40001771:	75 1b                	jne    4000178e <write_circulations+0x7e>
    40001773:	e9 e0 00 00 00       	jmpq   40001858 <write_circulations+0x148>
    40001778:	0f 1f 84 00 00 00 00 	nopl   0x0(%rax,%rax,1)
    4000177f:	00 
    40001780:	4d 8b 64 24 20       	mov    0x20(%r12),%r12
    40001785:	4d 85 e4             	test   %r12,%r12
    40001788:	0f 84 ca 00 00 00    	je     40001858 <write_circulations+0x148>
    4000178e:	49 83 7c 24 30 00    	cmpq   $0x0,0x30(%r12)
    40001794:	74 ea                	je     40001780 <write_circulations+0x70>
    40001796:	48 8d 3d b5 eb 3f 00 	lea    0x3febb5(%rip),%rdi        # 40400352 <data_start+0x352>
    4000179d:	48 89 e9             	mov    %rbp,%rcx
    400017a0:	ba 03 00 00 00       	mov    $0x3,%edx
    400017a5:	be 01 00 00 00       	mov    $0x1,%esi
    400017aa:	4c 89 e3             	mov    %r12,%rbx
    400017ad:	e8 a8 27 00 00       	callq  40003f5a <fwrite>
    400017b2:	49 39 de             	cmp    %rbx,%r14
    400017b5:	76 6d                	jbe    40001824 <write_circulations+0x114>
    400017b7:	66 0f 1f 84 00 00 00 	nopw   0x0(%rax,%rax,1)
    400017be:	00 00 
    400017c0:	48 8b 43 10          	mov    0x10(%rbx),%rax
    400017c4:	48 8d 35 90 eb 3f 00 	lea    0x3feb90(%rip),%rsi        # 4040035b <data_start+0x35b>
    400017cb:	48 89 ef             	mov    %rbp,%rdi
    400017ce:	8b 50 60             	mov    0x60(%rax),%edx
    400017d1:	31 c0                	xor    %eax,%eax
    400017d3:	f7 da                	neg    %edx
    400017d5:	e8 47 26 00 00       	callq  40003e21 <fprintf>
    400017da:	49 8b 85 98 01 00 00 	mov    0x198(%r13),%rax
    400017e1:	48 8d 14 40          	lea    (%rax,%rax,2),%rdx
    400017e5:	48 8d 14 90          	lea    (%rax,%rdx,4),%rdx
    400017e9:	48 8b 43 10          	mov    0x10(%rbx),%rax
    400017ed:	48 8b 5c d0 38       	mov    0x38(%rax,%rdx,8),%rbx
    400017f2:	48 85 db             	test   %rbx,%rbx
    400017f5:	75 12                	jne    40001809 <write_circulations+0xf9>
    400017f7:	eb 47                	jmp    40001840 <write_circulations+0x130>
    400017f9:	0f 1f 80 00 00 00 00 	nopl   0x0(%rax)
    40001800:	48 8b 5b 20          	mov    0x20(%rbx),%rbx
    40001804:	48 85 db             	test   %rbx,%rbx
    40001807:	74 37                	je     40001840 <write_circulations+0x130>
    40001809:	48 83 7b 30 00       	cmpq   $0x0,0x30(%rbx)
    4000180e:	74 f0                	je     40001800 <write_circulations+0xf0>
    40001810:	48 8b 43 10          	mov    0x10(%rbx),%rax
    40001814:	8b 40 60             	mov    0x60(%rax),%eax
    40001817:	85 c0                	test   %eax,%eax
    40001819:	0f 84 61 ff ff ff    	je     40001780 <write_circulations+0x70>
    4000181f:	49 39 de             	cmp    %rbx,%r14
    40001822:	77 9c                	ja     400017c0 <write_circulations+0xb0>
    40001824:	48 8d 3d 2b eb 3f 00 	lea    0x3feb2b(%rip),%rdi        # 40400356 <data_start+0x356>
    4000182b:	48 89 e9             	mov    %rbp,%rcx
    4000182e:	ba 04 00 00 00       	mov    $0x4,%edx
    40001833:	be 01 00 00 00       	mov    $0x1,%esi
    40001838:	e8 1d 27 00 00       	callq  40003f5a <fwrite>
    4000183d:	eb 81                	jmp    400017c0 <write_circulations+0xb0>
    4000183f:	90                   	nop
    40001840:	48 89 ef             	mov    %rbp,%rdi
    40001843:	e8 52 22 00 00       	callq  40003a9a <fclose>
    40001848:	5b                   	pop    %rbx
    40001849:	48 c7 c0 ff ff ff ff 	mov    $0xffffffffffffffff,%rax
    40001850:	5d                   	pop    %rbp
    40001851:	41 5c                	pop    %r12
    40001853:	41 5d                	pop    %r13
    40001855:	41 5e                	pop    %r14
    40001857:	c3                   	retq   
    40001858:	48 89 ef             	mov    %rbp,%rdi
    4000185b:	e8 3a 22 00 00       	callq  40003a9a <fclose>
    40001860:	5b                   	pop    %rbx
    40001861:	31 c0                	xor    %eax,%eax
    40001863:	5d                   	pop    %rbp
    40001864:	41 5c                	pop    %r12
    40001866:	41 5d                	pop    %r13
    40001868:	41 5e                	pop    %r14
    4000186a:	c3                   	retq   
    4000186b:	0f 1f 44 00 00       	nopl   0x0(%rax,%rax,1)

0000000040001870 <update_tree>:
    40001870:	41 57                	push   %r15
    40001872:	41 56                	push   %r14
    40001874:	41 55                	push   %r13
    40001876:	41 54                	push   %r12
    40001878:	55                   	push   %rbp
    40001879:	53                   	push   %rbx
    4000187a:	4c 8b 6c 24 50       	mov    0x50(%rsp),%r13
    4000187f:	48 8b 5c 24 38       	mov    0x38(%rsp),%rbx
    40001884:	48 8b 44 24 40       	mov    0x40(%rsp),%rax
    40001889:	4c 8b 54 24 58       	mov    0x58(%rsp),%r10
    4000188e:	4d 8b 5d 08          	mov    0x8(%r13),%r11
    40001892:	4d 39 cb             	cmp    %r9,%r11
    40001895:	75 0c                	jne    400018a3 <update_tree+0x33>
    40001897:	4c 89 d5             	mov    %r10,%rbp
    4000189a:	48 c1 ed 3f          	shr    $0x3f,%rbp
    4000189e:	40 84 ed             	test   %bpl,%bpl
    400018a1:	75 12                	jne    400018b5 <update_tree+0x45>
    400018a3:	4d 85 d2             	test   %r10,%r10
    400018a6:	0f 8e ae 01 00 00    	jle    40001a5a <update_tree+0x1ea>
    400018ac:	4d 39 c3             	cmp    %r8,%r11
    400018af:	0f 85 a5 01 00 00    	jne    40001a5a <update_tree+0x1ea>
    400018b5:	4d 89 d3             	mov    %r10,%r11
    400018b8:	49 c1 fb 3f          	sar    $0x3f,%r11
    400018bc:	4d 31 da             	xor    %r11,%r10
    400018bf:	4c 89 d5             	mov    %r10,%rbp
    400018c2:	4c 29 dd             	sub    %r11,%rbp
    400018c5:	0f 1f 00             	nopl   (%rax)
    400018c8:	48 01 2b             	add    %rbp,(%rbx)
    400018cb:	49 89 da             	mov    %rbx,%r10
    400018ce:	eb 06                	jmp    400018d6 <update_tree+0x66>
    400018d0:	49 01 2b             	add    %rbp,(%r11)
    400018d3:	4d 89 da             	mov    %r11,%r10
    400018d6:	4d 8b 5a 10          	mov    0x10(%r10),%r11
    400018da:	4d 85 db             	test   %r11,%r11
    400018dd:	75 f1                	jne    400018d0 <update_tree+0x60>
    400018df:	49 39 da             	cmp    %rbx,%r10
    400018e2:	74 16                	je     400018fa <update_tree+0x8a>
    400018e4:	0f 1f 40 00          	nopl   0x0(%rax)
    400018e8:	4d 8b 5a 20          	mov    0x20(%r10),%r11
    400018ec:	4d 85 db             	test   %r11,%r11
    400018ef:	75 df                	jne    400018d0 <update_tree+0x60>
    400018f1:	4d 8b 52 18          	mov    0x18(%r10),%r10
    400018f5:	4c 39 d3             	cmp    %r10,%rbx
    400018f8:	75 ee                	jne    400018e8 <update_tree+0x78>
    400018fa:	48 8b 6b 58          	mov    0x58(%rbx),%rbp
    400018fe:	49 39 c0             	cmp    %rax,%r8
    40001901:	4d 8b 58 18          	mov    0x18(%r8),%r11
    40001905:	4d 89 ca             	mov    %r9,%r10
    40001908:	49 89 ee             	mov    %rbp,%r14
    4000190b:	75 4f                	jne    4000195c <update_tree+0xec>
    4000190d:	e9 be 00 00 00       	jmpq   400019d0 <update_tree+0x160>
    40001912:	66 0f 1f 44 00 00    	nopw   0x0(%rax,%rax,1)
    40001918:	49 8b 58 50          	mov    0x50(%r8),%rbx
    4000191c:	48 29 d3             	sub    %rdx,%rbx
    4000191f:	4d 8b 50 58          	mov    0x58(%r8),%r10
    40001923:	4d 89 70 58          	mov    %r14,0x58(%r8)
    40001927:	49 89 ee             	mov    %rbp,%r14
    4000192a:	4d 8b 78 30          	mov    0x30(%r8),%r15
    4000192e:	49 89 48 50          	mov    %rcx,0x50(%r8)
    40001932:	41 89 70 08          	mov    %esi,0x8(%r8)
    40001936:	4d 89 68 30          	mov    %r13,0x30(%r8)
    4000193a:	4d 29 d6             	sub    %r10,%r14
    4000193d:	4c 39 d8             	cmp    %r11,%rax
    40001940:	49 8b 4b 18          	mov    0x18(%r11),%rcx
    40001944:	4d 89 c2             	mov    %r8,%r10
    40001947:	0f 84 83 00 00 00    	je     400019d0 <update_tree+0x160>
    4000194d:	4d 89 d8             	mov    %r11,%r8
    40001950:	4d 89 fd             	mov    %r15,%r13
    40001953:	49 89 cb             	mov    %rcx,%r11
    40001956:	4c 89 e6             	mov    %r12,%rsi
    40001959:	48 89 d9             	mov    %rbx,%rcx
    4000195c:	49 8b 58 20          	mov    0x20(%r8),%rbx
    40001960:	48 85 db             	test   %rbx,%rbx
    40001963:	74 08                	je     4000196d <update_tree+0xfd>
    40001965:	4d 8b 60 28          	mov    0x28(%r8),%r12
    40001969:	4c 89 63 28          	mov    %r12,0x28(%rbx)
    4000196d:	4d 8b 60 28          	mov    0x28(%r8),%r12
    40001971:	4d 85 e4             	test   %r12,%r12
    40001974:	74 4a                	je     400019c0 <update_tree+0x150>
    40001976:	49 89 5c 24 20       	mov    %rbx,0x20(%r12)
    4000197b:	49 8b 5a 10          	mov    0x10(%r10),%rbx
    4000197f:	4d 89 50 18          	mov    %r10,0x18(%r8)
    40001983:	48 85 db             	test   %rbx,%rbx
    40001986:	49 89 58 20          	mov    %rbx,0x20(%r8)
    4000198a:	74 04                	je     40001990 <update_tree+0x120>
    4000198c:	4c 89 43 28          	mov    %r8,0x28(%rbx)
    40001990:	4d 89 42 10          	mov    %r8,0x10(%r10)
    40001994:	45 8b 50 08          	mov    0x8(%r8),%r10d
    40001998:	45 31 e4             	xor    %r12d,%r12d
    4000199b:	49 c7 40 28 00 00 00 	movq   $0x0,0x28(%r8)
    400019a2:	00 
    400019a3:	45 85 d2             	test   %r10d,%r10d
    400019a6:	41 0f 94 c4          	sete   %r12b
    400019aa:	49 39 fc             	cmp    %rdi,%r12
    400019ad:	0f 85 65 ff ff ff    	jne    40001918 <update_tree+0xa8>
    400019b3:	48 89 d3             	mov    %rdx,%rbx
    400019b6:	49 03 58 50          	add    0x50(%r8),%rbx
    400019ba:	e9 60 ff ff ff       	jmpq   4000191f <update_tree+0xaf>
    400019bf:	90                   	nop
    400019c0:	49 89 5b 10          	mov    %rbx,0x10(%r11)
    400019c4:	eb b5                	jmp    4000197b <update_tree+0x10b>
    400019c6:	66 2e 0f 1f 84 00 00 	nopw   %cs:0x0(%rax,%rax,1)
    400019cd:	00 00 00 
    400019d0:	48 3b 54 24 60       	cmp    0x60(%rsp),%rdx
    400019d5:	0f 8e 95 00 00 00    	jle    40001a70 <update_tree+0x200>
    400019db:	48 3b 44 24 48       	cmp    0x48(%rsp),%rax
    400019e0:	48 8b 74 24 48       	mov    0x48(%rsp),%rsi
    400019e5:	75 16                	jne    400019fd <update_tree+0x18d>
    400019e7:	eb 2e                	jmp    40001a17 <update_tree+0x1a7>
    400019e9:	0f 1f 80 00 00 00 00 	nopl   0x0(%rax)
    400019f0:	48 01 50 50          	add    %rdx,0x50(%rax)
    400019f4:	48 8b 40 18          	mov    0x18(%rax),%rax
    400019f8:	48 39 c6             	cmp    %rax,%rsi
    400019fb:	74 1a                	je     40001a17 <update_tree+0x1a7>
    400019fd:	48 63 48 08          	movslq 0x8(%rax),%rcx
    40001a01:	48 29 68 58          	sub    %rbp,0x58(%rax)
    40001a05:	48 39 cf             	cmp    %rcx,%rdi
    40001a08:	75 e6                	jne    400019f0 <update_tree+0x180>
    40001a0a:	48 29 50 50          	sub    %rdx,0x50(%rax)
    40001a0e:	48 8b 40 18          	mov    0x18(%rax),%rax
    40001a12:	48 39 c6             	cmp    %rax,%rsi
    40001a15:	75 e6                	jne    400019fd <update_tree+0x18d>
    40001a17:	4c 3b 4c 24 48       	cmp    0x48(%rsp),%r9
    40001a1c:	48 8b 4c 24 48       	mov    0x48(%rsp),%rcx
    40001a21:	75 12                	jne    40001a35 <update_tree+0x1c5>
    40001a23:	eb 2a                	jmp    40001a4f <update_tree+0x1df>
    40001a25:	0f 1f 00             	nopl   (%rax)
    40001a28:	49 29 51 50          	sub    %rdx,0x50(%r9)
    40001a2c:	4d 8b 49 18          	mov    0x18(%r9),%r9
    40001a30:	4c 39 c9             	cmp    %r9,%rcx
    40001a33:	74 1a                	je     40001a4f <update_tree+0x1df>
    40001a35:	49 63 41 08          	movslq 0x8(%r9),%rax
    40001a39:	49 01 69 58          	add    %rbp,0x58(%r9)
    40001a3d:	48 39 c7             	cmp    %rax,%rdi
    40001a40:	75 e6                	jne    40001a28 <update_tree+0x1b8>
    40001a42:	49 01 51 50          	add    %rdx,0x50(%r9)
    40001a46:	4d 8b 49 18          	mov    0x18(%r9),%r9
    40001a4a:	4c 39 c9             	cmp    %r9,%rcx
    40001a4d:	75 e6                	jne    40001a35 <update_tree+0x1c5>
    40001a4f:	5b                   	pop    %rbx
    40001a50:	5d                   	pop    %rbp
    40001a51:	41 5c                	pop    %r12
    40001a53:	41 5d                	pop    %r13
    40001a55:	41 5e                	pop    %r14
    40001a57:	41 5f                	pop    %r15
    40001a59:	c3                   	retq   
    40001a5a:	4c 89 d5             	mov    %r10,%rbp
    40001a5d:	48 c1 fd 3f          	sar    $0x3f,%rbp
    40001a61:	49 31 ea             	xor    %rbp,%r10
    40001a64:	4c 29 d5             	sub    %r10,%rbp
    40001a67:	e9 5c fe ff ff       	jmpq   400018c8 <update_tree+0x58>
    40001a6c:	0f 1f 40 00          	nopl   0x0(%rax)
    40001a70:	48 3b 44 24 48       	cmp    0x48(%rsp),%rax
    40001a75:	48 8b 54 24 48       	mov    0x48(%rsp),%rdx
    40001a7a:	74 11                	je     40001a8d <update_tree+0x21d>
    40001a7c:	0f 1f 40 00          	nopl   0x0(%rax)
    40001a80:	48 29 68 58          	sub    %rbp,0x58(%rax)
    40001a84:	48 8b 40 18          	mov    0x18(%rax),%rax
    40001a88:	48 39 c2             	cmp    %rax,%rdx
    40001a8b:	75 f3                	jne    40001a80 <update_tree+0x210>
    40001a8d:	4c 3b 4c 24 48       	cmp    0x48(%rsp),%r9
    40001a92:	48 8b 44 24 48       	mov    0x48(%rsp),%rax
    40001a97:	74 b6                	je     40001a4f <update_tree+0x1df>
    40001a99:	0f 1f 80 00 00 00 00 	nopl   0x0(%rax)
    40001aa0:	49 01 69 58          	add    %rbp,0x58(%r9)
    40001aa4:	4d 8b 49 18          	mov    0x18(%r9),%r9
    40001aa8:	4c 39 c8             	cmp    %r9,%rax
    40001aab:	75 f3                	jne    40001aa0 <update_tree+0x230>
    40001aad:	5b                   	pop    %rbx
    40001aae:	5d                   	pop    %rbp
    40001aaf:	41 5c                	pop    %r12
    40001ab1:	41 5d                	pop    %r13
    40001ab3:	41 5e                	pop    %r14
    40001ab5:	41 5f                	pop    %r15
    40001ab7:	c3                   	retq   
    40001ab8:	0f 1f 84 00 00 00 00 	nopl   0x0(%rax,%rax,1)
    40001abf:	00 

0000000040001ac0 <primal_iminus>:
    40001ac0:	31 c0                	xor    %eax,%eax
    40001ac2:	48 39 ca             	cmp    %rcx,%rdx
    40001ac5:	74 67                	je     40001b2e <primal_iminus+0x6e>
    40001ac7:	41 bb 01 00 00 00    	mov    $0x1,%r11d
    40001acd:	eb 2d                	jmp    40001afc <primal_iminus+0x3c>
    40001acf:	90                   	nop
    40001ad0:	44 8b 52 08          	mov    0x8(%rdx),%r10d
    40001ad4:	45 85 d2             	test   %r10d,%r10d
    40001ad7:	0f 84 8b 00 00 00    	je     40001b68 <primal_iminus+0xa8>
    40001add:	4c 8b 4a 50          	mov    0x50(%rdx),%r9
    40001ae1:	4c 39 0f             	cmp    %r9,(%rdi)
    40001ae4:	7e 0d                	jle    40001af3 <primal_iminus+0x33>
    40001ae6:	4c 89 0f             	mov    %r9,(%rdi)
    40001ae9:	48 89 d0             	mov    %rdx,%rax
    40001aec:	48 c7 06 00 00 00 00 	movq   $0x0,(%rsi)
    40001af3:	48 8b 52 18          	mov    0x18(%rdx),%rdx
    40001af7:	48 39 d1             	cmp    %rdx,%rcx
    40001afa:	74 32                	je     40001b2e <primal_iminus+0x6e>
    40001afc:	4c 8b 51 58          	mov    0x58(%rcx),%r10
    40001b00:	4c 39 52 58          	cmp    %r10,0x58(%rdx)
    40001b04:	7c ca                	jl     40001ad0 <primal_iminus+0x10>
    40001b06:	44 8b 49 08          	mov    0x8(%rcx),%r9d
    40001b0a:	45 85 c9             	test   %r9d,%r9d
    40001b0d:	75 29                	jne    40001b38 <primal_iminus+0x78>
    40001b0f:	4c 8b 49 50          	mov    0x50(%rcx),%r9
    40001b13:	4c 39 0f             	cmp    %r9,(%rdi)
    40001b16:	7c 0d                	jl     40001b25 <primal_iminus+0x65>
    40001b18:	4c 89 0f             	mov    %r9,(%rdi)
    40001b1b:	48 89 c8             	mov    %rcx,%rax
    40001b1e:	48 c7 06 01 00 00 00 	movq   $0x1,(%rsi)
    40001b25:	48 8b 49 18          	mov    0x18(%rcx),%rcx
    40001b29:	48 39 d1             	cmp    %rdx,%rcx
    40001b2c:	75 ce                	jne    40001afc <primal_iminus+0x3c>
    40001b2e:	49 89 10             	mov    %rdx,(%r8)
    40001b31:	c3                   	retq   
    40001b32:	66 0f 1f 44 00 00    	nopw   0x0(%rax,%rax,1)
    40001b38:	4c 8b 49 18          	mov    0x18(%rcx),%r9
    40001b3c:	49 83 79 18 00       	cmpq   $0x0,0x18(%r9)
    40001b41:	74 55                	je     40001b98 <primal_iminus+0xd8>
    40001b43:	4d 89 da             	mov    %r11,%r10
    40001b46:	4c 2b 51 50          	sub    0x50(%rcx),%r10
    40001b4a:	4c 39 17             	cmp    %r10,(%rdi)
    40001b4d:	7c 49                	jl     40001b98 <primal_iminus+0xd8>
    40001b4f:	4c 89 17             	mov    %r10,(%rdi)
    40001b52:	48 89 c8             	mov    %rcx,%rax
    40001b55:	48 c7 06 01 00 00 00 	movq   $0x1,(%rsi)
    40001b5c:	4c 89 c9             	mov    %r9,%rcx
    40001b5f:	eb 96                	jmp    40001af7 <primal_iminus+0x37>
    40001b61:	0f 1f 80 00 00 00 00 	nopl   0x0(%rax)
    40001b68:	4c 8b 4a 18          	mov    0x18(%rdx),%r9
    40001b6c:	49 83 79 18 00       	cmpq   $0x0,0x18(%r9)
    40001b71:	74 2d                	je     40001ba0 <primal_iminus+0xe0>
    40001b73:	4d 89 da             	mov    %r11,%r10
    40001b76:	4c 2b 52 50          	sub    0x50(%rdx),%r10
    40001b7a:	4c 39 17             	cmp    %r10,(%rdi)
    40001b7d:	7e 21                	jle    40001ba0 <primal_iminus+0xe0>
    40001b7f:	4c 89 17             	mov    %r10,(%rdi)
    40001b82:	48 89 d0             	mov    %rdx,%rax
    40001b85:	48 c7 06 00 00 00 00 	movq   $0x0,(%rsi)
    40001b8c:	4c 89 ca             	mov    %r9,%rdx
    40001b8f:	e9 63 ff ff ff       	jmpq   40001af7 <primal_iminus+0x37>
    40001b94:	0f 1f 40 00          	nopl   0x0(%rax)
    40001b98:	4c 89 c9             	mov    %r9,%rcx
    40001b9b:	e9 57 ff ff ff       	jmpq   40001af7 <primal_iminus+0x37>
    40001ba0:	4c 89 ca             	mov    %r9,%rdx
    40001ba3:	e9 4f ff ff ff       	jmpq   40001af7 <primal_iminus+0x37>
    40001ba8:	0f 1f 84 00 00 00 00 	nopl   0x0(%rax,%rax,1)
    40001baf:	00 

0000000040001bb0 <primal_update_flow>:
    40001bb0:	48 39 d7             	cmp    %rdx,%rdi
    40001bb3:	74 1c                	je     40001bd1 <primal_update_flow+0x21>
    40001bb5:	0f 1f 00             	nopl   (%rax)
    40001bb8:	44 8b 47 08          	mov    0x8(%rdi),%r8d
    40001bbc:	31 c0                	xor    %eax,%eax
    40001bbe:	45 85 c0             	test   %r8d,%r8d
    40001bc1:	0f 94 c0             	sete   %al
    40001bc4:	48 89 47 50          	mov    %rax,0x50(%rdi)
    40001bc8:	48 8b 7f 18          	mov    0x18(%rdi),%rdi
    40001bcc:	48 39 fa             	cmp    %rdi,%rdx
    40001bcf:	75 e7                	jne    40001bb8 <primal_update_flow+0x8>
    40001bd1:	48 39 f2             	cmp    %rsi,%rdx
    40001bd4:	74 23                	je     40001bf9 <primal_update_flow+0x49>
    40001bd6:	66 2e 0f 1f 84 00 00 	nopw   %cs:0x0(%rax,%rax,1)
    40001bdd:	00 00 00 
    40001be0:	8b 4e 08             	mov    0x8(%rsi),%ecx
    40001be3:	31 c0                	xor    %eax,%eax
    40001be5:	85 c9                	test   %ecx,%ecx
    40001be7:	0f 95 c0             	setne  %al
    40001bea:	48 89 46 50          	mov    %rax,0x50(%rsi)
    40001bee:	48 8b 76 18          	mov    0x18(%rsi),%rsi
    40001bf2:	48 39 f2             	cmp    %rsi,%rdx
    40001bf5:	75 e9                	jne    40001be0 <primal_update_flow+0x30>
    40001bf7:	f3 c3                	repz retq 
    40001bf9:	f3 c3                	repz retq 
    40001bfb:	0f 1f 44 00 00       	nopl   0x0(%rax,%rax,1)

0000000040001c00 <primal_net_simplex>:
    40001c00:	41 57                	push   %r15
    40001c02:	41 56                	push   %r14
    40001c04:	41 55                	push   %r13
    40001c06:	41 54                	push   %r12
    40001c08:	55                   	push   %rbp
    40001c09:	53                   	push   %rbx
    40001c0a:	48 89 fd             	mov    %rdi,%rbp
    40001c0d:	48 83 ec 68          	sub    $0x68,%rsp
    40001c11:	48 8b 87 38 02 00 00 	mov    0x238(%rdi),%rax
    40001c18:	48 89 44 24 08       	mov    %rax,0x8(%rsp)
    40001c1d:	48 8b 87 40 02 00 00 	mov    0x240(%rdi),%rax
    40001c24:	48 89 44 24 10       	mov    %rax,0x10(%rsp)
    40001c29:	48 8b 87 a8 01 00 00 	mov    0x1a8(%rdi),%rax
    40001c30:	48 89 44 24 18       	mov    %rax,0x18(%rsp)
    40001c35:	48 8d 44 24 58       	lea    0x58(%rsp),%rax
    40001c3a:	48 89 44 24 20       	mov    %rax,0x20(%rsp)
    40001c3f:	48 8d 44 24 50       	lea    0x50(%rsp),%rax
    40001c44:	48 89 44 24 28       	mov    %rax,0x28(%rsp)
    40001c49:	48 8d 44 24 48       	lea    0x48(%rsp),%rax
    40001c4e:	48 89 44 24 30       	mov    %rax,0x30(%rsp)
    40001c53:	48 8d 44 24 40       	lea    0x40(%rsp),%rax
    40001c58:	48 89 44 24 38       	mov    %rax,0x38(%rsp)
    40001c5d:	0f 1f 00             	nopl   (%rax)
    40001c60:	48 8b 4c 24 20       	mov    0x20(%rsp),%rcx
    40001c65:	48 8b 54 24 10       	mov    0x10(%rsp),%rdx
    40001c6a:	48 8b 74 24 08       	mov    0x8(%rsp),%rsi
    40001c6f:	48 8b 7c 24 18       	mov    0x18(%rsp),%rdi
    40001c74:	e8 c7 02 00 00       	callq  40001f40 <primal_bea_mpp>
    40001c79:	48 85 c0             	test   %rax,%rax
    40001c7c:	48 89 c3             	mov    %rax,%rbx
    40001c7f:	0f 84 8b 01 00 00    	je     40001e10 <primal_net_simplex+0x210>
    40001c85:	48 83 85 58 02 00 00 	addq   $0x1,0x258(%rbp)
    40001c8c:	01 
    40001c8d:	48 83 7c 24 58 00    	cmpq   $0x0,0x58(%rsp)
    40001c93:	4c 8b 63 08          	mov    0x8(%rbx),%r12
    40001c97:	4c 8b 6b 10          	mov    0x10(%rbx),%r13
    40001c9b:	0f 8e 0f 01 00 00    	jle    40001db0 <primal_net_simplex+0x1b0>
    40001ca1:	4c 8b 44 24 28       	mov    0x28(%rsp),%r8
    40001ca6:	48 8b 74 24 30       	mov    0x30(%rsp),%rsi
    40001cab:	4c 89 e1             	mov    %r12,%rcx
    40001cae:	48 8b 7c 24 38       	mov    0x38(%rsp),%rdi
    40001cb3:	4c 89 ea             	mov    %r13,%rdx
    40001cb6:	48 c7 44 24 40 01 00 	movq   $0x1,0x40(%rsp)
    40001cbd:	00 00 
    40001cbf:	e8 fc fd ff ff       	callq  40001ac0 <primal_iminus>
    40001cc4:	48 85 c0             	test   %rax,%rax
    40001cc7:	0f 84 03 01 00 00    	je     40001dd0 <primal_net_simplex+0x1d0>
    40001ccd:	48 8b 7c 24 48       	mov    0x48(%rsp),%rdi
    40001cd2:	48 85 ff             	test   %rdi,%rdi
    40001cd5:	75 09                	jne    40001ce0 <primal_net_simplex+0xe0>
    40001cd7:	4c 89 e2             	mov    %r12,%rdx
    40001cda:	4d 89 ec             	mov    %r13,%r12
    40001cdd:	49 89 d5             	mov    %rdx,%r13
    40001ce0:	48 63 50 08          	movslq 0x8(%rax),%rdx
    40001ce4:	4c 8b 44 24 58       	mov    0x58(%rsp),%r8
    40001ce9:	45 31 f6             	xor    %r14d,%r14d
    40001cec:	4c 8b 48 18          	mov    0x18(%rax),%r9
    40001cf0:	4c 8b 78 30          	mov    0x30(%rax),%r15
    40001cf4:	48 39 d7             	cmp    %rdx,%rdi
    40001cf7:	41 0f 94 c6          	sete   %r14b
    40001cfb:	41 83 c6 01          	add    $0x1,%r14d
    40001cff:	4d 85 c0             	test   %r8,%r8
    40001d02:	0f 8e b8 00 00 00    	jle    40001dc0 <primal_net_simplex+0x1c0>
    40001d08:	48 8b 54 24 40       	mov    0x40(%rsp),%rdx
    40001d0d:	b9 01 00 00 00       	mov    $0x1,%ecx
    40001d12:	48 29 d1             	sub    %rdx,%rcx
    40001d15:	31 f6                	xor    %esi,%esi
    40001d17:	4c 39 63 08          	cmp    %r12,0x8(%rbx)
    40001d1b:	ff b5 00 02 00 00    	pushq  0x200(%rbp)
    40001d21:	41 50                	push   %r8
    40001d23:	53                   	push   %rbx
    40001d24:	4d 89 e0             	mov    %r12,%r8
    40001d27:	ff 74 24 68          	pushq  0x68(%rsp)
    40001d2b:	41 51                	push   %r9
    40001d2d:	4d 89 e9             	mov    %r13,%r9
    40001d30:	50                   	push   %rax
    40001d31:	40 0f 94 c6          	sete   %sil
    40001d35:	48 85 ff             	test   %rdi,%rdi
    40001d38:	40 0f 94 c7          	sete   %dil
    40001d3c:	40 0f b6 ff          	movzbl %dil,%edi
    40001d40:	e8 2b fb ff ff       	callq  40001870 <update_tree>
    40001d45:	48 8b 85 58 02 00 00 	mov    0x258(%rbp),%rax
    40001d4c:	48 83 c4 30          	add    $0x30,%rsp
    40001d50:	c7 43 18 00 00 00 00 	movl   $0x0,0x18(%rbx)
    40001d57:	45 89 77 18          	mov    %r14d,0x18(%r15)
    40001d5b:	48 8d 48 ff          	lea    -0x1(%rax),%rcx
    40001d5f:	48 b8 0b d7 a3 70 3d 	movabs $0xa3d70a3d70a3d70b,%rax
    40001d66:	0a d7 a3 
    40001d69:	48 f7 e9             	imul   %rcx
    40001d6c:	48 89 c8             	mov    %rcx,%rax
    40001d6f:	48 c1 f8 3f          	sar    $0x3f,%rax
    40001d73:	48 01 ca             	add    %rcx,%rdx
    40001d76:	48 c1 fa 07          	sar    $0x7,%rdx
    40001d7a:	48 29 c2             	sub    %rax,%rdx
    40001d7d:	48 8d 04 92          	lea    (%rdx,%rdx,4),%rax
    40001d81:	48 8d 04 80          	lea    (%rax,%rax,4),%rax
    40001d85:	48 c1 e0 03          	shl    $0x3,%rax
    40001d89:	48 39 c1             	cmp    %rax,%rcx
    40001d8c:	0f 85 ce fe ff ff    	jne    40001c60 <primal_net_simplex+0x60>
    40001d92:	48 89 ef             	mov    %rbp,%rdi
    40001d95:	e8 f6 e6 ff ff       	callq  40000490 <refresh_potential>
    40001d9a:	48 01 85 68 02 00 00 	add    %rax,0x268(%rbp)
    40001da1:	e9 ba fe ff ff       	jmpq   40001c60 <primal_net_simplex+0x60>
    40001da6:	66 2e 0f 1f 84 00 00 	nopw   %cs:0x0(%rax,%rax,1)
    40001dad:	00 00 00 
    40001db0:	4c 89 e8             	mov    %r13,%rax
    40001db3:	4d 89 e5             	mov    %r12,%r13
    40001db6:	49 89 c4             	mov    %rax,%r12
    40001db9:	e9 e3 fe ff ff       	jmpq   40001ca1 <primal_net_simplex+0xa1>
    40001dbe:	66 90                	xchg   %ax,%ax
    40001dc0:	48 8b 4c 24 40       	mov    0x40(%rsp),%rcx
    40001dc5:	48 89 ca             	mov    %rcx,%rdx
    40001dc8:	e9 48 ff ff ff       	jmpq   40001d15 <primal_net_simplex+0x115>
    40001dcd:	0f 1f 00             	nopl   (%rax)
    40001dd0:	48 83 85 60 02 00 00 	addq   $0x1,0x260(%rbp)
    40001dd7:	01 
    40001dd8:	31 c0                	xor    %eax,%eax
    40001dda:	83 7b 18 02          	cmpl   $0x2,0x18(%rbx)
    40001dde:	0f 95 c0             	setne  %al
    40001de1:	83 c0 01             	add    $0x1,%eax
    40001de4:	48 83 7c 24 40 00    	cmpq   $0x0,0x40(%rsp)
    40001dea:	89 43 18             	mov    %eax,0x18(%rbx)
    40001ded:	0f 84 6d fe ff ff    	je     40001c60 <primal_net_simplex+0x60>
    40001df3:	48 8b 54 24 50       	mov    0x50(%rsp),%rdx
    40001df8:	4c 89 e6             	mov    %r12,%rsi
    40001dfb:	4c 89 ef             	mov    %r13,%rdi
    40001dfe:	e8 ad fd ff ff       	callq  40001bb0 <primal_update_flow>
    40001e03:	e9 58 fe ff ff       	jmpq   40001c60 <primal_net_simplex+0x60>
    40001e08:	0f 1f 84 00 00 00 00 	nopl   0x0(%rax,%rax,1)
    40001e0f:	00 
    40001e10:	48 89 ef             	mov    %rbp,%rdi
    40001e13:	e8 78 e6 ff ff       	callq  40000490 <refresh_potential>
    40001e18:	48 01 85 68 02 00 00 	add    %rax,0x268(%rbp)
    40001e1f:	48 89 ef             	mov    %rbp,%rdi
    40001e22:	e8 69 e9 ff ff       	callq  40000790 <primal_feasible>
    40001e27:	48 89 ef             	mov    %rbp,%rdi
    40001e2a:	e8 91 ea ff ff       	callq  400008c0 <dual_feasible>
    40001e2f:	48 83 c4 68          	add    $0x68,%rsp
    40001e33:	31 c0                	xor    %eax,%eax
    40001e35:	5b                   	pop    %rbx
    40001e36:	5d                   	pop    %rbp
    40001e37:	41 5c                	pop    %r12
    40001e39:	41 5d                	pop    %r13
    40001e3b:	41 5e                	pop    %r14
    40001e3d:	41 5f                	pop    %r15
    40001e3f:	c3                   	retq   

0000000040001e40 <bea_is_dual_infeasible>:
    40001e40:	48 85 f6             	test   %rsi,%rsi
    40001e43:	78 13                	js     40001e58 <bea_is_dual_infeasible+0x18>
    40001e45:	74 21                	je     40001e68 <bea_is_dual_infeasible+0x28>
    40001e47:	31 c0                	xor    %eax,%eax
    40001e49:	83 7f 18 02          	cmpl   $0x2,0x18(%rdi)
    40001e4d:	0f 94 c0             	sete   %al
    40001e50:	c3                   	retq   
    40001e51:	0f 1f 80 00 00 00 00 	nopl   0x0(%rax)
    40001e58:	31 c0                	xor    %eax,%eax
    40001e5a:	83 7f 18 01          	cmpl   $0x1,0x18(%rdi)
    40001e5e:	0f 94 c0             	sete   %al
    40001e61:	c3                   	retq   
    40001e62:	66 0f 1f 44 00 00    	nopw   0x0(%rax,%rax,1)
    40001e68:	31 c0                	xor    %eax,%eax
    40001e6a:	c3                   	retq   
    40001e6b:	0f 1f 44 00 00       	nopl   0x0(%rax,%rax,1)

0000000040001e70 <sort_basket>:
    40001e70:	41 55                	push   %r13
    40001e72:	41 54                	push   %r12
    40001e74:	4c 8d 25 bd 00 40 00 	lea    0x4000bd(%rip),%r12        # 40401f38 <nr_group+0x10>
    40001e7b:	55                   	push   %rbp
    40001e7c:	53                   	push   %rbx
    40001e7d:	48 8d 1d bc 00 40 00 	lea    0x4000bc(%rip),%rbx        # 40401f40 <perm>
    40001e84:	49 89 f5             	mov    %rsi,%r13
    40001e87:	48 83 ec 08          	sub    $0x8,%rsp
    40001e8b:	4a 8d 04 2f          	lea    (%rdi,%r13,1),%rax
    40001e8f:	48 8d 4f 01          	lea    0x1(%rdi),%rcx
    40001e93:	4c 89 ee             	mov    %r13,%rsi
    40001e96:	48 89 c2             	mov    %rax,%rdx
    40001e99:	48 c1 ea 3f          	shr    $0x3f,%rdx
    40001e9d:	48 01 d0             	add    %rdx,%rax
    40001ea0:	48 d1 f8             	sar    %rax
    40001ea3:	48 8b 04 c3          	mov    (%rbx,%rax,8),%rax
    40001ea7:	48 8b 50 10          	mov    0x10(%rax),%rdx
    40001eab:	eb 07                	jmp    40001eb4 <sort_basket+0x44>
    40001ead:	0f 1f 00             	nopl   (%rax)
    40001eb0:	48 83 c1 01          	add    $0x1,%rcx
    40001eb4:	4d 8b 04 cc          	mov    (%r12,%rcx,8),%r8
    40001eb8:	48 8d 69 ff          	lea    -0x1(%rcx),%rbp
    40001ebc:	4c 8d 0c cd 00 00 00 	lea    0x0(,%rcx,8),%r9
    40001ec3:	00 
    40001ec4:	49 3b 50 10          	cmp    0x10(%r8),%rdx
    40001ec8:	7c e6                	jl     40001eb0 <sort_basket+0x40>
    40001eca:	48 8b 04 f3          	mov    (%rbx,%rsi,8),%rax
    40001ece:	48 3b 50 10          	cmp    0x10(%rax),%rdx
    40001ed2:	7e 12                	jle    40001ee6 <sort_basket+0x76>
    40001ed4:	0f 1f 40 00          	nopl   0x0(%rax)
    40001ed8:	48 83 ee 01          	sub    $0x1,%rsi
    40001edc:	48 8b 04 f3          	mov    (%rbx,%rsi,8),%rax
    40001ee0:	48 3b 50 10          	cmp    0x10(%rax),%rdx
    40001ee4:	7f f2                	jg     40001ed8 <sort_basket+0x68>
    40001ee6:	48 39 ee             	cmp    %rbp,%rsi
    40001ee9:	7e 1d                	jle    40001f08 <sort_basket+0x98>
    40001eeb:	4b 89 04 0c          	mov    %rax,(%r12,%r9,1)
    40001eef:	4c 89 04 f3          	mov    %r8,(%rbx,%rsi,8)
    40001ef3:	48 83 ee 01          	sub    $0x1,%rsi
    40001ef7:	48 89 cd             	mov    %rcx,%rbp
    40001efa:	48 39 f1             	cmp    %rsi,%rcx
    40001efd:	7e b1                	jle    40001eb0 <sort_basket+0x40>
    40001eff:	eb 09                	jmp    40001f0a <sort_basket+0x9a>
    40001f01:	0f 1f 80 00 00 00 00 	nopl   0x0(%rax)
    40001f08:	7d e9                	jge    40001ef3 <sort_basket+0x83>
    40001f0a:	48 39 f7             	cmp    %rsi,%rdi
    40001f0d:	7d 05                	jge    40001f14 <sort_basket+0xa4>
    40001f0f:	e8 5c ff ff ff       	callq  40001e70 <sort_basket>
    40001f14:	49 39 ed             	cmp    %rbp,%r13
    40001f17:	7e 0e                	jle    40001f27 <sort_basket+0xb7>
    40001f19:	48 83 fd 32          	cmp    $0x32,%rbp
    40001f1d:	7f 08                	jg     40001f27 <sort_basket+0xb7>
    40001f1f:	48 89 ef             	mov    %rbp,%rdi
    40001f22:	e9 64 ff ff ff       	jmpq   40001e8b <sort_basket+0x1b>
    40001f27:	48 83 c4 08          	add    $0x8,%rsp
    40001f2b:	5b                   	pop    %rbx
    40001f2c:	5d                   	pop    %rbp
    40001f2d:	41 5c                	pop    %r12
    40001f2f:	41 5d                	pop    %r13
    40001f31:	c3                   	retq   
    40001f32:	0f 1f 40 00          	nopl   0x0(%rax)
    40001f36:	66 2e 0f 1f 84 00 00 	nopw   %cs:0x0(%rax,%rax,1)
    40001f3d:	00 00 00 

0000000040001f40 <primal_bea_mpp>:
    40001f40:	41 57                	push   %r15
    40001f42:	41 56                	push   %r14
    40001f44:	49 89 f6             	mov    %rsi,%r14
    40001f47:	41 55                	push   %r13
    40001f49:	41 54                	push   %r12
    40001f4b:	55                   	push   %rbp
    40001f4c:	53                   	push   %rbx
    40001f4d:	48 89 d5             	mov    %rdx,%rbp
    40001f50:	48 83 ec 18          	sub    $0x18,%rsp
    40001f54:	48 83 3d c4 fd 3f 00 	cmpq   $0x0,0x3ffdc4(%rip)        # 40401d20 <initialize>
    40001f5b:	00 
    40001f5c:	48 89 4c 24 08       	mov    %rcx,0x8(%rsp)
    40001f61:	0f 85 c9 01 00 00    	jne    40002130 <primal_bea_mpp+0x1f0>
    40001f67:	4c 8b 0d ba 2b 40 00 	mov    0x402bba(%rip),%r9        # 40404b28 <basket_size>
    40001f6e:	45 31 c0             	xor    %r8d,%r8d
    40001f71:	b9 02 00 00 00       	mov    $0x2,%ecx
    40001f76:	eb 1a                	jmp    40001f92 <primal_bea_mpp+0x52>
    40001f78:	0f 1f 84 00 00 00 00 	nopl   0x0(%rax,%rax,1)
    40001f7f:	00 
    40001f80:	74 06                	je     40001f88 <primal_bea_mpp+0x48>
    40001f82:	83 7a 18 02          	cmpl   $0x2,0x18(%rdx)
    40001f86:	74 36                	je     40001fbe <primal_bea_mpp+0x7e>
    40001f88:	48 83 c1 01          	add    $0x1,%rcx
    40001f8c:	48 83 f9 33          	cmp    $0x33,%rcx
    40001f90:	74 5b                	je     40001fed <primal_bea_mpp+0xad>
    40001f92:	4c 39 c9             	cmp    %r9,%rcx
    40001f95:	7f 56                	jg     40001fed <primal_bea_mpp+0xad>
    40001f97:	48 8d 3d a2 ff 3f 00 	lea    0x3fffa2(%rip),%rdi        # 40401f40 <perm>
    40001f9e:	48 8b 04 cf          	mov    (%rdi,%rcx,8),%rax
    40001fa2:	48 8b 10             	mov    (%rax),%rdx
    40001fa5:	48 8b 72 08          	mov    0x8(%rdx),%rsi
    40001fa9:	48 8b 02             	mov    (%rdx),%rax
    40001fac:	48 2b 06             	sub    (%rsi),%rax
    40001faf:	48 8b 72 10          	mov    0x10(%rdx),%rsi
    40001fb3:	48 03 06             	add    (%rsi),%rax
    40001fb6:	79 c8                	jns    40001f80 <primal_bea_mpp+0x40>
    40001fb8:	83 7a 18 01          	cmpl   $0x1,0x18(%rdx)
    40001fbc:	75 ca                	jne    40001f88 <primal_bea_mpp+0x48>
    40001fbe:	49 83 c0 01          	add    $0x1,%r8
    40001fc2:	48 83 c1 01          	add    $0x1,%rcx
    40001fc6:	4a 8b 34 c7          	mov    (%rdi,%r8,8),%rsi
    40001fca:	48 89 16             	mov    %rdx,(%rsi)
    40001fcd:	4a 8b 14 c7          	mov    (%rdi,%r8,8),%rdx
    40001fd1:	48 89 c6             	mov    %rax,%rsi
    40001fd4:	48 c1 fe 3f          	sar    $0x3f,%rsi
    40001fd8:	48 89 42 08          	mov    %rax,0x8(%rdx)
    40001fdc:	48 31 f0             	xor    %rsi,%rax
    40001fdf:	48 89 42 10          	mov    %rax,0x10(%rdx)
    40001fe3:	48 29 72 10          	sub    %rsi,0x10(%rdx)
    40001fe7:	48 83 f9 33          	cmp    $0x33,%rcx
    40001feb:	75 a5                	jne    40001f92 <primal_bea_mpp+0x52>
    40001fed:	4c 8b 25 2c ff 3f 00 	mov    0x3fff2c(%rip),%r12        # 40401f20 <group_pos>
    40001ff4:	4c 89 05 2d 2b 40 00 	mov    %r8,0x402b2d(%rip)        # 40404b28 <basket_size>
    40001ffb:	4c 89 e2             	mov    %r12,%rdx
    40001ffe:	45 31 ed             	xor    %r13d,%r13d
    40002001:	0f 1f 80 00 00 00 00 	nopl   0x0(%rax)
    40002008:	48 89 d3             	mov    %rdx,%rbx
    4000200b:	48 8b 05 16 ff 3f 00 	mov    0x3fff16(%rip),%rax        # 40401f28 <nr_group>
    40002012:	48 c1 e3 06          	shl    $0x6,%rbx
    40002016:	4c 01 f3             	add    %r14,%rbx
    40002019:	48 39 eb             	cmp    %rbp,%rbx
    4000201c:	0f 83 8a 00 00 00    	jae    400020ac <primal_bea_mpp+0x16c>
    40002022:	66 0f 1f 44 00 00    	nopw   0x0(%rax,%rax,1)
    40002028:	8b 43 18             	mov    0x18(%rbx),%eax
    4000202b:	85 c0                	test   %eax,%eax
    4000202d:	7e 60                	jle    4000208f <primal_bea_mpp+0x14f>
    4000202f:	48 8b 43 08          	mov    0x8(%rbx),%rax
    40002033:	48 8b 13             	mov    (%rbx),%rdx
    40002036:	48 89 df             	mov    %rbx,%rdi
    40002039:	48 2b 10             	sub    (%rax),%rdx
    4000203c:	48 8b 43 10          	mov    0x10(%rbx),%rax
    40002040:	48 03 10             	add    (%rax),%rdx
    40002043:	48 89 d6             	mov    %rdx,%rsi
    40002046:	49 89 d7             	mov    %rdx,%r15
    40002049:	e8 f2 fd ff ff       	callq  40001e40 <bea_is_dual_infeasible>
    4000204e:	85 c0                	test   %eax,%eax
    40002050:	74 3d                	je     4000208f <primal_bea_mpp+0x14f>
    40002052:	48 8b 05 cf 2a 40 00 	mov    0x402acf(%rip),%rax        # 40404b28 <basket_size>
    40002059:	48 8d 0d e0 fe 3f 00 	lea    0x3ffee0(%rip),%rcx        # 40401f40 <perm>
    40002060:	4c 89 fa             	mov    %r15,%rdx
    40002063:	48 83 c0 01          	add    $0x1,%rax
    40002067:	48 8b 34 c1          	mov    (%rcx,%rax,8),%rsi
    4000206b:	48 89 05 b6 2a 40 00 	mov    %rax,0x402ab6(%rip)        # 40404b28 <basket_size>
    40002072:	48 89 1e             	mov    %rbx,(%rsi)
    40002075:	48 8b 04 c1          	mov    (%rcx,%rax,8),%rax
    40002079:	4c 89 f9             	mov    %r15,%rcx
    4000207c:	48 c1 f9 3f          	sar    $0x3f,%rcx
    40002080:	48 31 ca             	xor    %rcx,%rdx
    40002083:	48 89 50 10          	mov    %rdx,0x10(%rax)
    40002087:	48 29 48 10          	sub    %rcx,0x10(%rax)
    4000208b:	4c 89 78 08          	mov    %r15,0x8(%rax)
    4000208f:	48 8b 05 92 fe 3f 00 	mov    0x3ffe92(%rip),%rax        # 40401f28 <nr_group>
    40002096:	48 89 c2             	mov    %rax,%rdx
    40002099:	48 c1 e2 06          	shl    $0x6,%rdx
    4000209d:	48 01 d3             	add    %rdx,%rbx
    400020a0:	48 39 dd             	cmp    %rbx,%rbp
    400020a3:	77 83                	ja     40002028 <primal_bea_mpp+0xe8>
    400020a5:	48 8b 15 74 fe 3f 00 	mov    0x3ffe74(%rip),%rdx        # 40401f20 <group_pos>
    400020ac:	48 8b 35 75 2a 40 00 	mov    0x402a75(%rip),%rsi        # 40404b28 <basket_size>
    400020b3:	48 83 c2 01          	add    $0x1,%rdx
    400020b7:	48 39 c2             	cmp    %rax,%rdx
    400020ba:	49 0f 44 d5          	cmove  %r13,%rdx
    400020be:	48 83 fe 31          	cmp    $0x31,%rsi
    400020c2:	48 89 15 57 fe 3f 00 	mov    %rdx,0x3ffe57(%rip)        # 40401f20 <group_pos>
    400020c9:	7f 36                	jg     40002101 <primal_bea_mpp+0x1c1>
    400020cb:	4c 39 e2             	cmp    %r12,%rdx
    400020ce:	0f 85 34 ff ff ff    	jne    40002008 <primal_bea_mpp+0xc8>
    400020d4:	48 85 f6             	test   %rsi,%rsi
    400020d7:	75 28                	jne    40002101 <primal_bea_mpp+0x1c1>
    400020d9:	48 8b 44 24 08       	mov    0x8(%rsp),%rax
    400020de:	48 c7 05 37 fc 3f 00 	movq   $0x1,0x3ffc37(%rip)        # 40401d20 <initialize>
    400020e5:	01 00 00 00 
    400020e9:	48 c7 00 00 00 00 00 	movq   $0x0,(%rax)
    400020f0:	48 83 c4 18          	add    $0x18,%rsp
    400020f4:	31 c0                	xor    %eax,%eax
    400020f6:	5b                   	pop    %rbx
    400020f7:	5d                   	pop    %rbp
    400020f8:	41 5c                	pop    %r12
    400020fa:	41 5d                	pop    %r13
    400020fc:	41 5e                	pop    %r14
    400020fe:	41 5f                	pop    %r15
    40002100:	c3                   	retq   
    40002101:	bf 01 00 00 00       	mov    $0x1,%edi
    40002106:	e8 65 fd ff ff       	callq  40001e70 <sort_basket>
    4000210b:	48 8b 05 36 fe 3f 00 	mov    0x3ffe36(%rip),%rax        # 40401f48 <perm+0x8>
    40002112:	48 8b 7c 24 08       	mov    0x8(%rsp),%rdi
    40002117:	48 8b 50 08          	mov    0x8(%rax),%rdx
    4000211b:	48 8b 00             	mov    (%rax),%rax
    4000211e:	48 89 17             	mov    %rdx,(%rdi)
    40002121:	48 83 c4 18          	add    $0x18,%rsp
    40002125:	5b                   	pop    %rbx
    40002126:	5d                   	pop    %rbp
    40002127:	41 5c                	pop    %r12
    40002129:	41 5d                	pop    %r13
    4000212b:	41 5e                	pop    %r14
    4000212d:	41 5f                	pop    %r15
    4000212f:	c3                   	retq   
    40002130:	48 8d 05 21 09 40 00 	lea    0x400921(%rip),%rax        # 40402a58 <basket+0x18>
    40002137:	48 8d 15 0a fe 3f 00 	lea    0x3ffe0a(%rip),%rdx        # 40401f48 <perm+0x8>
    4000213e:	48 8d 0d e3 29 40 00 	lea    0x4029e3(%rip),%rcx        # 40404b28 <basket_size>
    40002145:	0f 1f 00             	nopl   (%rax)
    40002148:	48 89 02             	mov    %rax,(%rdx)
    4000214b:	48 83 c0 18          	add    $0x18,%rax
    4000214f:	48 83 c2 08          	add    $0x8,%rdx
    40002153:	48 39 c1             	cmp    %rax,%rcx
    40002156:	75 f0                	jne    40002148 <primal_bea_mpp+0x208>
    40002158:	48 8d 4f ff          	lea    -0x1(%rdi),%rcx
    4000215c:	48 ba 07 3a 6d a0 d3 	movabs $0x6d3a06d3a06d3a07,%rdx
    40002163:	06 3a 6d 
    40002166:	48 c7 05 af fd 3f 00 	movq   $0x0,0x3ffdaf(%rip)        # 40401f20 <group_pos>
    4000216d:	00 00 00 00 
    40002171:	48 c7 05 ac 29 40 00 	movq   $0x0,0x4029ac(%rip)        # 40404b28 <basket_size>
    40002178:	00 00 00 00 
    4000217c:	48 c7 05 99 fb 3f 00 	movq   $0x0,0x3ffb99(%rip)        # 40401d20 <initialize>
    40002183:	00 00 00 00 
    40002187:	45 31 e4             	xor    %r12d,%r12d
    4000218a:	48 89 c8             	mov    %rcx,%rax
    4000218d:	48 c1 f9 3f          	sar    $0x3f,%rcx
    40002191:	48 f7 ea             	imul   %rdx
    40002194:	48 c1 fa 07          	sar    $0x7,%rdx
    40002198:	48 29 ca             	sub    %rcx,%rdx
    4000219b:	48 8d 42 01          	lea    0x1(%rdx),%rax
    4000219f:	48 89 05 82 fd 3f 00 	mov    %rax,0x3ffd82(%rip)        # 40401f28 <nr_group>
    400021a6:	e9 50 fe ff ff       	jmpq   40001ffb <primal_bea_mpp+0xbb>

00000000400021ab <init_syscall>:
    400021ab:	55                   	push   %rbp
    400021ac:	48 89 e5             	mov    %rsp,%rbp
    400021af:	48 89 7d d8          	mov    %rdi,-0x28(%rbp)
    400021b3:	48 8b 45 d8          	mov    -0x28(%rbp),%rax
    400021b7:	48 8b 40 18          	mov    0x18(%rax),%rax
    400021bb:	48 89 45 e8          	mov    %rax,-0x18(%rbp)
    400021bf:	48 83 7d e8 00       	cmpq   $0x0,-0x18(%rbp)
    400021c4:	0f 85 95 00 00 00    	jne    4000225f <init_syscall+0xb4>
    400021ca:	48 8b 45 d8          	mov    -0x28(%rbp),%rax
    400021ce:	48 8b 10             	mov    (%rax),%rdx
    400021d1:	48 8d 05 98 36 40 00 	lea    0x403698(%rip),%rax        # 40405870 <outside_tramp>
    400021d8:	48 89 10             	mov    %rdx,(%rax)
    400021db:	48 8b 45 d8          	mov    -0x28(%rbp),%rax
    400021df:	48 8b 50 28          	mov    0x28(%rax),%rdx
    400021e3:	48 8d 05 8e 36 40 00 	lea    0x40368e(%rip),%rax        # 40405878 <fake_heap>
    400021ea:	48 89 10             	mov    %rdx,(%rax)
    400021ed:	48 8b 45 d8          	mov    -0x28(%rbp),%rax
    400021f1:	48 8b 50 30          	mov    0x30(%rax),%rdx
    400021f5:	48 8d 05 cc 33 40 00 	lea    0x4033cc(%rip),%rax        # 404055c8 <mcode_pages>
    400021fc:	48 89 10             	mov    %rdx,(%rax)
    400021ff:	48 8b 45 d8          	mov    -0x28(%rbp),%rax
    40002203:	48 8b 50 38          	mov    0x38(%rax),%rdx
    40002207:	48 8d 05 c2 33 40 00 	lea    0x4033c2(%rip),%rax        # 404055d0 <mdata_pages>
    4000220e:	48 89 10             	mov    %rdx,(%rax)
    40002211:	48 8b 45 d8          	mov    -0x28(%rbp),%rax
    40002215:	48 8b 50 40          	mov    0x40(%rax),%rdx
    40002219:	48 8d 05 b8 33 40 00 	lea    0x4033b8(%rip),%rax        # 404055d8 <mheap_pages>
    40002220:	48 89 10             	mov    %rdx,(%rax)
    40002223:	48 8b 45 d8          	mov    -0x28(%rbp),%rax
    40002227:	48 8b 50 48          	mov    0x48(%rax),%rdx
    4000222b:	48 8d 05 ae 33 40 00 	lea    0x4033ae(%rip),%rax        # 404055e0 <mstack_pages>
    40002232:	48 89 10             	mov    %rdx,(%rax)
    40002235:	48 8b 45 d8          	mov    -0x28(%rbp),%rax
    40002239:	48 8b 50 50          	mov    0x50(%rax),%rdx
    4000223d:	48 8d 05 a4 33 40 00 	lea    0x4033a4(%rip),%rax        # 404055e8 <mthread_pages>
    40002244:	48 89 10             	mov    %rdx,(%rax)
    40002247:	48 8d 05 b2 3d ff 3f 	lea    0x3fff3db2(%rip),%rax        # 7fff6000 <tls_1>
    4000224e:	48 89 45 f8          	mov    %rax,-0x8(%rbp)
    40002252:	48 8d 05 a7 1d ff 3f 	lea    0x3fff1da7(%rip),%rax        # 7fff4000 <init_stack_1>
    40002259:	48 89 45 f0          	mov    %rax,-0x10(%rbp)
    4000225d:	eb 54                	jmp    400022b3 <init_syscall+0x108>
    4000225f:	48 83 7d e8 01       	cmpq   $0x1,-0x18(%rbp)
    40002264:	75 18                	jne    4000227e <init_syscall+0xd3>
    40002266:	48 8d 05 93 6d ff 3f 	lea    0x3fff6d93(%rip),%rax        # 7fff9000 <tls_2>
    4000226d:	48 89 45 f8          	mov    %rax,-0x8(%rbp)
    40002271:	48 8d 05 88 4d df 3f 	lea    0x3fdf4d88(%rip),%rax        # 7fdf7000 <init_stack_2>
    40002278:	48 89 45 f0          	mov    %rax,-0x10(%rbp)
    4000227c:	eb 35                	jmp    400022b3 <init_syscall+0x108>
    4000227e:	48 83 7d e8 02       	cmpq   $0x2,-0x18(%rbp)
    40002283:	75 18                	jne    4000229d <init_syscall+0xf2>
    40002285:	48 8d 05 74 9d ff 3f 	lea    0x3fff9d74(%rip),%rax        # 7fffc000 <tls_3>
    4000228c:	48 89 45 f8          	mov    %rax,-0x8(%rbp)
    40002290:	48 8d 05 69 7d bf 3f 	lea    0x3fbf7d69(%rip),%rax        # 7fbfa000 <init_stack_3>
    40002297:	48 89 45 f0          	mov    %rax,-0x10(%rbp)
    4000229b:	eb 16                	jmp    400022b3 <init_syscall+0x108>
    4000229d:	48 8d 05 5c cd ff 3f 	lea    0x3fffcd5c(%rip),%rax        # 7ffff000 <tls_4>
    400022a4:	48 89 45 f8          	mov    %rax,-0x8(%rbp)
    400022a8:	48 8d 05 51 ad 9f 3f 	lea    0x3f9fad51(%rip),%rax        # 7f9fd000 <init_stack_4>
    400022af:	48 89 45 f0          	mov    %rax,-0x10(%rbp)
    400022b3:	48 8b 55 f8          	mov    -0x8(%rbp),%rdx
    400022b7:	48 8b 45 f8          	mov    -0x8(%rbp),%rax
    400022bb:	48 89 10             	mov    %rdx,(%rax)
    400022be:	48 8b 45 f8          	mov    -0x8(%rbp),%rax
    400022c2:	48 8d 50 08          	lea    0x8(%rax),%rdx
    400022c6:	48 8b 45 e8          	mov    -0x18(%rbp),%rax
    400022ca:	48 89 02             	mov    %rax,(%rdx)
    400022cd:	48 8b 45 f8          	mov    -0x8(%rbp),%rax
    400022d1:	48 83 c0 10          	add    $0x10,%rax
    400022d5:	48 8b 55 f8          	mov    -0x8(%rbp),%rdx
    400022d9:	48 81 c2 00 10 00 00 	add    $0x1000,%rdx
    400022e0:	48 89 10             	mov    %rdx,(%rax)
    400022e3:	48 8b 45 f8          	mov    -0x8(%rbp),%rax
    400022e7:	48 83 c0 18          	add    $0x18,%rax
    400022eb:	48 8b 55 f8          	mov    -0x8(%rbp),%rdx
    400022ef:	48 81 c2 80 0f 00 00 	add    $0xf80,%rdx
    400022f6:	48 89 10             	mov    %rdx,(%rax)
    400022f9:	48 8b 45 f8          	mov    -0x8(%rbp),%rax
    400022fd:	48 8d 50 20          	lea    0x20(%rax),%rdx
    40002301:	48 8b 45 d8          	mov    -0x28(%rbp),%rax
    40002305:	48 8b 40 08          	mov    0x8(%rax),%rax
    40002309:	48 89 02             	mov    %rax,(%rdx)
    4000230c:	48 8b 45 f8          	mov    -0x8(%rbp),%rax
    40002310:	48 8d 50 28          	lea    0x28(%rax),%rdx
    40002314:	48 8b 45 d8          	mov    -0x28(%rbp),%rax
    40002318:	48 8b 40 10          	mov    0x10(%rax),%rax
    4000231c:	48 89 02             	mov    %rax,(%rdx)
    4000231f:	48 8b 45 f8          	mov    -0x8(%rbp),%rax
    40002323:	48 8d 50 30          	lea    0x30(%rax),%rdx
    40002327:	48 8b 45 f0          	mov    -0x10(%rbp),%rax
    4000232b:	48 89 02             	mov    %rax,(%rdx)
    4000232e:	48 8b 45 f8          	mov    -0x8(%rbp),%rax
    40002332:	48 8d 50 38          	lea    0x38(%rax),%rdx
    40002336:	48 8b 45 d8          	mov    -0x28(%rbp),%rax
    4000233a:	48 8b 40 20          	mov    0x20(%rax),%rax
    4000233e:	48 89 02             	mov    %rax,(%rdx)
    40002341:	48 8b 45 f8          	mov    -0x8(%rbp),%rax
    40002345:	48 8d 50 40          	lea    0x40(%rax),%rdx
    40002349:	48 8b 45 d8          	mov    -0x28(%rbp),%rax
    4000234d:	48 8b 40 58          	mov    0x58(%rax),%rax
    40002351:	48 89 02             	mov    %rax,(%rdx)
    40002354:	90                   	nop
    40002355:	5d                   	pop    %rbp
    40002356:	c3                   	retq   

0000000040002357 <my_start_libc>:
    40002357:	55                   	push   %rbp
    40002358:	48 89 e5             	mov    %rsp,%rbp
    4000235b:	89 7d fc             	mov    %edi,-0x4(%rbp)
    4000235e:	48 89 75 f0          	mov    %rsi,-0x10(%rbp)
    40002362:	90                   	nop
    40002363:	5d                   	pop    %rbp
    40002364:	c3                   	retq   

0000000040002365 <my_start>:
    40002365:	55                   	push   %rbp
    40002366:	48 89 e5             	mov    %rsp,%rbp
    40002369:	48 83 ec 20          	sub    $0x20,%rsp
    4000236d:	e8 a1 00 00 00       	callq  40002413 <__tls_outside_buffer>
    40002372:	48 8b 00             	mov    (%rax),%rax
    40002375:	48 05 00 10 00 00    	add    $0x1000,%rax
    4000237b:	48 89 45 f8          	mov    %rax,-0x8(%rbp)
    4000237f:	48 8b 45 f8          	mov    -0x8(%rbp),%rax
    40002383:	48 8b 00             	mov    (%rax),%rax
    40002386:	89 45 f4             	mov    %eax,-0xc(%rbp)
    40002389:	48 8b 45 f8          	mov    -0x8(%rbp),%rax
    4000238d:	48 83 c0 08          	add    $0x8,%rax
    40002391:	48 8b 00             	mov    (%rax),%rax
    40002394:	48 89 45 e8          	mov    %rax,-0x18(%rbp)
    40002398:	48 8b 55 e8          	mov    -0x18(%rbp),%rdx
    4000239c:	8b 45 f4             	mov    -0xc(%rbp),%eax
    4000239f:	48 89 d6             	mov    %rdx,%rsi
    400023a2:	89 c7                	mov    %eax,%edi
    400023a4:	e8 ae ff ff ff       	callq  40002357 <my_start_libc>
    400023a9:	90                   	nop
    400023aa:	c9                   	leaveq 
    400023ab:	c3                   	retq   

00000000400023ac <__tls_self>:
    400023ac:	55                   	push   %rbp
    400023ad:	48 89 e5             	mov    %rsp,%rbp
    400023b0:	64 48 8b 04 25 00 00 	mov    %fs:0x0,%rax
    400023b7:	00 00 
    400023b9:	48 89 45 f8          	mov    %rax,-0x8(%rbp)
    400023bd:	48 8b 45 f8          	mov    -0x8(%rbp),%rax
    400023c1:	5d                   	pop    %rbp
    400023c2:	c3                   	retq   

00000000400023c3 <__tls_errno_location>:
    400023c3:	55                   	push   %rbp
    400023c4:	48 89 e5             	mov    %rsp,%rbp
    400023c7:	b8 00 00 00 00       	mov    $0x0,%eax
    400023cc:	e8 db ff ff ff       	callq  400023ac <__tls_self>
    400023d1:	48 83 c0 0c          	add    $0xc,%rax
    400023d5:	5d                   	pop    %rbp
    400023d6:	c3                   	retq   

00000000400023d7 <__tls_context_start>:
    400023d7:	55                   	push   %rbp
    400023d8:	48 89 e5             	mov    %rsp,%rbp
    400023db:	b8 00 00 00 00       	mov    $0x0,%eax
    400023e0:	e8 c7 ff ff ff       	callq  400023ac <__tls_self>
    400023e5:	48 83 c0 10          	add    $0x10,%rax
    400023e9:	5d                   	pop    %rbp
    400023ea:	c3                   	retq   

00000000400023eb <__tls_context_end>:
    400023eb:	55                   	push   %rbp
    400023ec:	48 89 e5             	mov    %rsp,%rbp
    400023ef:	b8 00 00 00 00       	mov    $0x0,%eax
    400023f4:	e8 b3 ff ff ff       	callq  400023ac <__tls_self>
    400023f9:	48 83 c0 18          	add    $0x18,%rax
    400023fd:	5d                   	pop    %rbp
    400023fe:	c3                   	retq   

00000000400023ff <__tls_outside_stack>:
    400023ff:	55                   	push   %rbp
    40002400:	48 89 e5             	mov    %rsp,%rbp
    40002403:	b8 00 00 00 00       	mov    $0x0,%eax
    40002408:	e8 9f ff ff ff       	callq  400023ac <__tls_self>
    4000240d:	48 83 c0 20          	add    $0x20,%rax
    40002411:	5d                   	pop    %rbp
    40002412:	c3                   	retq   

0000000040002413 <__tls_outside_buffer>:
    40002413:	55                   	push   %rbp
    40002414:	48 89 e5             	mov    %rsp,%rbp
    40002417:	b8 00 00 00 00       	mov    $0x0,%eax
    4000241c:	e8 8b ff ff ff       	callq  400023ac <__tls_self>
    40002421:	48 83 c0 28          	add    $0x28,%rax
    40002425:	5d                   	pop    %rbp
    40002426:	c3                   	retq   

0000000040002427 <__tls_previous_stack>:
    40002427:	55                   	push   %rbp
    40002428:	48 89 e5             	mov    %rsp,%rbp
    4000242b:	b8 00 00 00 00       	mov    $0x0,%eax
    40002430:	e8 77 ff ff ff       	callq  400023ac <__tls_self>
    40002435:	48 83 c0 30          	add    $0x30,%rax
    40002439:	5d                   	pop    %rbp
    4000243a:	c3                   	retq   

000000004000243b <pthread_self>:
    4000243b:	55                   	push   %rbp
    4000243c:	48 89 e5             	mov    %rsp,%rbp
    4000243f:	b8 00 00 00 00       	mov    $0x0,%eax
    40002444:	e8 63 ff ff ff       	callq  400023ac <__tls_self>
    40002449:	48 8b 40 38          	mov    0x38(%rax),%rax
    4000244d:	5d                   	pop    %rbp
    4000244e:	c3                   	retq   

000000004000244f <__funcs_on_exit>:
    4000244f:	c3                   	retq   

0000000040002450 <__libc_exit_fini>:
    40002450:	53                   	push   %rbx
    40002451:	bb f8 1c 40 40       	mov    $0x40401cf8,%ebx
    40002456:	48 81 fb f8 1c 40 40 	cmp    $0x40401cf8,%rbx
    4000245d:	76 0a                	jbe    40002469 <__libc_exit_fini+0x19>
    4000245f:	48 83 eb 08          	sub    $0x8,%rbx
    40002463:	31 c0                	xor    %eax,%eax
    40002465:	ff 13                	callq  *(%rbx)
    40002467:	eb ed                	jmp    40002456 <__libc_exit_fini+0x6>
    40002469:	5b                   	pop    %rbx
    4000246a:	31 c0                	xor    %eax,%eax
    4000246c:	e9 de ff ff ff       	jmpq   4000244f <__funcs_on_exit>

0000000040002471 <exit>:
    40002471:	48 83 ec 18          	sub    $0x18,%rsp
    40002475:	31 c0                	xor    %eax,%eax
    40002477:	89 7c 24 0c          	mov    %edi,0xc(%rsp)
    4000247b:	e8 cf ff ff ff       	callq  4000244f <__funcs_on_exit>
    40002480:	e8 cb ff ff ff       	callq  40002450 <__libc_exit_fini>
    40002485:	31 c0                	xor    %eax,%eax
    40002487:	e8 d6 75 00 00       	callq  40009a62 <__stdio_exit>
    4000248c:	8b 7c 24 0c          	mov    0xc(%rsp),%edi
    40002490:	e8 3b 3d 00 00       	callq  400061d0 <_Exit>
    40002495:	66 2e 0f 1f 84 00 00 	nopw   %cs:0x0(%rax,%rax,1)
    4000249c:	00 00 00 
    4000249f:	90                   	nop

00000000400024a0 <calloc>:
    400024a0:	48 85 f6             	test   %rsi,%rsi
    400024a3:	74 11                	je     400024b6 <calloc+0x16>
    400024a5:	31 d2                	xor    %edx,%edx
    400024a7:	48 c7 c0 ff ff ff ff 	mov    $0xffffffffffffffff,%rax
    400024ae:	48 f7 f6             	div    %rsi
    400024b1:	48 39 f8             	cmp    %rdi,%rax
    400024b4:	72 0a                	jb     400024c0 <calloc+0x20>
    400024b6:	48 0f af fe          	imul   %rsi,%rdi
    400024ba:	e9 91 11 00 00       	jmpq   40003650 <__malloc0>
    400024bf:	90                   	nop
    400024c0:	48 83 ec 08          	sub    $0x8,%rsp
    400024c4:	e8 fa fe ff ff       	callq  400023c3 <__tls_errno_location>
    400024c9:	c7 00 0c 00 00 00    	movl   $0xc,(%rax)
    400024cf:	31 c0                	xor    %eax,%eax
    400024d1:	48 83 c4 08          	add    $0x8,%rsp
    400024d5:	c3                   	retq   
    400024d6:	66 2e 0f 1f 84 00 00 	nopw   %cs:0x0(%rax,%rax,1)
    400024dd:	00 00 00 

00000000400024e0 <__simple_malloc>:
    400024e0:	41 54                	push   %r12
    400024e2:	55                   	push   %rbp
    400024e3:	48 89 fd             	mov    %rdi,%rbp
    400024e6:	53                   	push   %rbx
    400024e7:	48 83 ec 10          	sub    $0x10,%rsp
    400024eb:	48 85 ff             	test   %rdi,%rdi
    400024ee:	0f 84 bc 00 00 00    	je     400025b0 <__simple_malloc+0xd0>
    400024f4:	48 83 ff 01          	cmp    $0x1,%rdi
    400024f8:	0f 86 b2 00 00 00    	jbe    400025b0 <__simple_malloc+0xd0>
    400024fe:	bb 01 00 00 00       	mov    $0x1,%ebx
    40002503:	eb 08                	jmp    4000250d <__simple_malloc+0x2d>
    40002505:	0f 1f 00             	nopl   (%rax)
    40002508:	48 39 dd             	cmp    %rbx,%rbp
    4000250b:	76 09                	jbe    40002516 <__simple_malloc+0x36>
    4000250d:	48 01 db             	add    %rbx,%rbx
    40002510:	48 83 fb 0f          	cmp    $0xf,%rbx
    40002514:	76 f2                	jbe    40002508 <__simple_malloc+0x28>
    40002516:	bf 48 4b 40 40       	mov    $0x40404b48,%edi
    4000251b:	48 83 eb 01          	sub    $0x1,%rbx
    4000251f:	e8 3f 3b 00 00       	callq  40006063 <__lock>
    40002524:	48 8b 15 15 26 40 00 	mov    0x402615(%rip),%rdx        # 40404b40 <cur.1793>
    4000252b:	48 b8 0f 00 00 00 00 	movabs $0x800000000000000f,%rax
    40002532:	00 00 80 
    40002535:	49 89 d4             	mov    %rdx,%r12
    40002538:	49 f7 dc             	neg    %r12
    4000253b:	49 21 dc             	and    %rbx,%r12
    4000253e:	48 39 c5             	cmp    %rax,%rbp
    40002541:	0f 86 82 00 00 00    	jbe    400025c9 <__simple_malloc+0xe9>
    40002547:	48 8b 05 e2 25 40 00 	mov    0x4025e2(%rip),%rax        # 40404b30 <end.1794>
    4000254e:	48 29 d0             	sub    %rdx,%rax
    40002551:	48 39 c5             	cmp    %rax,%rbp
    40002554:	76 35                	jbe    4000258b <__simple_malloc+0xab>
    40002556:	48 89 e7             	mov    %rsp,%rdi
    40002559:	48 89 2c 24          	mov    %rbp,(%rsp)
    4000255d:	e8 ee 3c 00 00       	callq  40006250 <__expand_heap>
    40002562:	48 85 c0             	test   %rax,%rax
    40002565:	74 6a                	je     400025d1 <__simple_malloc+0xf1>
    40002567:	48 3b 05 c2 25 40 00 	cmp    0x4025c2(%rip),%rax        # 40404b30 <end.1794>
    4000256e:	48 8b 15 cb 25 40 00 	mov    0x4025cb(%rip),%rdx        # 40404b40 <cur.1793>
    40002575:	74 09                	je     40002580 <__simple_malloc+0xa0>
    40002577:	4c 29 e5             	sub    %r12,%rbp
    4000257a:	48 89 c2             	mov    %rax,%rdx
    4000257d:	45 31 e4             	xor    %r12d,%r12d
    40002580:	48 03 04 24          	add    (%rsp),%rax
    40002584:	48 89 05 a5 25 40 00 	mov    %rax,0x4025a5(%rip)        # 40404b30 <end.1794>
    4000258b:	49 01 d4             	add    %rdx,%r12
    4000258e:	bf 48 4b 40 40       	mov    $0x40404b48,%edi
    40002593:	48 01 ea             	add    %rbp,%rdx
    40002596:	48 89 15 a3 25 40 00 	mov    %rdx,0x4025a3(%rip)        # 40404b40 <cur.1793>
    4000259d:	e8 fb 3a 00 00       	callq  4000609d <__unlock>
    400025a2:	4c 89 e0             	mov    %r12,%rax
    400025a5:	48 83 c4 10          	add    $0x10,%rsp
    400025a9:	5b                   	pop    %rbx
    400025aa:	5d                   	pop    %rbp
    400025ab:	41 5c                	pop    %r12
    400025ad:	c3                   	retq   
    400025ae:	66 90                	xchg   %ax,%ax
    400025b0:	bf 48 4b 40 40       	mov    $0x40404b48,%edi
    400025b5:	bd 01 00 00 00       	mov    $0x1,%ebp
    400025ba:	45 31 e4             	xor    %r12d,%r12d
    400025bd:	e8 a1 3a 00 00       	callq  40006063 <__lock>
    400025c2:	48 8b 15 77 25 40 00 	mov    0x402577(%rip),%rdx        # 40404b40 <cur.1793>
    400025c9:	4c 01 e5             	add    %r12,%rbp
    400025cc:	e9 76 ff ff ff       	jmpq   40002547 <__simple_malloc+0x67>
    400025d1:	bf 48 4b 40 40       	mov    $0x40404b48,%edi
    400025d6:	e8 c2 3a 00 00       	callq  4000609d <__unlock>
    400025db:	31 c0                	xor    %eax,%eax
    400025dd:	eb c6                	jmp    400025a5 <__simple_malloc+0xc5>
    400025df:	90                   	nop

00000000400025e0 <alloc_fwd>:
    400025e0:	41 57                	push   %r15
    400025e2:	41 56                	push   %r14
    400025e4:	41 55                	push   %r13
    400025e6:	41 54                	push   %r12
    400025e8:	55                   	push   %rbp
    400025e9:	53                   	push   %rbx
    400025ea:	48 83 ec 18          	sub    $0x18,%rsp
    400025ee:	48 89 7c 24 08       	mov    %rdi,0x8(%rsp)
    400025f3:	0f 1f 44 00 00       	nopl   0x0(%rax,%rax,1)
    400025f8:	48 8b 44 24 08       	mov    0x8(%rsp),%rax
    400025fd:	48 8b 68 08          	mov    0x8(%rax),%rbp
    40002601:	40 f6 c5 01          	test   $0x1,%bpl
    40002605:	0f 85 e2 00 00 00    	jne    400026ed <alloc_fwd+0x10d>
    4000260b:	48 89 e8             	mov    %rbp,%rax
    4000260e:	48 c1 e8 05          	shr    $0x5,%rax
    40002612:	48 83 e8 01          	sub    $0x1,%rax
    40002616:	48 83 f8 20          	cmp    $0x20,%rax
    4000261a:	41 89 c6             	mov    %eax,%r14d
    4000261d:	76 1e                	jbe    4000263d <alloc_fwd+0x5d>
    4000261f:	48 3d ff 01 00 00    	cmp    $0x1ff,%rax
    40002625:	0f 86 25 01 00 00    	jbe    40002750 <alloc_fwd+0x170>
    4000262b:	48 3d 00 1c 00 00    	cmp    $0x1c00,%rax
    40002631:	41 be 3f 00 00 00    	mov    $0x3f,%r14d
    40002637:	0f 86 bb 01 00 00    	jbe    400027f8 <alloc_fwd+0x218>
    4000263d:	49 63 de             	movslq %r14d,%rbx
    40002640:	8b 15 66 32 40 00    	mov    0x403266(%rip),%edx        # 404058ac <__libc+0xc>
    40002646:	48 8d 04 5b          	lea    (%rbx,%rbx,2),%rax
    4000264a:	4c 8d 24 c5 60 4b 40 	lea    0x40404b60(,%rax,8),%r12
    40002651:	40 
    40002652:	85 d2                	test   %edx,%edx
    40002654:	48 89 e8             	mov    %rbp,%rax
    40002657:	4d 8d 7c 24 08       	lea    0x8(%r12),%r15
    4000265c:	0f 85 9e 00 00 00    	jne    40002700 <alloc_fwd+0x120>
    40002662:	48 8d 0c 5b          	lea    (%rbx,%rbx,2),%rcx
    40002666:	48 c1 e1 03          	shl    $0x3,%rcx
    4000266a:	48 83 b9 70 4b 40 40 	cmpq   $0x0,0x40404b70(%rcx)
    40002671:	00 
    40002672:	0f 84 f0 00 00 00    	je     40002768 <alloc_fwd+0x188>
    40002678:	48 39 c5             	cmp    %rax,%rbp
    4000267b:	0f 84 0b 01 00 00    	je     4000278c <alloc_fwd+0x1ac>
    40002681:	41 8b 54 24 08       	mov    0x8(%r12),%edx
    40002686:	85 d2                	test   %edx,%edx
    40002688:	74 56                	je     400026e0 <alloc_fwd+0x100>
    4000268a:	31 c0                	xor    %eax,%eax
    4000268c:	41 89 07             	mov    %eax,(%r15)
    4000268f:	f0 83 0c 24 00       	lock orl $0x0,(%rsp)
    40002694:	41 8b 47 04          	mov    0x4(%r15),%eax
    40002698:	85 c0                	test   %eax,%eax
    4000269a:	0f 84 58 ff ff ff    	je     400025f8 <alloc_fwd+0x18>
    400026a0:	b9 01 00 00 00       	mov    $0x1,%ecx
    400026a5:	ba 81 00 00 00       	mov    $0x81,%edx
    400026aa:	4c 89 fe             	mov    %r15,%rsi
    400026ad:	bf ca 00 00 00       	mov    $0xca,%edi
    400026b2:	e8 3f 7a 00 00       	callq  4000a0f6 <ocall_syscall3>
    400026b7:	48 83 f8 da          	cmp    $0xffffffffffffffda,%rax
    400026bb:	0f 85 37 ff ff ff    	jne    400025f8 <alloc_fwd+0x18>
    400026c1:	b9 01 00 00 00       	mov    $0x1,%ecx
    400026c6:	ba 01 00 00 00       	mov    $0x1,%edx
    400026cb:	4c 89 fe             	mov    %r15,%rsi
    400026ce:	bf ca 00 00 00       	mov    $0xca,%edi
    400026d3:	e8 1e 7a 00 00       	callq  4000a0f6 <ocall_syscall3>
    400026d8:	e9 1b ff ff ff       	jmpq   400025f8 <alloc_fwd+0x18>
    400026dd:	0f 1f 00             	nopl   (%rax)
    400026e0:	48 89 c5             	mov    %rax,%rbp
    400026e3:	40 f6 c5 01          	test   $0x1,%bpl
    400026e7:	0f 84 1e ff ff ff    	je     4000260b <alloc_fwd+0x2b>
    400026ed:	48 83 c4 18          	add    $0x18,%rsp
    400026f1:	31 c0                	xor    %eax,%eax
    400026f3:	5b                   	pop    %rbx
    400026f4:	5d                   	pop    %rbp
    400026f5:	41 5c                	pop    %r12
    400026f7:	41 5d                	pop    %r13
    400026f9:	41 5e                	pop    %r14
    400026fb:	41 5f                	pop    %r15
    400026fd:	c3                   	retq   
    400026fe:	66 90                	xchg   %ax,%ax
    40002700:	b8 01 00 00 00       	mov    $0x1,%eax
    40002705:	41 87 44 24 08       	xchg   %eax,0x8(%r12)
    4000270a:	85 c0                	test   %eax,%eax
    4000270c:	4d 8d 6c 24 0c       	lea    0xc(%r12),%r13
    40002711:	74 26                	je     40002739 <alloc_fwd+0x159>
    40002713:	0f 1f 44 00 00       	nopl   0x0(%rax,%rax,1)
    40002718:	b9 01 00 00 00       	mov    $0x1,%ecx
    4000271d:	ba 01 00 00 00       	mov    $0x1,%edx
    40002722:	4c 89 ee             	mov    %r13,%rsi
    40002725:	4c 89 ff             	mov    %r15,%rdi
    40002728:	e8 c1 39 00 00       	callq  400060ee <__wait>
    4000272d:	b8 01 00 00 00       	mov    $0x1,%eax
    40002732:	41 87 07             	xchg   %eax,(%r15)
    40002735:	85 c0                	test   %eax,%eax
    40002737:	75 df                	jne    40002718 <alloc_fwd+0x138>
    40002739:	48 8b 44 24 08       	mov    0x8(%rsp),%rax
    4000273e:	48 8b 40 08          	mov    0x8(%rax),%rax
    40002742:	e9 1b ff ff ff       	jmpq   40002662 <alloc_fwd+0x82>
    40002747:	66 0f 1f 84 00 00 00 	nopw   0x0(%rax,%rax,1)
    4000274e:	00 00 
    40002750:	48 c1 e8 03          	shr    $0x3,%rax
    40002754:	44 0f b6 b0 5c 03 40 	movzbl 0x4040035c(%rax),%r14d
    4000275b:	40 
    4000275c:	e9 dc fe ff ff       	jmpq   4000263d <alloc_fwd+0x5d>
    40002761:	0f 1f 80 00 00 00 00 	nopl   0x0(%rax)
    40002768:	48 8d 74 5b fe       	lea    -0x2(%rbx,%rbx,2),%rsi
    4000276d:	48 39 c5             	cmp    %rax,%rbp
    40002770:	48 8d 34 f5 70 4b 40 	lea    0x40404b70(,%rsi,8),%rsi
    40002777:	40 
    40002778:	48 89 b1 78 4b 40 40 	mov    %rsi,0x40404b78(%rcx)
    4000277f:	48 89 b1 70 4b 40 40 	mov    %rsi,0x40404b70(%rcx)
    40002786:	0f 85 f5 fe ff ff    	jne    40002681 <alloc_fwd+0xa1>
    4000278c:	48 8b 7c 24 08       	mov    0x8(%rsp),%rdi
    40002791:	48 8b 57 18          	mov    0x18(%rdi),%rdx
    40002795:	48 8b 4f 10          	mov    0x10(%rdi),%rcx
    40002799:	48 39 ca             	cmp    %rcx,%rdx
    4000279c:	0f 84 a1 00 00 00    	je     40002843 <alloc_fwd+0x263>
    400027a2:	48 8b 5c 24 08       	mov    0x8(%rsp),%rbx
    400027a7:	48 89 4a 10          	mov    %rcx,0x10(%rdx)
    400027ab:	48 8b 4b 10          	mov    0x10(%rbx),%rcx
    400027af:	48 89 51 18          	mov    %rdx,0x18(%rcx)
    400027b3:	48 89 c2             	mov    %rax,%rdx
    400027b6:	48 83 e0 fe          	and    $0xfffffffffffffffe,%rax
    400027ba:	48 83 ca 01          	or     $0x1,%rdx
    400027be:	48 89 53 08          	mov    %rdx,0x8(%rbx)
    400027c2:	48 83 0c 03 01       	orq    $0x1,(%rbx,%rax,1)
    400027c7:	41 8b 07             	mov    (%r15),%eax
    400027ca:	85 c0                	test   %eax,%eax
    400027cc:	74 12                	je     400027e0 <alloc_fwd+0x200>
    400027ce:	31 c0                	xor    %eax,%eax
    400027d0:	41 89 07             	mov    %eax,(%r15)
    400027d3:	f0 83 0c 24 00       	lock orl $0x0,(%rsp)
    400027d8:	41 8b 47 04          	mov    0x4(%r15),%eax
    400027dc:	85 c0                	test   %eax,%eax
    400027de:	75 2d                	jne    4000280d <alloc_fwd+0x22d>
    400027e0:	48 83 c4 18          	add    $0x18,%rsp
    400027e4:	b8 01 00 00 00       	mov    $0x1,%eax
    400027e9:	5b                   	pop    %rbx
    400027ea:	5d                   	pop    %rbp
    400027eb:	41 5c                	pop    %r12
    400027ed:	41 5d                	pop    %r13
    400027ef:	41 5e                	pop    %r14
    400027f1:	41 5f                	pop    %r15
    400027f3:	c3                   	retq   
    400027f4:	0f 1f 40 00          	nopl   0x0(%rax)
    400027f8:	48 c1 e8 07          	shr    $0x7,%rax
    400027fc:	44 0f b6 b0 5c 03 40 	movzbl 0x4040035c(%rax),%r14d
    40002803:	40 
    40002804:	41 83 c6 10          	add    $0x10,%r14d
    40002808:	e9 30 fe ff ff       	jmpq   4000263d <alloc_fwd+0x5d>
    4000280d:	b9 01 00 00 00       	mov    $0x1,%ecx
    40002812:	ba 81 00 00 00       	mov    $0x81,%edx
    40002817:	4c 89 fe             	mov    %r15,%rsi
    4000281a:	bf ca 00 00 00       	mov    $0xca,%edi
    4000281f:	e8 d2 78 00 00       	callq  4000a0f6 <ocall_syscall3>
    40002824:	48 83 f8 da          	cmp    $0xffffffffffffffda,%rax
    40002828:	75 b6                	jne    400027e0 <alloc_fwd+0x200>
    4000282a:	b9 01 00 00 00       	mov    $0x1,%ecx
    4000282f:	ba 01 00 00 00       	mov    $0x1,%edx
    40002834:	4c 89 fe             	mov    %r15,%rsi
    40002837:	bf ca 00 00 00       	mov    $0xca,%edi
    4000283c:	e8 b5 78 00 00       	callq  4000a0f6 <ocall_syscall3>
    40002841:	eb 9d                	jmp    400027e0 <alloc_fwd+0x200>
    40002843:	44 89 f1             	mov    %r14d,%ecx
    40002846:	48 c7 c0 fe ff ff ff 	mov    $0xfffffffffffffffe,%rax
    4000284d:	48 d3 c0             	rol    %cl,%rax
    40002850:	f0 48 21 05 08 23 40 	lock and %rax,0x402308(%rip)        # 40404b60 <mal>
    40002857:	00 
    40002858:	48 8b 44 24 08       	mov    0x8(%rsp),%rax
    4000285d:	48 8b 50 18          	mov    0x18(%rax),%rdx
    40002861:	48 8b 48 10          	mov    0x10(%rax),%rcx
    40002865:	48 8b 40 08          	mov    0x8(%rax),%rax
    40002869:	e9 34 ff ff ff       	jmpq   400027a2 <alloc_fwd+0x1c2>
    4000286e:	66 90                	xchg   %ax,%ax

0000000040002870 <alloc_rev>:
    40002870:	41 57                	push   %r15
    40002872:	41 56                	push   %r14
    40002874:	41 55                	push   %r13
    40002876:	41 54                	push   %r12
    40002878:	55                   	push   %rbp
    40002879:	53                   	push   %rbx
    4000287a:	48 83 ec 18          	sub    $0x18,%rsp
    4000287e:	48 89 7c 24 08       	mov    %rdi,0x8(%rsp)
    40002883:	0f 1f 44 00 00       	nopl   0x0(%rax,%rax,1)
    40002888:	48 8b 44 24 08       	mov    0x8(%rsp),%rax
    4000288d:	48 8b 28             	mov    (%rax),%rbp
    40002890:	40 f6 c5 01          	test   $0x1,%bpl
    40002894:	0f 85 e3 00 00 00    	jne    4000297d <alloc_rev+0x10d>
    4000289a:	48 89 e8             	mov    %rbp,%rax
    4000289d:	48 c1 e8 05          	shr    $0x5,%rax
    400028a1:	48 83 e8 01          	sub    $0x1,%rax
    400028a5:	48 83 f8 20          	cmp    $0x20,%rax
    400028a9:	41 89 c6             	mov    %eax,%r14d
    400028ac:	76 1e                	jbe    400028cc <alloc_rev+0x5c>
    400028ae:	48 3d ff 01 00 00    	cmp    $0x1ff,%rax
    400028b4:	0f 86 26 01 00 00    	jbe    400029e0 <alloc_rev+0x170>
    400028ba:	48 3d 00 1c 00 00    	cmp    $0x1c00,%rax
    400028c0:	41 be 3f 00 00 00    	mov    $0x3f,%r14d
    400028c6:	0f 86 c4 01 00 00    	jbe    40002a90 <alloc_rev+0x220>
    400028cc:	49 63 de             	movslq %r14d,%rbx
    400028cf:	8b 15 d7 2f 40 00    	mov    0x402fd7(%rip),%edx        # 404058ac <__libc+0xc>
    400028d5:	48 8d 04 5b          	lea    (%rbx,%rbx,2),%rax
    400028d9:	4c 8d 24 c5 60 4b 40 	lea    0x40404b60(,%rax,8),%r12
    400028e0:	40 
    400028e1:	85 d2                	test   %edx,%edx
    400028e3:	48 89 e8             	mov    %rbp,%rax
    400028e6:	4d 8d 7c 24 08       	lea    0x8(%r12),%r15
    400028eb:	0f 85 9f 00 00 00    	jne    40002990 <alloc_rev+0x120>
    400028f1:	48 8d 0c 5b          	lea    (%rbx,%rbx,2),%rcx
    400028f5:	48 c1 e1 03          	shl    $0x3,%rcx
    400028f9:	48 83 b9 70 4b 40 40 	cmpq   $0x0,0x40404b70(%rcx)
    40002900:	00 
    40002901:	0f 84 f1 00 00 00    	je     400029f8 <alloc_rev+0x188>
    40002907:	48 39 c5             	cmp    %rax,%rbp
    4000290a:	0f 84 0c 01 00 00    	je     40002a1c <alloc_rev+0x1ac>
    40002910:	41 8b 54 24 08       	mov    0x8(%r12),%edx
    40002915:	85 d2                	test   %edx,%edx
    40002917:	74 57                	je     40002970 <alloc_rev+0x100>
    40002919:	31 c0                	xor    %eax,%eax
    4000291b:	41 89 07             	mov    %eax,(%r15)
    4000291e:	f0 83 0c 24 00       	lock orl $0x0,(%rsp)
    40002923:	41 8b 47 04          	mov    0x4(%r15),%eax
    40002927:	85 c0                	test   %eax,%eax
    40002929:	0f 84 59 ff ff ff    	je     40002888 <alloc_rev+0x18>
    4000292f:	b9 01 00 00 00       	mov    $0x1,%ecx
    40002934:	ba 81 00 00 00       	mov    $0x81,%edx
    40002939:	4c 89 fe             	mov    %r15,%rsi
    4000293c:	bf ca 00 00 00       	mov    $0xca,%edi
    40002941:	e8 b0 77 00 00       	callq  4000a0f6 <ocall_syscall3>
    40002946:	48 83 f8 da          	cmp    $0xffffffffffffffda,%rax
    4000294a:	0f 85 38 ff ff ff    	jne    40002888 <alloc_rev+0x18>
    40002950:	b9 01 00 00 00       	mov    $0x1,%ecx
    40002955:	ba 01 00 00 00       	mov    $0x1,%edx
    4000295a:	4c 89 fe             	mov    %r15,%rsi
    4000295d:	bf ca 00 00 00       	mov    $0xca,%edi
    40002962:	e8 8f 77 00 00       	callq  4000a0f6 <ocall_syscall3>
    40002967:	e9 1c ff ff ff       	jmpq   40002888 <alloc_rev+0x18>
    4000296c:	0f 1f 40 00          	nopl   0x0(%rax)
    40002970:	48 89 c5             	mov    %rax,%rbp
    40002973:	40 f6 c5 01          	test   $0x1,%bpl
    40002977:	0f 84 1d ff ff ff    	je     4000289a <alloc_rev+0x2a>
    4000297d:	48 83 c4 18          	add    $0x18,%rsp
    40002981:	31 c0                	xor    %eax,%eax
    40002983:	5b                   	pop    %rbx
    40002984:	5d                   	pop    %rbp
    40002985:	41 5c                	pop    %r12
    40002987:	41 5d                	pop    %r13
    40002989:	41 5e                	pop    %r14
    4000298b:	41 5f                	pop    %r15
    4000298d:	c3                   	retq   
    4000298e:	66 90                	xchg   %ax,%ax
    40002990:	b8 01 00 00 00       	mov    $0x1,%eax
    40002995:	41 87 44 24 08       	xchg   %eax,0x8(%r12)
    4000299a:	85 c0                	test   %eax,%eax
    4000299c:	4d 8d 6c 24 0c       	lea    0xc(%r12),%r13
    400029a1:	74 26                	je     400029c9 <alloc_rev+0x159>
    400029a3:	0f 1f 44 00 00       	nopl   0x0(%rax,%rax,1)
    400029a8:	b9 01 00 00 00       	mov    $0x1,%ecx
    400029ad:	ba 01 00 00 00       	mov    $0x1,%edx
    400029b2:	4c 89 ee             	mov    %r13,%rsi
    400029b5:	4c 89 ff             	mov    %r15,%rdi
    400029b8:	e8 31 37 00 00       	callq  400060ee <__wait>
    400029bd:	b8 01 00 00 00       	mov    $0x1,%eax
    400029c2:	41 87 07             	xchg   %eax,(%r15)
    400029c5:	85 c0                	test   %eax,%eax
    400029c7:	75 df                	jne    400029a8 <alloc_rev+0x138>
    400029c9:	48 8b 44 24 08       	mov    0x8(%rsp),%rax
    400029ce:	48 8b 00             	mov    (%rax),%rax
    400029d1:	e9 1b ff ff ff       	jmpq   400028f1 <alloc_rev+0x81>
    400029d6:	66 2e 0f 1f 84 00 00 	nopw   %cs:0x0(%rax,%rax,1)
    400029dd:	00 00 00 
    400029e0:	48 c1 e8 03          	shr    $0x3,%rax
    400029e4:	44 0f b6 b0 5c 03 40 	movzbl 0x4040035c(%rax),%r14d
    400029eb:	40 
    400029ec:	e9 db fe ff ff       	jmpq   400028cc <alloc_rev+0x5c>
    400029f1:	0f 1f 80 00 00 00 00 	nopl   0x0(%rax)
    400029f8:	48 8d 74 5b fe       	lea    -0x2(%rbx,%rbx,2),%rsi
    400029fd:	48 39 c5             	cmp    %rax,%rbp
    40002a00:	48 8d 34 f5 70 4b 40 	lea    0x40404b70(,%rsi,8),%rsi
    40002a07:	40 
    40002a08:	48 89 b1 78 4b 40 40 	mov    %rsi,0x40404b78(%rcx)
    40002a0f:	48 89 b1 70 4b 40 40 	mov    %rsi,0x40404b70(%rcx)
    40002a16:	0f 85 f4 fe ff ff    	jne    40002910 <alloc_rev+0xa0>
    40002a1c:	48 8b 74 24 08       	mov    0x8(%rsp),%rsi
    40002a21:	48 83 e5 fe          	and    $0xfffffffffffffffe,%rbp
    40002a25:	48 29 ee             	sub    %rbp,%rsi
    40002a28:	48 8b 46 18          	mov    0x18(%rsi),%rax
    40002a2c:	48 8b 56 10          	mov    0x10(%rsi),%rdx
    40002a30:	48 39 d0             	cmp    %rdx,%rax
    40002a33:	0f 84 a2 00 00 00    	je     40002adb <alloc_rev+0x26b>
    40002a39:	48 89 50 10          	mov    %rdx,0x10(%rax)
    40002a3d:	48 8b 56 10          	mov    0x10(%rsi),%rdx
    40002a41:	48 89 42 18          	mov    %rax,0x18(%rdx)
    40002a45:	48 8b 46 08          	mov    0x8(%rsi),%rax
    40002a49:	48 89 c2             	mov    %rax,%rdx
    40002a4c:	48 83 e0 fe          	and    $0xfffffffffffffffe,%rax
    40002a50:	48 83 ca 01          	or     $0x1,%rdx
    40002a54:	48 89 56 08          	mov    %rdx,0x8(%rsi)
    40002a58:	48 83 0c 06 01       	orq    $0x1,(%rsi,%rax,1)
    40002a5d:	41 8b 07             	mov    (%r15),%eax
    40002a60:	85 c0                	test   %eax,%eax
    40002a62:	74 12                	je     40002a76 <alloc_rev+0x206>
    40002a64:	31 c0                	xor    %eax,%eax
    40002a66:	41 89 07             	mov    %eax,(%r15)
    40002a69:	f0 83 0c 24 00       	lock orl $0x0,(%rsp)
    40002a6e:	41 8b 47 04          	mov    0x4(%r15),%eax
    40002a72:	85 c0                	test   %eax,%eax
    40002a74:	75 2f                	jne    40002aa5 <alloc_rev+0x235>
    40002a76:	48 83 c4 18          	add    $0x18,%rsp
    40002a7a:	b8 01 00 00 00       	mov    $0x1,%eax
    40002a7f:	5b                   	pop    %rbx
    40002a80:	5d                   	pop    %rbp
    40002a81:	41 5c                	pop    %r12
    40002a83:	41 5d                	pop    %r13
    40002a85:	41 5e                	pop    %r14
    40002a87:	41 5f                	pop    %r15
    40002a89:	c3                   	retq   
    40002a8a:	66 0f 1f 44 00 00    	nopw   0x0(%rax,%rax,1)
    40002a90:	48 c1 e8 07          	shr    $0x7,%rax
    40002a94:	44 0f b6 b0 5c 03 40 	movzbl 0x4040035c(%rax),%r14d
    40002a9b:	40 
    40002a9c:	41 83 c6 10          	add    $0x10,%r14d
    40002aa0:	e9 27 fe ff ff       	jmpq   400028cc <alloc_rev+0x5c>
    40002aa5:	b9 01 00 00 00       	mov    $0x1,%ecx
    40002aaa:	ba 81 00 00 00       	mov    $0x81,%edx
    40002aaf:	4c 89 fe             	mov    %r15,%rsi
    40002ab2:	bf ca 00 00 00       	mov    $0xca,%edi
    40002ab7:	e8 3a 76 00 00       	callq  4000a0f6 <ocall_syscall3>
    40002abc:	48 83 f8 da          	cmp    $0xffffffffffffffda,%rax
    40002ac0:	75 b4                	jne    40002a76 <alloc_rev+0x206>
    40002ac2:	b9 01 00 00 00       	mov    $0x1,%ecx
    40002ac7:	ba 01 00 00 00       	mov    $0x1,%edx
    40002acc:	4c 89 fe             	mov    %r15,%rsi
    40002acf:	bf ca 00 00 00       	mov    $0xca,%edi
    40002ad4:	e8 1d 76 00 00       	callq  4000a0f6 <ocall_syscall3>
    40002ad9:	eb 9b                	jmp    40002a76 <alloc_rev+0x206>
    40002adb:	44 89 f1             	mov    %r14d,%ecx
    40002ade:	48 c7 c0 fe ff ff ff 	mov    $0xfffffffffffffffe,%rax
    40002ae5:	48 d3 c0             	rol    %cl,%rax
    40002ae8:	f0 48 21 05 70 20 40 	lock and %rax,0x402070(%rip)        # 40404b60 <mal>
    40002aef:	00 
    40002af0:	48 8b 46 18          	mov    0x18(%rsi),%rax
    40002af4:	48 8b 56 10          	mov    0x10(%rsi),%rdx
    40002af8:	e9 3c ff ff ff       	jmpq   40002a39 <alloc_rev+0x1c9>
    40002afd:	0f 1f 00             	nopl   (%rax)

0000000040002b00 <free>:
    40002b00:	41 57                	push   %r15
    40002b02:	41 56                	push   %r14
    40002b04:	41 55                	push   %r13
    40002b06:	41 54                	push   %r12
    40002b08:	55                   	push   %rbp
    40002b09:	53                   	push   %rbx
    40002b0a:	48 8d 5f f0          	lea    -0x10(%rdi),%rbx
    40002b0e:	48 83 ec 38          	sub    $0x38,%rsp
    40002b12:	48 85 ff             	test   %rdi,%rdi
    40002b15:	0f 84 cd 02 00 00    	je     40002de8 <free+0x2e8>
    40002b1b:	48 8b 47 f8          	mov    -0x8(%rdi),%rax
    40002b1f:	a8 01                	test   $0x1,%al
    40002b21:	0f 84 d9 02 00 00    	je     40002e00 <free+0x300>
    40002b27:	48 89 c1             	mov    %rax,%rcx
    40002b2a:	48 83 e1 fe          	and    $0xfffffffffffffffe,%rcx
    40002b2e:	4c 8d 24 0b          	lea    (%rbx,%rcx,1),%r12
    40002b32:	48 89 4c 24 28       	mov    %rcx,0x28(%rsp)
    40002b37:	49 3b 04 24          	cmp    (%r12),%rax
    40002b3b:	74 01                	je     40002b3e <free+0x3e>
    40002b3d:	f4                   	hlt    
    40002b3e:	4c 8b 74 24 28       	mov    0x28(%rsp),%r14
    40002b43:	c7 44 24 24 00 00 00 	movl   $0x0,0x24(%rsp)
    40002b4a:	00 
    40002b4b:	0f 1f 44 00 00       	nopl   0x0(%rax,%rax,1)
    40002b50:	48 8b 03             	mov    (%rbx),%rax
    40002b53:	49 23 44 24 08       	and    0x8(%r12),%rax
    40002b58:	a8 01                	test   $0x1,%al
    40002b5a:	0f 84 e4 00 00 00    	je     40002c44 <free+0x144>
    40002b60:	4c 89 f0             	mov    %r14,%rax
    40002b63:	48 83 c8 01          	or     $0x1,%rax
    40002b67:	48 89 43 08          	mov    %rax,0x8(%rbx)
    40002b6b:	49 89 04 24          	mov    %rax,(%r12)
    40002b6f:	4c 89 f0             	mov    %r14,%rax
    40002b72:	48 c1 e8 05          	shr    $0x5,%rax
    40002b76:	48 83 e8 01          	sub    $0x1,%rax
    40002b7a:	48 83 f8 20          	cmp    $0x20,%rax
    40002b7e:	0f 86 ba 02 00 00    	jbe    40002e3e <free+0x33e>
    40002b84:	48 3d ff 01 00 00    	cmp    $0x1ff,%rax
    40002b8a:	0f 86 60 03 00 00    	jbe    40002ef0 <free+0x3f0>
    40002b90:	48 3d 00 1c 00 00    	cmp    $0x1c00,%rax
    40002b96:	c7 44 24 10 3f 00 00 	movl   $0x3f,0x10(%rsp)
    40002b9d:	00 
    40002b9e:	0f 86 8c 02 00 00    	jbe    40002e30 <free+0x330>
    40002ba4:	4c 63 6c 24 10       	movslq 0x10(%rsp),%r13
    40002ba9:	4b 8d 44 6d 00       	lea    0x0(%r13,%r13,2),%rax
    40002bae:	4c 8d 3c c5 60 4b 40 	lea    0x40404b60(,%rax,8),%r15
    40002bb5:	40 
    40002bb6:	8b 05 f0 2c 40 00    	mov    0x402cf0(%rip),%eax        # 404058ac <__libc+0xc>
    40002bbc:	49 8d 6f 08          	lea    0x8(%r15),%rbp
    40002bc0:	85 c0                	test   %eax,%eax
    40002bc2:	0f 85 d8 02 00 00    	jne    40002ea0 <free+0x3a0>
    40002bc8:	4b 8d 54 6d 00       	lea    0x0(%r13,%r13,2),%rdx
    40002bcd:	48 c1 e2 03          	shl    $0x3,%rdx
    40002bd1:	48 8d 82 60 4b 40 40 	lea    0x40404b60(%rdx),%rax
    40002bd8:	48 83 78 10 00       	cmpq   $0x0,0x10(%rax)
    40002bdd:	0f 84 ad 03 00 00    	je     40002f90 <free+0x490>
    40002be3:	8b 05 c3 2c 40 00    	mov    0x402cc3(%rip),%eax        # 404058ac <__libc+0xc>
    40002be9:	85 c0                	test   %eax,%eax
    40002beb:	0f 85 5f 02 00 00    	jne    40002e50 <free+0x350>
    40002bf1:	48 8b 03             	mov    (%rbx),%rax
    40002bf4:	49 23 44 24 08       	and    0x8(%r12),%rax
    40002bf9:	a8 01                	test   $0x1,%al
    40002bfb:	0f 85 e7 00 00 00    	jne    40002ce8 <free+0x1e8>
    40002c01:	8b 05 61 25 40 00    	mov    0x402561(%rip),%eax        # 40405168 <mal+0x608>
    40002c07:	85 c0                	test   %eax,%eax
    40002c09:	74 1b                	je     40002c26 <free+0x126>
    40002c0b:	31 c0                	xor    %eax,%eax
    40002c0d:	89 05 55 25 40 00    	mov    %eax,0x402555(%rip)        # 40405168 <mal+0x608>
    40002c13:	f0 83 0c 24 00       	lock orl $0x0,(%rsp)
    40002c18:	8b 05 4e 25 40 00    	mov    0x40254e(%rip),%eax        # 4040516c <mal+0x60c>
    40002c1e:	85 c0                	test   %eax,%eax
    40002c20:	0f 85 e2 02 00 00    	jne    40002f08 <free+0x408>
    40002c26:	41 8b 47 08          	mov    0x8(%r15),%eax
    40002c2a:	85 c0                	test   %eax,%eax
    40002c2c:	74 16                	je     40002c44 <free+0x144>
    40002c2e:	31 c0                	xor    %eax,%eax
    40002c30:	41 89 47 08          	mov    %eax,0x8(%r15)
    40002c34:	f0 83 0c 24 00       	lock orl $0x0,(%rsp)
    40002c39:	8b 45 04             	mov    0x4(%rbp),%eax
    40002c3c:	85 c0                	test   %eax,%eax
    40002c3e:	0f 85 0c 03 00 00    	jne    40002f50 <free+0x450>
    40002c44:	48 89 df             	mov    %rbx,%rdi
    40002c47:	e8 24 fc ff ff       	callq  40002870 <alloc_rev>
    40002c4c:	85 c0                	test   %eax,%eax
    40002c4e:	74 3b                	je     40002c8b <free+0x18b>
    40002c50:	48 8b 03             	mov    (%rbx),%rax
    40002c53:	48 8b 4c 24 28       	mov    0x28(%rsp),%rcx
    40002c58:	48 83 e0 fe          	and    $0xfffffffffffffffe,%rax
    40002c5c:	48 29 c3             	sub    %rax,%rbx
    40002c5f:	48 8b 43 08          	mov    0x8(%rbx),%rax
    40002c63:	48 83 e0 fe          	and    $0xfffffffffffffffe,%rax
    40002c67:	48 8d 14 08          	lea    (%rax,%rcx,1),%rdx
    40002c6b:	49 01 c6             	add    %rax,%r14
    40002c6e:	48 81 fa 00 80 02 00 	cmp    $0x28000,%rdx
    40002c75:	76 14                	jbe    40002c8b <free+0x18b>
    40002c77:	48 31 c2             	xor    %rax,%rdx
    40002c7a:	48 39 d0             	cmp    %rdx,%rax
    40002c7d:	b8 01 00 00 00       	mov    $0x1,%eax
    40002c82:	0f 43 44 24 24       	cmovae 0x24(%rsp),%eax
    40002c87:	89 44 24 24          	mov    %eax,0x24(%rsp)
    40002c8b:	4c 89 e7             	mov    %r12,%rdi
    40002c8e:	e8 4d f9 ff ff       	callq  400025e0 <alloc_fwd>
    40002c93:	85 c0                	test   %eax,%eax
    40002c95:	0f 84 b5 fe ff ff    	je     40002b50 <free+0x50>
    40002c9b:	49 8b 44 24 08       	mov    0x8(%r12),%rax
    40002ca0:	48 8b 4c 24 28       	mov    0x28(%rsp),%rcx
    40002ca5:	48 83 e0 fe          	and    $0xfffffffffffffffe,%rax
    40002ca9:	48 8d 14 08          	lea    (%rax,%rcx,1),%rdx
    40002cad:	49 01 c6             	add    %rax,%r14
    40002cb0:	48 81 fa 00 80 02 00 	cmp    $0x28000,%rdx
    40002cb7:	76 14                	jbe    40002ccd <free+0x1cd>
    40002cb9:	48 31 c2             	xor    %rax,%rdx
    40002cbc:	48 39 d0             	cmp    %rdx,%rax
    40002cbf:	ba 01 00 00 00       	mov    $0x1,%edx
    40002cc4:	0f 43 54 24 24       	cmovae 0x24(%rsp),%edx
    40002cc9:	89 54 24 24          	mov    %edx,0x24(%rsp)
    40002ccd:	49 01 c4             	add    %rax,%r12
    40002cd0:	48 8b 03             	mov    (%rbx),%rax
    40002cd3:	49 23 44 24 08       	and    0x8(%r12),%rax
    40002cd8:	a8 01                	test   $0x1,%al
    40002cda:	0f 85 80 fe ff ff    	jne    40002b60 <free+0x60>
    40002ce0:	e9 5f ff ff ff       	jmpq   40002c44 <free+0x144>
    40002ce5:	0f 1f 00             	nopl   (%rax)
    40002ce8:	48 8b 05 71 1e 40 00 	mov    0x401e71(%rip),%rax        # 40404b60 <mal>
    40002cef:	48 8b 7c 24 10       	mov    0x10(%rsp),%rdi
    40002cf4:	48 0f a3 f8          	bt     %rdi,%rax
    40002cf8:	72 15                	jb     40002d0f <free+0x20f>
    40002cfa:	0f b6 4c 24 10       	movzbl 0x10(%rsp),%ecx
    40002cff:	b8 01 00 00 00       	mov    $0x1,%eax
    40002d04:	48 d3 e0             	shl    %cl,%rax
    40002d07:	f0 48 09 05 51 1e 40 	lock or %rax,0x401e51(%rip)        # 40404b60 <mal>
    40002d0e:	00 
    40002d0f:	8b 05 53 24 40 00    	mov    0x402453(%rip),%eax        # 40405168 <mal+0x608>
    40002d15:	4c 89 73 08          	mov    %r14,0x8(%rbx)
    40002d19:	4d 89 34 24          	mov    %r14,(%r12)
    40002d1d:	85 c0                	test   %eax,%eax
    40002d1f:	74 4f                	je     40002d70 <free+0x270>
    40002d21:	31 c0                	xor    %eax,%eax
    40002d23:	89 05 3f 24 40 00    	mov    %eax,0x40243f(%rip)        # 40405168 <mal+0x608>
    40002d29:	f0 83 0c 24 00       	lock orl $0x0,(%rsp)
    40002d2e:	8b 05 38 24 40 00    	mov    0x402438(%rip),%eax        # 4040516c <mal+0x60c>
    40002d34:	85 c0                	test   %eax,%eax
    40002d36:	74 38                	je     40002d70 <free+0x270>
    40002d38:	b9 01 00 00 00       	mov    $0x1,%ecx
    40002d3d:	ba 81 00 00 00       	mov    $0x81,%edx
    40002d42:	be 68 51 40 40       	mov    $0x40405168,%esi
    40002d47:	bf ca 00 00 00       	mov    $0xca,%edi
    40002d4c:	e8 a5 73 00 00       	callq  4000a0f6 <ocall_syscall3>
    40002d51:	48 83 f8 da          	cmp    $0xffffffffffffffda,%rax
    40002d55:	75 19                	jne    40002d70 <free+0x270>
    40002d57:	b9 01 00 00 00       	mov    $0x1,%ecx
    40002d5c:	ba 01 00 00 00       	mov    $0x1,%edx
    40002d61:	be 68 51 40 40       	mov    $0x40405168,%esi
    40002d66:	bf ca 00 00 00       	mov    $0xca,%edi
    40002d6b:	e8 86 73 00 00       	callq  4000a0f6 <ocall_syscall3>
    40002d70:	4b 8d 54 6d 00       	lea    0x0(%r13,%r13,2),%rdx
    40002d75:	4b 8d 44 6d fe       	lea    -0x2(%r13,%r13,2),%rax
    40002d7a:	48 8b 14 d5 78 4b 40 	mov    0x40404b78(,%rdx,8),%rdx
    40002d81:	40 
    40002d82:	48 8d 04 c5 70 4b 40 	lea    0x40404b70(,%rax,8),%rax
    40002d89:	40 
    40002d8a:	48 89 43 10          	mov    %rax,0x10(%rbx)
    40002d8e:	48 89 53 18          	mov    %rdx,0x18(%rbx)
    40002d92:	48 89 58 18          	mov    %rbx,0x18(%rax)
    40002d96:	48 8b 43 18          	mov    0x18(%rbx),%rax
    40002d9a:	48 89 58 10          	mov    %rbx,0x10(%rax)
    40002d9e:	8b 44 24 24          	mov    0x24(%rsp),%eax
    40002da2:	85 c0                	test   %eax,%eax
    40002da4:	0f 85 03 02 00 00    	jne    40002fad <free+0x4ad>
    40002daa:	8b 45 00             	mov    0x0(%rbp),%eax
    40002dad:	85 c0                	test   %eax,%eax
    40002daf:	74 37                	je     40002de8 <free+0x2e8>
    40002db1:	31 c0                	xor    %eax,%eax
    40002db3:	89 45 00             	mov    %eax,0x0(%rbp)
    40002db6:	f0 83 0c 24 00       	lock orl $0x0,(%rsp)
    40002dbb:	8b 45 04             	mov    0x4(%rbp),%eax
    40002dbe:	85 c0                	test   %eax,%eax
    40002dc0:	74 26                	je     40002de8 <free+0x2e8>
    40002dc2:	b9 01 00 00 00       	mov    $0x1,%ecx
    40002dc7:	ba 81 00 00 00       	mov    $0x81,%edx
    40002dcc:	48 89 ee             	mov    %rbp,%rsi
    40002dcf:	bf ca 00 00 00       	mov    $0xca,%edi
    40002dd4:	e8 1d 73 00 00       	callq  4000a0f6 <ocall_syscall3>
    40002dd9:	48 83 f8 da          	cmp    $0xffffffffffffffda,%rax
    40002ddd:	0f 84 f6 01 00 00    	je     40002fd9 <free+0x4d9>
    40002de3:	0f 1f 44 00 00       	nopl   0x0(%rax,%rax,1)
    40002de8:	48 83 c4 38          	add    $0x38,%rsp
    40002dec:	5b                   	pop    %rbx
    40002ded:	5d                   	pop    %rbp
    40002dee:	41 5c                	pop    %r12
    40002df0:	41 5d                	pop    %r13
    40002df2:	41 5e                	pop    %r14
    40002df4:	41 5f                	pop    %r15
    40002df6:	c3                   	retq   
    40002df7:	66 0f 1f 84 00 00 00 	nopw   0x0(%rax,%rax,1)
    40002dfe:	00 00 
    40002e00:	48 8b 57 f0          	mov    -0x10(%rdi),%rdx
    40002e04:	48 83 e0 fe          	and    $0xfffffffffffffffe,%rax
    40002e08:	48 29 d3             	sub    %rdx,%rbx
    40002e0b:	48 8d 34 10          	lea    (%rax,%rdx,1),%rsi
    40002e0f:	83 e2 01             	and    $0x1,%edx
    40002e12:	48 89 df             	mov    %rbx,%rdi
    40002e15:	74 01                	je     40002e18 <free+0x318>
    40002e17:	f4                   	hlt    
    40002e18:	48 83 c4 38          	add    $0x38,%rsp
    40002e1c:	5b                   	pop    %rbx
    40002e1d:	5d                   	pop    %rbp
    40002e1e:	41 5c                	pop    %r12
    40002e20:	41 5d                	pop    %r13
    40002e22:	41 5e                	pop    %r14
    40002e24:	41 5f                	pop    %r15
    40002e26:	e9 44 0c 00 00       	jmpq   40003a6f <__munmap>
    40002e2b:	0f 1f 44 00 00       	nopl   0x0(%rax,%rax,1)
    40002e30:	48 c1 e8 07          	shr    $0x7,%rax
    40002e34:	0f b6 80 5c 03 40 40 	movzbl 0x4040035c(%rax),%eax
    40002e3b:	83 c0 10             	add    $0x10,%eax
    40002e3e:	89 44 24 10          	mov    %eax,0x10(%rsp)
    40002e42:	e9 5d fd ff ff       	jmpq   40002ba4 <free+0xa4>
    40002e47:	66 0f 1f 84 00 00 00 	nopw   0x0(%rax,%rax,1)
    40002e4e:	00 00 
    40002e50:	b8 01 00 00 00       	mov    $0x1,%eax
    40002e55:	87 05 0d 23 40 00    	xchg   %eax,0x40230d(%rip)        # 40405168 <mal+0x608>
    40002e5b:	85 c0                	test   %eax,%eax
    40002e5d:	0f 84 8e fd ff ff    	je     40002bf1 <free+0xf1>
    40002e63:	0f 1f 44 00 00       	nopl   0x0(%rax,%rax,1)
    40002e68:	b9 01 00 00 00       	mov    $0x1,%ecx
    40002e6d:	ba 01 00 00 00       	mov    $0x1,%edx
    40002e72:	be 6c 51 40 40       	mov    $0x4040516c,%esi
    40002e77:	bf 68 51 40 40       	mov    $0x40405168,%edi
    40002e7c:	e8 6d 32 00 00       	callq  400060ee <__wait>
    40002e81:	b8 01 00 00 00       	mov    $0x1,%eax
    40002e86:	be 60 4b 40 40       	mov    $0x40404b60,%esi
    40002e8b:	87 86 08 06 00 00    	xchg   %eax,0x608(%rsi)
    40002e91:	85 c0                	test   %eax,%eax
    40002e93:	75 d3                	jne    40002e68 <free+0x368>
    40002e95:	e9 57 fd ff ff       	jmpq   40002bf1 <free+0xf1>
    40002e9a:	66 0f 1f 44 00 00    	nopw   0x0(%rax,%rax,1)
    40002ea0:	b8 01 00 00 00       	mov    $0x1,%eax
    40002ea5:	41 87 47 08          	xchg   %eax,0x8(%r15)
    40002ea9:	85 c0                	test   %eax,%eax
    40002eab:	0f 84 17 fd ff ff    	je     40002bc8 <free+0xc8>
    40002eb1:	49 8d 47 0c          	lea    0xc(%r15),%rax
    40002eb5:	48 89 44 24 08       	mov    %rax,0x8(%rsp)
    40002eba:	66 0f 1f 44 00 00    	nopw   0x0(%rax,%rax,1)
    40002ec0:	48 8b 74 24 08       	mov    0x8(%rsp),%rsi
    40002ec5:	b9 01 00 00 00       	mov    $0x1,%ecx
    40002eca:	ba 01 00 00 00       	mov    $0x1,%edx
    40002ecf:	48 89 ef             	mov    %rbp,%rdi
    40002ed2:	e8 17 32 00 00       	callq  400060ee <__wait>
    40002ed7:	b8 01 00 00 00       	mov    $0x1,%eax
    40002edc:	87 45 00             	xchg   %eax,0x0(%rbp)
    40002edf:	85 c0                	test   %eax,%eax
    40002ee1:	75 dd                	jne    40002ec0 <free+0x3c0>
    40002ee3:	e9 e0 fc ff ff       	jmpq   40002bc8 <free+0xc8>
    40002ee8:	0f 1f 84 00 00 00 00 	nopl   0x0(%rax,%rax,1)
    40002eef:	00 
    40002ef0:	48 c1 e8 03          	shr    $0x3,%rax
    40002ef4:	0f b6 80 5c 03 40 40 	movzbl 0x4040035c(%rax),%eax
    40002efb:	89 44 24 10          	mov    %eax,0x10(%rsp)
    40002eff:	e9 a0 fc ff ff       	jmpq   40002ba4 <free+0xa4>
    40002f04:	0f 1f 40 00          	nopl   0x0(%rax)
    40002f08:	b9 01 00 00 00       	mov    $0x1,%ecx
    40002f0d:	ba 81 00 00 00       	mov    $0x81,%edx
    40002f12:	be 68 51 40 40       	mov    $0x40405168,%esi
    40002f17:	bf ca 00 00 00       	mov    $0xca,%edi
    40002f1c:	e8 d5 71 00 00       	callq  4000a0f6 <ocall_syscall3>
    40002f21:	48 83 f8 da          	cmp    $0xffffffffffffffda,%rax
    40002f25:	0f 85 fb fc ff ff    	jne    40002c26 <free+0x126>
    40002f2b:	b9 01 00 00 00       	mov    $0x1,%ecx
    40002f30:	ba 01 00 00 00       	mov    $0x1,%edx
    40002f35:	be 68 51 40 40       	mov    $0x40405168,%esi
    40002f3a:	bf ca 00 00 00       	mov    $0xca,%edi
    40002f3f:	e8 b2 71 00 00       	callq  4000a0f6 <ocall_syscall3>
    40002f44:	e9 dd fc ff ff       	jmpq   40002c26 <free+0x126>
    40002f49:	0f 1f 80 00 00 00 00 	nopl   0x0(%rax)
    40002f50:	b9 01 00 00 00       	mov    $0x1,%ecx
    40002f55:	ba 81 00 00 00       	mov    $0x81,%edx
    40002f5a:	48 89 ee             	mov    %rbp,%rsi
    40002f5d:	bf ca 00 00 00       	mov    $0xca,%edi
    40002f62:	e8 8f 71 00 00       	callq  4000a0f6 <ocall_syscall3>
    40002f67:	48 83 f8 da          	cmp    $0xffffffffffffffda,%rax
    40002f6b:	0f 85 d3 fc ff ff    	jne    40002c44 <free+0x144>
    40002f71:	b9 01 00 00 00       	mov    $0x1,%ecx
    40002f76:	ba 01 00 00 00       	mov    $0x1,%edx
    40002f7b:	48 89 ee             	mov    %rbp,%rsi
    40002f7e:	bf ca 00 00 00       	mov    $0xca,%edi
    40002f83:	e8 6e 71 00 00       	callq  4000a0f6 <ocall_syscall3>
    40002f88:	e9 b7 fc ff ff       	jmpq   40002c44 <free+0x144>
    40002f8d:	0f 1f 00             	nopl   (%rax)
    40002f90:	4b 8d 4c 6d fe       	lea    -0x2(%r13,%r13,2),%rcx
    40002f95:	48 8d 0c cd 70 4b 40 	lea    0x40404b70(,%rcx,8),%rcx
    40002f9c:	40 
    40002f9d:	48 89 8a 78 4b 40 40 	mov    %rcx,0x40404b78(%rdx)
    40002fa4:	48 89 48 10          	mov    %rcx,0x10(%rax)
    40002fa8:	e9 36 fc ff ff       	jmpq   40002be3 <free+0xe3>
    40002fad:	48 8d bb 1f 10 00 00 	lea    0x101f(%rbx),%rdi
    40002fb4:	49 8d 74 24 e0       	lea    -0x20(%r12),%rsi
    40002fb9:	ba 04 00 00 00       	mov    $0x4,%edx
    40002fbe:	48 81 e7 00 f0 ff ff 	and    $0xfffffffffffff000,%rdi
    40002fc5:	48 81 e6 00 f0 ff ff 	and    $0xfffffffffffff000,%rsi
    40002fcc:	48 29 fe             	sub    %rdi,%rsi
    40002fcf:	e8 3b 09 00 00       	callq  4000390f <__madvise>
    40002fd4:	e9 d1 fd ff ff       	jmpq   40002daa <free+0x2aa>
    40002fd9:	48 83 c4 38          	add    $0x38,%rsp
    40002fdd:	48 89 ee             	mov    %rbp,%rsi
    40002fe0:	b9 01 00 00 00       	mov    $0x1,%ecx
    40002fe5:	5b                   	pop    %rbx
    40002fe6:	5d                   	pop    %rbp
    40002fe7:	41 5c                	pop    %r12
    40002fe9:	41 5d                	pop    %r13
    40002feb:	41 5e                	pop    %r14
    40002fed:	41 5f                	pop    %r15
    40002fef:	ba 01 00 00 00       	mov    $0x1,%edx
    40002ff4:	bf ca 00 00 00       	mov    $0xca,%edi
    40002ff9:	e9 f8 70 00 00       	jmpq   4000a0f6 <ocall_syscall3>
    40002ffe:	66 90                	xchg   %ax,%ax

0000000040003000 <malloc>:
    40003000:	41 57                	push   %r15
    40003002:	48 8d 57 ff          	lea    -0x1(%rdi),%rdx
    40003006:	48 b8 df ef ff ff ff 	movabs $0x7fffffffffffefdf,%rax
    4000300d:	ff ff 7f 
    40003010:	41 56                	push   %r14
    40003012:	41 55                	push   %r13
    40003014:	41 54                	push   %r12
    40003016:	55                   	push   %rbp
    40003017:	53                   	push   %rbx
    40003018:	48 83 ec 28          	sub    $0x28,%rsp
    4000301c:	48 39 c2             	cmp    %rax,%rdx
    4000301f:	0f 86 e3 01 00 00    	jbe    40003208 <malloc+0x208>
    40003025:	48 85 ff             	test   %rdi,%rdi
    40003028:	0f 85 70 05 00 00    	jne    4000359e <malloc+0x59e>
    4000302e:	48 c7 04 24 20 00 00 	movq   $0x20,(%rsp)
    40003035:	00 
    40003036:	45 31 ff             	xor    %r15d,%r15d
    40003039:	44 89 7c 24 0c       	mov    %r15d,0xc(%rsp)
    4000303e:	0f b6 4c 24 0c       	movzbl 0xc(%rsp),%ecx
    40003043:	49 c7 c4 ff ff ff ff 	mov    $0xffffffffffffffff,%r12
    4000304a:	49 d3 e4             	shl    %cl,%r12
    4000304d:	0f 1f 00             	nopl   (%rax)
    40003050:	4c 8b 0d 09 1b 40 00 	mov    0x401b09(%rip),%r9        # 40404b60 <mal>
    40003057:	4d 21 e1             	and    %r12,%r9
    4000305a:	0f 84 c0 00 00 00    	je     40003120 <malloc+0x120>
    40003060:	4d 0f bc c9          	bsf    %r9,%r9
    40003064:	4d 63 f1             	movslq %r9d,%r14
    40003067:	45 89 cd             	mov    %r9d,%r13d
    4000306a:	4b 8d 04 76          	lea    (%r14,%r14,2),%rax
    4000306e:	48 8d 1c c5 60 4b 40 	lea    0x40404b60(,%rax,8),%rbx
    40003075:	40 
    40003076:	8b 05 30 28 40 00    	mov    0x402830(%rip),%eax        # 404058ac <__libc+0xc>
    4000307c:	4c 8d 7b 08          	lea    0x8(%rbx),%r15
    40003080:	85 c0                	test   %eax,%eax
    40003082:	0f 85 38 02 00 00    	jne    400032c0 <malloc+0x2c0>
    40003088:	4b 8d 14 76          	lea    (%r14,%r14,2),%rdx
    4000308c:	48 c1 e2 03          	shl    $0x3,%rdx
    40003090:	48 8d 82 60 4b 40 40 	lea    0x40404b60(%rdx),%rax
    40003097:	48 8b 68 10          	mov    0x10(%rax),%rbp
    4000309b:	48 85 ed             	test   %rbp,%rbp
    4000309e:	0f 84 5c 02 00 00    	je     40003300 <malloc+0x300>
    400030a4:	4b 8d 44 76 fe       	lea    -0x2(%r14,%r14,2),%rax
    400030a9:	48 8d 04 c5 70 4b 40 	lea    0x40404b70(,%rax,8),%rax
    400030b0:	40 
    400030b1:	48 39 c5             	cmp    %rax,%rbp
    400030b4:	0f 85 66 02 00 00    	jne    40003320 <malloc+0x320>
    400030ba:	8b 43 08             	mov    0x8(%rbx),%eax
    400030bd:	85 c0                	test   %eax,%eax
    400030bf:	74 8f                	je     40003050 <malloc+0x50>
    400030c1:	31 c0                	xor    %eax,%eax
    400030c3:	89 43 08             	mov    %eax,0x8(%rbx)
    400030c6:	f0 83 0c 24 00       	lock orl $0x0,(%rsp)
    400030cb:	41 8b 47 04          	mov    0x4(%r15),%eax
    400030cf:	85 c0                	test   %eax,%eax
    400030d1:	0f 84 79 ff ff ff    	je     40003050 <malloc+0x50>
    400030d7:	b9 01 00 00 00       	mov    $0x1,%ecx
    400030dc:	ba 81 00 00 00       	mov    $0x81,%edx
    400030e1:	4c 89 fe             	mov    %r15,%rsi
    400030e4:	bf ca 00 00 00       	mov    $0xca,%edi
    400030e9:	e8 08 70 00 00       	callq  4000a0f6 <ocall_syscall3>
    400030ee:	48 83 f8 da          	cmp    $0xffffffffffffffda,%rax
    400030f2:	0f 85 58 ff ff ff    	jne    40003050 <malloc+0x50>
    400030f8:	b9 01 00 00 00       	mov    $0x1,%ecx
    400030fd:	ba 01 00 00 00       	mov    $0x1,%edx
    40003102:	4c 89 fe             	mov    %r15,%rsi
    40003105:	bf ca 00 00 00       	mov    $0xca,%edi
    4000310a:	e8 e7 6f 00 00       	callq  4000a0f6 <ocall_syscall3>
    4000310f:	4c 8b 0d 4a 1a 40 00 	mov    0x401a4a(%rip),%r9        # 40404b60 <mal>
    40003116:	4d 21 e1             	and    %r12,%r9
    40003119:	0f 85 41 ff ff ff    	jne    40003060 <malloc+0x60>
    4000311f:	90                   	nop
    40003120:	48 8b 04 24          	mov    (%rsp),%rax
    40003124:	48 83 c0 20          	add    $0x20,%rax
    40003128:	48 89 44 24 10       	mov    %rax,0x10(%rsp)
    4000312d:	8b 05 79 27 40 00    	mov    0x402779(%rip),%eax        # 404058ac <__libc+0xc>
    40003133:	85 c0                	test   %eax,%eax
    40003135:	0f 85 e2 03 00 00    	jne    4000351d <malloc+0x51d>
    4000313b:	48 8d 7c 24 10       	lea    0x10(%rsp),%rdi
    40003140:	e8 0b 31 00 00       	callq  40006250 <__expand_heap>
    40003145:	48 85 c0             	test   %rax,%rax
    40003148:	0f 84 72 04 00 00    	je     400035c0 <malloc+0x5c0>
    4000314e:	48 3b 05 fb 19 40 00 	cmp    0x4019fb(%rip),%rax        # 40404b50 <end.3333>
    40003155:	0f 84 02 04 00 00    	je     4000355d <malloc+0x55d>
    4000315b:	48 8b 74 24 10       	mov    0x10(%rsp),%rsi
    40003160:	48 8d 58 20          	lea    0x20(%rax),%rbx
    40003164:	48 c7 40 10 01 00 00 	movq   $0x1,0x10(%rax)
    4000316b:	00 
    4000316c:	48 8d 56 e0          	lea    -0x20(%rsi),%rdx
    40003170:	48 89 54 24 10       	mov    %rdx,0x10(%rsp)
    40003175:	48 8d 04 13          	lea    (%rbx,%rdx,1),%rax
    40003179:	48 83 ca 01          	or     $0x1,%rdx
    4000317d:	4c 8d 63 f0          	lea    -0x10(%rbx),%r12
    40003181:	48 89 50 f0          	mov    %rdx,-0x10(%rax)
    40003185:	48 c7 40 f8 01 00 00 	movq   $0x1,-0x8(%rax)
    4000318c:	00 
    4000318d:	48 89 05 bc 19 40 00 	mov    %rax,0x4019bc(%rip)        # 40404b50 <end.3333>
    40003194:	8b 05 be 19 40 00    	mov    0x4019be(%rip),%eax        # 40404b58 <heap_lock.3332>
    4000319a:	48 89 53 f8          	mov    %rdx,-0x8(%rbx)
    4000319e:	85 c0                	test   %eax,%eax
    400031a0:	74 1b                	je     400031bd <malloc+0x1bd>
    400031a2:	31 c0                	xor    %eax,%eax
    400031a4:	89 05 ae 19 40 00    	mov    %eax,0x4019ae(%rip)        # 40404b58 <heap_lock.3332>
    400031aa:	f0 83 0c 24 00       	lock orl $0x0,(%rsp)
    400031af:	8b 05 a7 19 40 00    	mov    0x4019a7(%rip),%eax        # 40404b5c <heap_lock.3332+0x4>
    400031b5:	85 c0                	test   %eax,%eax
    400031b7:	0f 85 c9 02 00 00    	jne    40003486 <malloc+0x486>
    400031bd:	4d 85 e4             	test   %r12,%r12
    400031c0:	0f 84 53 04 00 00    	je     40003619 <malloc+0x619>
    400031c6:	4c 89 e7             	mov    %r12,%rdi
    400031c9:	e8 a2 f6 ff ff       	callq  40002870 <alloc_rev>
    400031ce:	85 c0                	test   %eax,%eax
    400031d0:	0f 84 a4 02 00 00    	je     4000347a <malloc+0x47a>
    400031d6:	48 8b 43 f0          	mov    -0x10(%rbx),%rax
    400031da:	4c 89 e5             	mov    %r12,%rbp
    400031dd:	48 8b 53 f8          	mov    -0x8(%rbx),%rdx
    400031e1:	48 83 e0 fe          	and    $0xfffffffffffffffe,%rax
    400031e5:	48 29 c5             	sub    %rax,%rbp
    400031e8:	48 8b 45 08          	mov    0x8(%rbp),%rax
    400031ec:	48 83 e0 fe          	and    $0xfffffffffffffffe,%rax
    400031f0:	48 01 d0             	add    %rdx,%rax
    400031f3:	48 83 e2 fe          	and    $0xfffffffffffffffe,%rdx
    400031f7:	48 89 45 08          	mov    %rax,0x8(%rbp)
    400031fb:	49 89 04 14          	mov    %rax,(%r12,%rdx,1)
    400031ff:	e9 dd 01 00 00       	jmpq   400033e1 <malloc+0x3e1>
    40003204:	0f 1f 40 00          	nopl   0x0(%rax)
    40003208:	48 8d 47 2f          	lea    0x2f(%rdi),%rax
    4000320c:	48 89 04 24          	mov    %rax,(%rsp)
    40003210:	48 83 24 24 e0       	andq   $0xffffffffffffffe0,(%rsp)
    40003215:	48 81 3c 24 00 80 03 	cmpq   $0x38000,(%rsp)
    4000321c:	00 
    4000321d:	76 5c                	jbe    4000327b <malloc+0x27b>
    4000321f:	4c 8b 34 24          	mov    (%rsp),%r14
    40003223:	45 31 c9             	xor    %r9d,%r9d
    40003226:	31 ff                	xor    %edi,%edi
    40003228:	41 b8 ff ff ff ff    	mov    $0xffffffff,%r8d
    4000322e:	b9 22 00 00 00       	mov    $0x22,%ecx
    40003233:	ba 03 00 00 00       	mov    $0x3,%edx
    40003238:	49 81 c6 0f 10 00 00 	add    $0x100f,%r14
    4000323f:	49 81 e6 00 f0 ff ff 	and    $0xfffffffffffff000,%r14
    40003246:	4c 89 f6             	mov    %r14,%rsi
    40003249:	e8 e0 06 00 00       	callq  4000392e <__mmap>
    4000324e:	48 83 f8 ff          	cmp    $0xffffffffffffffff,%rax
    40003252:	0f 84 c1 03 00 00    	je     40003619 <malloc+0x619>
    40003258:	49 83 ee 10          	sub    $0x10,%r14
    4000325c:	48 c7 40 10 10 00 00 	movq   $0x10,0x10(%rax)
    40003263:	00 
    40003264:	48 83 c0 20          	add    $0x20,%rax
    40003268:	4c 89 70 f8          	mov    %r14,-0x8(%rax)
    4000326c:	48 83 c4 28          	add    $0x28,%rsp
    40003270:	5b                   	pop    %rbx
    40003271:	5d                   	pop    %rbp
    40003272:	41 5c                	pop    %r12
    40003274:	41 5d                	pop    %r13
    40003276:	41 5e                	pop    %r14
    40003278:	41 5f                	pop    %r15
    4000327a:	c3                   	retq   
    4000327b:	48 8b 04 24          	mov    (%rsp),%rax
    4000327f:	48 c1 e8 05          	shr    $0x5,%rax
    40003283:	4c 8d 78 ff          	lea    -0x1(%rax),%r15
    40003287:	49 83 ff 20          	cmp    $0x20,%r15
    4000328b:	0f 86 a8 fd ff ff    	jbe    40003039 <malloc+0x39>
    40003291:	48 83 e8 02          	sub    $0x2,%rax
    40003295:	48 3d ff 01 00 00    	cmp    $0x1ff,%rax
    4000329b:	0f 86 63 02 00 00    	jbe    40003504 <malloc+0x504>
    400032a1:	48 c1 e8 07          	shr    $0x7,%rax
    400032a5:	44 0f b6 b8 5c 03 40 	movzbl 0x4040035c(%rax),%r15d
    400032ac:	40 
    400032ad:	41 8d 47 11          	lea    0x11(%r15),%eax
    400032b1:	89 44 24 0c          	mov    %eax,0xc(%rsp)
    400032b5:	e9 84 fd ff ff       	jmpq   4000303e <malloc+0x3e>
    400032ba:	66 0f 1f 44 00 00    	nopw   0x0(%rax,%rax,1)
    400032c0:	b8 01 00 00 00       	mov    $0x1,%eax
    400032c5:	87 43 08             	xchg   %eax,0x8(%rbx)
    400032c8:	85 c0                	test   %eax,%eax
    400032ca:	0f 84 b8 fd ff ff    	je     40003088 <malloc+0x88>
    400032d0:	48 8d 6b 0c          	lea    0xc(%rbx),%rbp
    400032d4:	0f 1f 40 00          	nopl   0x0(%rax)
    400032d8:	b9 01 00 00 00       	mov    $0x1,%ecx
    400032dd:	ba 01 00 00 00       	mov    $0x1,%edx
    400032e2:	48 89 ee             	mov    %rbp,%rsi
    400032e5:	4c 89 ff             	mov    %r15,%rdi
    400032e8:	e8 01 2e 00 00       	callq  400060ee <__wait>
    400032ed:	b8 01 00 00 00       	mov    $0x1,%eax
    400032f2:	41 87 07             	xchg   %eax,(%r15)
    400032f5:	85 c0                	test   %eax,%eax
    400032f7:	75 df                	jne    400032d8 <malloc+0x2d8>
    400032f9:	e9 8a fd ff ff       	jmpq   40003088 <malloc+0x88>
    400032fe:	66 90                	xchg   %ax,%ax
    40003300:	4b 8d 4c 76 fe       	lea    -0x2(%r14,%r14,2),%rcx
    40003305:	48 8d 0c cd 70 4b 40 	lea    0x40404b70(,%rcx,8),%rcx
    4000330c:	40 
    4000330d:	48 89 8a 78 4b 40 40 	mov    %rcx,0x40404b78(%rdx)
    40003314:	48 89 48 10          	mov    %rcx,0x10(%rax)
    40003318:	e9 9d fd ff ff       	jmpq   400030ba <malloc+0xba>
    4000331d:	0f 1f 00             	nopl   (%rax)
    40003320:	41 83 fd 27          	cmp    $0x27,%r13d
    40003324:	0f 8e 15 01 00 00    	jle    4000343f <malloc+0x43f>
    4000332a:	8b 44 24 0c          	mov    0xc(%rsp),%eax
    4000332e:	83 c0 02             	add    $0x2,%eax
    40003331:	44 39 e8             	cmp    %r13d,%eax
    40003334:	0f 8d fb 00 00 00    	jge    40003435 <malloc+0x435>
    4000333a:	48 8b 55 08          	mov    0x8(%rbp),%rdx
    4000333e:	48 83 e2 fe          	and    $0xfffffffffffffffe,%rdx
    40003342:	48 89 d6             	mov    %rdx,%rsi
    40003345:	48 2b 34 24          	sub    (%rsp),%rsi
    40003349:	48 89 f0             	mov    %rsi,%rax
    4000334c:	48 c1 e8 05          	shr    $0x5,%rax
    40003350:	48 83 e8 01          	sub    $0x1,%rax
    40003354:	48 83 f8 20          	cmp    $0x20,%rax
    40003358:	0f 86 e1 00 00 00    	jbe    4000343f <malloc+0x43f>
    4000335e:	48 3d ff 01 00 00    	cmp    $0x1ff,%rax
    40003364:	0f 86 46 02 00 00    	jbe    400035b0 <malloc+0x5b0>
    4000336a:	48 3d 00 1c 00 00    	cmp    $0x1c00,%rax
    40003370:	b9 3f 00 00 00       	mov    $0x3f,%ecx
    40003375:	0f 86 10 02 00 00    	jbe    4000358b <malloc+0x58b>
    4000337b:	41 39 cd             	cmp    %ecx,%r13d
    4000337e:	0f 85 bb 00 00 00    	jne    4000343f <malloc+0x43f>
    40003384:	48 8b 1c 24          	mov    (%rsp),%rbx
    40003388:	48 8b 45 18          	mov    0x18(%rbp),%rax
    4000338c:	48 8b 7d 10          	mov    0x10(%rbp),%rdi
    40003390:	48 8d 4c 1d 00       	lea    0x0(%rbp,%rbx,1),%rcx
    40003395:	48 89 41 18          	mov    %rax,0x18(%rcx)
    40003399:	48 89 79 10          	mov    %rdi,0x10(%rcx)
    4000339d:	48 89 48 10          	mov    %rcx,0x10(%rax)
    400033a1:	48 8b 41 10          	mov    0x10(%rcx),%rax
    400033a5:	48 89 48 18          	mov    %rcx,0x18(%rax)
    400033a9:	48 89 d8             	mov    %rbx,%rax
    400033ac:	48 89 71 08          	mov    %rsi,0x8(%rcx)
    400033b0:	48 83 c8 01          	or     $0x1,%rax
    400033b4:	48 89 01             	mov    %rax,(%rcx)
    400033b7:	48 89 74 15 00       	mov    %rsi,0x0(%rbp,%rdx,1)
    400033bc:	48 89 45 08          	mov    %rax,0x8(%rbp)
    400033c0:	41 8b 17             	mov    (%r15),%edx
    400033c3:	85 d2                	test   %edx,%edx
    400033c5:	74 1a                	je     400033e1 <malloc+0x3e1>
    400033c7:	31 c0                	xor    %eax,%eax
    400033c9:	41 89 07             	mov    %eax,(%r15)
    400033cc:	f0 83 0c 24 00       	lock orl $0x0,(%rsp)
    400033d1:	41 8b 47 04          	mov    0x4(%r15),%eax
    400033d5:	85 c0                	test   %eax,%eax
    400033d7:	0f 85 ea 00 00 00    	jne    400034c7 <malloc+0x4c7>
    400033dd:	48 8b 45 08          	mov    0x8(%rbp),%rax
    400033e1:	48 83 e0 fe          	and    $0xfffffffffffffffe,%rax
    400033e5:	48 8d 50 f0          	lea    -0x10(%rax),%rdx
    400033e9:	48 39 14 24          	cmp    %rdx,(%rsp)
    400033ed:	73 33                	jae    40003422 <malloc+0x422>
    400033ef:	48 8b 3c 24          	mov    (%rsp),%rdi
    400033f3:	48 89 c2             	mov    %rax,%rdx
    400033f6:	48 8d 4c 3d 00       	lea    0x0(%rbp,%rdi,1),%rcx
    400033fb:	48 89 fe             	mov    %rdi,%rsi
    400033fe:	48 29 fa             	sub    %rdi,%rdx
    40003401:	48 83 ce 01          	or     $0x1,%rsi
    40003405:	48 83 ca 01          	or     $0x1,%rdx
    40003409:	48 8d 79 10          	lea    0x10(%rcx),%rdi
    4000340d:	48 89 31             	mov    %rsi,(%rcx)
    40003410:	48 89 51 08          	mov    %rdx,0x8(%rcx)
    40003414:	48 89 54 05 00       	mov    %rdx,0x0(%rbp,%rax,1)
    40003419:	48 89 75 08          	mov    %rsi,0x8(%rbp)
    4000341d:	e8 de f6 ff ff       	callq  40002b00 <free>
    40003422:	48 83 c4 28          	add    $0x28,%rsp
    40003426:	48 8d 45 10          	lea    0x10(%rbp),%rax
    4000342a:	5b                   	pop    %rbx
    4000342b:	5d                   	pop    %rbp
    4000342c:	41 5c                	pop    %r12
    4000342e:	41 5d                	pop    %r13
    40003430:	41 5e                	pop    %r14
    40003432:	41 5f                	pop    %r15
    40003434:	c3                   	retq   
    40003435:	41 83 fd 3f          	cmp    $0x3f,%r13d
    40003439:	0f 84 2b 01 00 00    	je     4000356a <malloc+0x56a>
    4000343f:	48 8b 45 18          	mov    0x18(%rbp),%rax
    40003443:	48 8b 55 10          	mov    0x10(%rbp),%rdx
    40003447:	48 39 d0             	cmp    %rdx,%rax
    4000344a:	0f 84 d0 01 00 00    	je     40003620 <malloc+0x620>
    40003450:	48 89 50 10          	mov    %rdx,0x10(%rax)
    40003454:	48 8b 55 10          	mov    0x10(%rbp),%rdx
    40003458:	48 89 42 18          	mov    %rax,0x18(%rdx)
    4000345c:	48 8b 55 08          	mov    0x8(%rbp),%rdx
    40003460:	48 89 d0             	mov    %rdx,%rax
    40003463:	48 83 e2 fe          	and    $0xfffffffffffffffe,%rdx
    40003467:	48 83 c8 01          	or     $0x1,%rax
    4000346b:	48 89 45 08          	mov    %rax,0x8(%rbp)
    4000346f:	48 83 4c 15 00 01    	orq    $0x1,0x0(%rbp,%rdx,1)
    40003475:	e9 46 ff ff ff       	jmpq   400033c0 <malloc+0x3c0>
    4000347a:	48 8b 43 f8          	mov    -0x8(%rbx),%rax
    4000347e:	4c 89 e5             	mov    %r12,%rbp
    40003481:	e9 5b ff ff ff       	jmpq   400033e1 <malloc+0x3e1>
    40003486:	b9 01 00 00 00       	mov    $0x1,%ecx
    4000348b:	ba 81 00 00 00       	mov    $0x81,%edx
    40003490:	be 58 4b 40 40       	mov    $0x40404b58,%esi
    40003495:	bf ca 00 00 00       	mov    $0xca,%edi
    4000349a:	e8 57 6c 00 00       	callq  4000a0f6 <ocall_syscall3>
    4000349f:	48 83 f8 da          	cmp    $0xffffffffffffffda,%rax
    400034a3:	0f 85 14 fd ff ff    	jne    400031bd <malloc+0x1bd>
    400034a9:	b9 01 00 00 00       	mov    $0x1,%ecx
    400034ae:	ba 01 00 00 00       	mov    $0x1,%edx
    400034b3:	be 58 4b 40 40       	mov    $0x40404b58,%esi
    400034b8:	bf ca 00 00 00       	mov    $0xca,%edi
    400034bd:	e8 34 6c 00 00       	callq  4000a0f6 <ocall_syscall3>
    400034c2:	e9 f6 fc ff ff       	jmpq   400031bd <malloc+0x1bd>
    400034c7:	b9 01 00 00 00       	mov    $0x1,%ecx
    400034cc:	ba 81 00 00 00       	mov    $0x81,%edx
    400034d1:	4c 89 fe             	mov    %r15,%rsi
    400034d4:	bf ca 00 00 00       	mov    $0xca,%edi
    400034d9:	e8 18 6c 00 00       	callq  4000a0f6 <ocall_syscall3>
    400034de:	48 83 f8 da          	cmp    $0xffffffffffffffda,%rax
    400034e2:	0f 85 f5 fe ff ff    	jne    400033dd <malloc+0x3dd>
    400034e8:	b9 01 00 00 00       	mov    $0x1,%ecx
    400034ed:	ba 01 00 00 00       	mov    $0x1,%edx
    400034f2:	4c 89 fe             	mov    %r15,%rsi
    400034f5:	bf ca 00 00 00       	mov    $0xca,%edi
    400034fa:	e8 f7 6b 00 00       	callq  4000a0f6 <ocall_syscall3>
    400034ff:	e9 d9 fe ff ff       	jmpq   400033dd <malloc+0x3dd>
    40003504:	48 c1 e8 03          	shr    $0x3,%rax
    40003508:	44 0f b6 b8 5c 03 40 	movzbl 0x4040035c(%rax),%r15d
    4000350f:	40 
    40003510:	41 8d 47 01          	lea    0x1(%r15),%eax
    40003514:	89 44 24 0c          	mov    %eax,0xc(%rsp)
    40003518:	e9 21 fb ff ff       	jmpq   4000303e <malloc+0x3e>
    4000351d:	b8 01 00 00 00       	mov    $0x1,%eax
    40003522:	87 05 30 16 40 00    	xchg   %eax,0x401630(%rip)        # 40404b58 <heap_lock.3332>
    40003528:	85 c0                	test   %eax,%eax
    4000352a:	0f 84 0b fc ff ff    	je     4000313b <malloc+0x13b>
    40003530:	b9 01 00 00 00       	mov    $0x1,%ecx
    40003535:	ba 01 00 00 00       	mov    $0x1,%edx
    4000353a:	be 5c 4b 40 40       	mov    $0x40404b5c,%esi
    4000353f:	bf 58 4b 40 40       	mov    $0x40404b58,%edi
    40003544:	e8 a5 2b 00 00       	callq  400060ee <__wait>
    40003549:	b8 01 00 00 00       	mov    $0x1,%eax
    4000354e:	87 05 04 16 40 00    	xchg   %eax,0x401604(%rip)        # 40404b58 <heap_lock.3332>
    40003554:	85 c0                	test   %eax,%eax
    40003556:	75 d8                	jne    40003530 <malloc+0x530>
    40003558:	e9 de fb ff ff       	jmpq   4000313b <malloc+0x13b>
    4000355d:	48 8b 54 24 10       	mov    0x10(%rsp),%rdx
    40003562:	48 89 c3             	mov    %rax,%rbx
    40003565:	e9 0b fc ff ff       	jmpq   40003175 <malloc+0x175>
    4000356a:	48 8b 55 08          	mov    0x8(%rbp),%rdx
    4000356e:	48 83 e2 fe          	and    $0xfffffffffffffffe,%rdx
    40003572:	48 89 d6             	mov    %rdx,%rsi
    40003575:	48 2b 34 24          	sub    (%rsp),%rsi
    40003579:	48 81 fe 00 80 03 00 	cmp    $0x38000,%rsi
    40003580:	0f 87 c3 fd ff ff    	ja     40003349 <malloc+0x349>
    40003586:	e9 b4 fe ff ff       	jmpq   4000343f <malloc+0x43f>
    4000358b:	48 c1 e8 07          	shr    $0x7,%rax
    4000358f:	0f b6 88 5c 03 40 40 	movzbl 0x4040035c(%rax),%ecx
    40003596:	83 c1 10             	add    $0x10,%ecx
    40003599:	e9 dd fd ff ff       	jmpq   4000337b <malloc+0x37b>
    4000359e:	e8 20 ee ff ff       	callq  400023c3 <__tls_errno_location>
    400035a3:	c7 00 0c 00 00 00    	movl   $0xc,(%rax)
    400035a9:	31 c0                	xor    %eax,%eax
    400035ab:	e9 bc fc ff ff       	jmpq   4000326c <malloc+0x26c>
    400035b0:	48 c1 e8 03          	shr    $0x3,%rax
    400035b4:	0f b6 88 5c 03 40 40 	movzbl 0x4040035c(%rax),%ecx
    400035bb:	e9 bb fd ff ff       	jmpq   4000337b <malloc+0x37b>
    400035c0:	8b 05 92 15 40 00    	mov    0x401592(%rip),%eax        # 40404b58 <heap_lock.3332>
    400035c6:	85 c0                	test   %eax,%eax
    400035c8:	74 4f                	je     40003619 <malloc+0x619>
    400035ca:	31 c0                	xor    %eax,%eax
    400035cc:	89 05 86 15 40 00    	mov    %eax,0x401586(%rip)        # 40404b58 <heap_lock.3332>
    400035d2:	f0 83 0c 24 00       	lock orl $0x0,(%rsp)
    400035d7:	8b 05 7f 15 40 00    	mov    0x40157f(%rip),%eax        # 40404b5c <heap_lock.3332+0x4>
    400035dd:	85 c0                	test   %eax,%eax
    400035df:	74 38                	je     40003619 <malloc+0x619>
    400035e1:	b9 01 00 00 00       	mov    $0x1,%ecx
    400035e6:	ba 81 00 00 00       	mov    $0x81,%edx
    400035eb:	be 58 4b 40 40       	mov    $0x40404b58,%esi
    400035f0:	bf ca 00 00 00       	mov    $0xca,%edi
    400035f5:	e8 fc 6a 00 00       	callq  4000a0f6 <ocall_syscall3>
    400035fa:	48 83 f8 da          	cmp    $0xffffffffffffffda,%rax
    400035fe:	75 19                	jne    40003619 <malloc+0x619>
    40003600:	b9 01 00 00 00       	mov    $0x1,%ecx
    40003605:	ba 01 00 00 00       	mov    $0x1,%edx
    4000360a:	be 58 4b 40 40       	mov    $0x40404b58,%esi
    4000360f:	bf ca 00 00 00       	mov    $0xca,%edi
    40003614:	e8 dd 6a 00 00       	callq  4000a0f6 <ocall_syscall3>
    40003619:	31 c0                	xor    %eax,%eax
    4000361b:	e9 4c fc ff ff       	jmpq   4000326c <malloc+0x26c>
    40003620:	44 89 e9             	mov    %r13d,%ecx
    40003623:	48 c7 c0 fe ff ff ff 	mov    $0xfffffffffffffffe,%rax
    4000362a:	48 d3 c0             	rol    %cl,%rax
    4000362d:	f0 48 21 05 2b 15 40 	lock and %rax,0x40152b(%rip)        # 40404b60 <mal>
    40003634:	00 
    40003635:	48 8b 45 18          	mov    0x18(%rbp),%rax
    40003639:	48 8b 55 10          	mov    0x10(%rbp),%rdx
    4000363d:	e9 0e fe ff ff       	jmpq   40003450 <malloc+0x450>
    40003642:	66 2e 0f 1f 84 00 00 	nopw   %cs:0x0(%rax,%rax,1)
    40003649:	00 00 00 
    4000364c:	0f 1f 40 00          	nopl   0x0(%rax)

0000000040003650 <__malloc0>:
    40003650:	53                   	push   %rbx
    40003651:	48 89 fb             	mov    %rdi,%rbx
    40003654:	e8 a7 f9 ff ff       	callq  40003000 <malloc>
    40003659:	48 85 c0             	test   %rax,%rax
    4000365c:	74 31                	je     4000368f <__malloc0+0x3f>
    4000365e:	f6 40 f8 01          	testb  $0x1,-0x8(%rax)
    40003662:	74 2b                	je     4000368f <__malloc0+0x3f>
    40003664:	48 8d 7b 07          	lea    0x7(%rbx),%rdi
    40003668:	48 c1 ef 03          	shr    $0x3,%rdi
    4000366c:	48 85 ff             	test   %rdi,%rdi
    4000366f:	74 1e                	je     4000368f <__malloc0+0x3f>
    40003671:	48 89 c2             	mov    %rax,%rdx
    40003674:	0f 1f 40 00          	nopl   0x0(%rax)
    40003678:	48 83 3a 00          	cmpq   $0x0,(%rdx)
    4000367c:	74 07                	je     40003685 <__malloc0+0x35>
    4000367e:	48 c7 02 00 00 00 00 	movq   $0x0,(%rdx)
    40003685:	48 83 c2 08          	add    $0x8,%rdx
    40003689:	48 83 ef 01          	sub    $0x1,%rdi
    4000368d:	75 e9                	jne    40003678 <__malloc0+0x28>
    4000368f:	5b                   	pop    %rbx
    40003690:	c3                   	retq   
    40003691:	66 2e 0f 1f 84 00 00 	nopw   %cs:0x0(%rax,%rax,1)
    40003698:	00 00 00 
    4000369b:	0f 1f 44 00 00       	nopl   0x0(%rax,%rax,1)

00000000400036a0 <realloc>:
    400036a0:	41 57                	push   %r15
    400036a2:	41 56                	push   %r14
    400036a4:	41 55                	push   %r13
    400036a6:	41 54                	push   %r12
    400036a8:	55                   	push   %rbp
    400036a9:	53                   	push   %rbx
    400036aa:	48 89 fb             	mov    %rdi,%rbx
    400036ad:	48 83 ec 18          	sub    $0x18,%rsp
    400036b1:	48 85 ff             	test   %rdi,%rdi
    400036b4:	0f 84 f6 01 00 00    	je     400038b0 <realloc+0x210>
    400036ba:	48 8d 56 ff          	lea    -0x1(%rsi),%rdx
    400036be:	48 b8 df ef ff ff ff 	movabs $0x7fffffffffffefdf,%rax
    400036c5:	ff ff 7f 
    400036c8:	48 39 c2             	cmp    %rax,%rdx
    400036cb:	0f 87 9f 00 00 00    	ja     40003770 <realloc+0xd0>
    400036d1:	48 8d 6e 2f          	lea    0x2f(%rsi),%rbp
    400036d5:	48 83 e5 e0          	and    $0xffffffffffffffe0,%rbp
    400036d9:	48 8b 43 f8          	mov    -0x8(%rbx),%rax
    400036dd:	4c 8d 73 f0          	lea    -0x10(%rbx),%r14
    400036e1:	49 89 c4             	mov    %rax,%r12
    400036e4:	49 83 e4 fe          	and    $0xfffffffffffffffe,%r12
    400036e8:	a8 01                	test   $0x1,%al
    400036ea:	0f 85 98 00 00 00    	jne    40003788 <realloc+0xe8>
    400036f0:	4c 8b 6b f0          	mov    -0x10(%rbx),%r13
    400036f4:	4d 01 ec             	add    %r13,%r12
    400036f7:	41 f6 c5 01          	test   $0x1,%r13b
    400036fb:	4e 8d 7c 2d 00       	lea    0x0(%rbp,%r13,1),%r15
    40003700:	74 01                	je     40003703 <realloc+0x63>
    40003702:	f4                   	hlt    
    40003703:	49 81 ff ff 0f 00 00 	cmp    $0xfff,%r15
    4000370a:	0f 86 f0 00 00 00    	jbe    40003800 <realloc+0x160>
    40003710:	49 8d af ff 0f 00 00 	lea    0xfff(%r15),%rbp
    40003717:	48 81 e5 00 f0 ff ff 	and    $0xfffffffffffff000,%rbp
    4000371e:	49 39 ec             	cmp    %rbp,%r12
    40003721:	0f 84 91 00 00 00    	je     400037b8 <realloc+0x118>
    40003727:	4c 89 f7             	mov    %r14,%rdi
    4000372a:	31 c0                	xor    %eax,%eax
    4000372c:	b9 01 00 00 00       	mov    $0x1,%ecx
    40003731:	4c 29 ef             	sub    %r13,%rdi
    40003734:	48 89 ea             	mov    %rbp,%rdx
    40003737:	4c 89 e6             	mov    %r12,%rsi
    4000373a:	e8 9b 02 00 00       	callq  400039da <__mremap>
    4000373f:	48 83 f8 ff          	cmp    $0xffffffffffffffff,%rax
    40003743:	0f 84 9f 01 00 00    	je     400038e8 <realloc+0x248>
    40003749:	4c 01 e8             	add    %r13,%rax
    4000374c:	4c 29 ed             	sub    %r13,%rbp
    4000374f:	48 89 68 08          	mov    %rbp,0x8(%rax)
    40003753:	48 83 c4 18          	add    $0x18,%rsp
    40003757:	48 83 c0 10          	add    $0x10,%rax
    4000375b:	5b                   	pop    %rbx
    4000375c:	5d                   	pop    %rbp
    4000375d:	41 5c                	pop    %r12
    4000375f:	41 5d                	pop    %r13
    40003761:	41 5e                	pop    %r14
    40003763:	41 5f                	pop    %r15
    40003765:	c3                   	retq   
    40003766:	66 2e 0f 1f 84 00 00 	nopw   %cs:0x0(%rax,%rax,1)
    4000376d:	00 00 00 
    40003770:	48 85 f6             	test   %rsi,%rsi
    40003773:	0f 85 84 01 00 00    	jne    400038fd <realloc+0x25d>
    40003779:	bd 20 00 00 00       	mov    $0x20,%ebp
    4000377e:	e9 56 ff ff ff       	jmpq   400036d9 <realloc+0x39>
    40003783:	0f 1f 44 00 00       	nopl   0x0(%rax,%rax,1)
    40003788:	4f 8d 2c 26          	lea    (%r14,%r12,1),%r13
    4000378c:	49 3b 45 00          	cmp    0x0(%r13),%rax
    40003790:	74 01                	je     40003793 <realloc+0xf3>
    40003792:	f4                   	hlt    
    40003793:	49 39 ec             	cmp    %rbp,%r12
    40003796:	0f 82 a4 00 00 00    	jb     40003840 <realloc+0x1a0>
    4000379c:	4c 89 e0             	mov    %r12,%rax
    4000379f:	48 83 c8 01          	or     $0x1,%rax
    400037a3:	48 89 43 f8          	mov    %rax,-0x8(%rbx)
    400037a7:	49 89 45 00          	mov    %rax,0x0(%r13)
    400037ab:	48 83 e0 fe          	and    $0xfffffffffffffffe,%rax
    400037af:	48 8d 50 f0          	lea    -0x10(%rax),%rdx
    400037b3:	48 39 ea             	cmp    %rbp,%rdx
    400037b6:	77 18                	ja     400037d0 <realloc+0x130>
    400037b8:	48 89 d8             	mov    %rbx,%rax
    400037bb:	48 83 c4 18          	add    $0x18,%rsp
    400037bf:	5b                   	pop    %rbx
    400037c0:	5d                   	pop    %rbp
    400037c1:	41 5c                	pop    %r12
    400037c3:	41 5d                	pop    %r13
    400037c5:	41 5e                	pop    %r14
    400037c7:	41 5f                	pop    %r15
    400037c9:	c3                   	retq   
    400037ca:	66 0f 1f 44 00 00    	nopw   0x0(%rax,%rax,1)
    400037d0:	48 89 c2             	mov    %rax,%rdx
    400037d3:	49 01 ee             	add    %rbp,%r14
    400037d6:	48 89 e9             	mov    %rbp,%rcx
    400037d9:	48 29 ea             	sub    %rbp,%rdx
    400037dc:	48 83 c9 01          	or     $0x1,%rcx
    400037e0:	49 8d 7e 10          	lea    0x10(%r14),%rdi
    400037e4:	48 83 ca 01          	or     $0x1,%rdx
    400037e8:	49 89 0e             	mov    %rcx,(%r14)
    400037eb:	49 89 56 08          	mov    %rdx,0x8(%r14)
    400037ef:	48 89 54 03 f0       	mov    %rdx,-0x10(%rbx,%rax,1)
    400037f4:	48 89 4b f8          	mov    %rcx,-0x8(%rbx)
    400037f8:	e8 03 f3 ff ff       	callq  40002b00 <free>
    400037fd:	eb b9                	jmp    400037b8 <realloc+0x118>
    400037ff:	90                   	nop
    40003800:	48 89 ef             	mov    %rbp,%rdi
    40003803:	e8 f8 f7 ff ff       	callq  40003000 <malloc>
    40003808:	48 85 c0             	test   %rax,%rax
    4000380b:	0f 84 ff fe ff ff    	je     40003710 <realloc+0x70>
    40003811:	48 8d 55 f0          	lea    -0x10(%rbp),%rdx
    40003815:	48 89 de             	mov    %rbx,%rsi
    40003818:	48 89 c7             	mov    %rax,%rdi
    4000381b:	48 89 44 24 08       	mov    %rax,0x8(%rsp)
    40003820:	e8 48 27 00 00       	callq  40005f6d <memcpy>
    40003825:	48 89 df             	mov    %rbx,%rdi
    40003828:	e8 d3 f2 ff ff       	callq  40002b00 <free>
    4000382d:	48 8b 4c 24 08       	mov    0x8(%rsp),%rcx
    40003832:	48 89 c8             	mov    %rcx,%rax
    40003835:	eb 84                	jmp    400037bb <realloc+0x11b>
    40003837:	66 0f 1f 84 00 00 00 	nopw   0x0(%rax,%rax,1)
    4000383e:	00 00 
    40003840:	4c 89 ef             	mov    %r13,%rdi
    40003843:	e8 98 ed ff ff       	callq  400025e0 <alloc_fwd>
    40003848:	85 c0                	test   %eax,%eax
    4000384a:	0f 84 80 00 00 00    	je     400038d0 <realloc+0x230>
    40003850:	49 8b 55 08          	mov    0x8(%r13),%rdx
    40003854:	48 83 e2 fe          	and    $0xfffffffffffffffe,%rdx
    40003858:	4a 8d 0c 22          	lea    (%rdx,%r12,1),%rcx
    4000385c:	48 89 c8             	mov    %rcx,%rax
    4000385f:	48 83 c8 01          	or     $0x1,%rax
    40003863:	48 39 e9             	cmp    %rbp,%rcx
    40003866:	48 89 43 f8          	mov    %rax,-0x8(%rbx)
    4000386a:	49 89 44 15 00       	mov    %rax,0x0(%r13,%rdx,1)
    4000386f:	0f 83 36 ff ff ff    	jae    400037ab <realloc+0x10b>
    40003875:	48 8d 7d f0          	lea    -0x10(%rbp),%rdi
    40003879:	e8 82 f7 ff ff       	callq  40003000 <malloc>
    4000387e:	48 85 c0             	test   %rax,%rax
    40003881:	48 89 c5             	mov    %rax,%rbp
    40003884:	74 70                	je     400038f6 <realloc+0x256>
    40003886:	49 8d 54 24 f0       	lea    -0x10(%r12),%rdx
    4000388b:	48 89 de             	mov    %rbx,%rsi
    4000388e:	48 89 c7             	mov    %rax,%rdi
    40003891:	e8 d7 26 00 00       	callq  40005f6d <memcpy>
    40003896:	48 89 df             	mov    %rbx,%rdi
    40003899:	e8 62 f2 ff ff       	callq  40002b00 <free>
    4000389e:	48 83 c4 18          	add    $0x18,%rsp
    400038a2:	48 89 e8             	mov    %rbp,%rax
    400038a5:	5b                   	pop    %rbx
    400038a6:	5d                   	pop    %rbp
    400038a7:	41 5c                	pop    %r12
    400038a9:	41 5d                	pop    %r13
    400038ab:	41 5e                	pop    %r14
    400038ad:	41 5f                	pop    %r15
    400038af:	c3                   	retq   
    400038b0:	48 83 c4 18          	add    $0x18,%rsp
    400038b4:	48 89 f7             	mov    %rsi,%rdi
    400038b7:	5b                   	pop    %rbx
    400038b8:	5d                   	pop    %rbp
    400038b9:	41 5c                	pop    %r12
    400038bb:	41 5d                	pop    %r13
    400038bd:	41 5e                	pop    %r14
    400038bf:	41 5f                	pop    %r15
    400038c1:	e9 3a f7 ff ff       	jmpq   40003000 <malloc>
    400038c6:	66 2e 0f 1f 84 00 00 	nopw   %cs:0x0(%rax,%rax,1)
    400038cd:	00 00 00 
    400038d0:	4c 89 e0             	mov    %r12,%rax
    400038d3:	48 83 c8 01          	or     $0x1,%rax
    400038d7:	48 89 43 f8          	mov    %rax,-0x8(%rbx)
    400038db:	49 89 45 00          	mov    %rax,0x0(%r13)
    400038df:	eb 94                	jmp    40003875 <realloc+0x1d5>
    400038e1:	0f 1f 80 00 00 00 00 	nopl   0x0(%rax)
    400038e8:	31 c0                	xor    %eax,%eax
    400038ea:	49 39 ec             	cmp    %rbp,%r12
    400038ed:	48 0f 47 c3          	cmova  %rbx,%rax
    400038f1:	e9 c5 fe ff ff       	jmpq   400037bb <realloc+0x11b>
    400038f6:	31 c0                	xor    %eax,%eax
    400038f8:	e9 be fe ff ff       	jmpq   400037bb <realloc+0x11b>
    400038fd:	e8 c1 ea ff ff       	callq  400023c3 <__tls_errno_location>
    40003902:	c7 00 0c 00 00 00    	movl   $0xc,(%rax)
    40003908:	31 c0                	xor    %eax,%eax
    4000390a:	e9 ac fe ff ff       	jmpq   400037bb <realloc+0x11b>

000000004000390f <__madvise>:
    4000390f:	50                   	push   %rax
    40003910:	48 63 ca             	movslq %edx,%rcx
    40003913:	48 89 f2             	mov    %rsi,%rdx
    40003916:	48 89 fe             	mov    %rdi,%rsi
    40003919:	bf 1c 00 00 00       	mov    $0x1c,%edi
    4000391e:	e8 d3 67 00 00       	callq  4000a0f6 <ocall_syscall3>
    40003923:	48 89 c7             	mov    %rax,%rdi
    40003926:	e8 c5 28 00 00       	callq  400061f0 <__syscall_ret>
    4000392b:	5a                   	pop    %rdx
    4000392c:	c3                   	retq   

000000004000392d <__vm_wait>:
    4000392d:	c3                   	retq   

000000004000392e <__mmap>:
    4000392e:	55                   	push   %rbp
    4000392f:	48 89 e5             	mov    %rsp,%rbp
    40003932:	41 57                	push   %r15
    40003934:	41 56                	push   %r14
    40003936:	41 55                	push   %r13
    40003938:	4d 89 cd             	mov    %r9,%r13
    4000393b:	41 54                	push   %r12
    4000393d:	53                   	push   %rbx
    4000393e:	48 83 ec 18          	sub    $0x18,%rsp
    40003942:	41 f7 c1 ff 0f 00 00 	test   $0xfff,%r9d
    40003949:	74 0d                	je     40003958 <__mmap+0x2a>
    4000394b:	e8 73 ea ff ff       	callq  400023c3 <__tls_errno_location>
    40003950:	c7 00 16 00 00 00    	movl   $0x16,(%rax)
    40003956:	eb 6e                	jmp    400039c6 <__mmap+0x98>
    40003958:	48 b8 fe ff ff ff ff 	movabs $0x7ffffffffffffffe,%rax
    4000395f:	ff ff 7f 
    40003962:	48 89 f3             	mov    %rsi,%rbx
    40003965:	48 39 c6             	cmp    %rax,%rsi
    40003968:	76 0d                	jbe    40003977 <__mmap+0x49>
    4000396a:	e8 54 ea ff ff       	callq  400023c3 <__tls_errno_location>
    4000396f:	c7 00 0c 00 00 00    	movl   $0xc,(%rax)
    40003975:	eb 4f                	jmp    400039c6 <__mmap+0x98>
    40003977:	f6 c1 10             	test   $0x10,%cl
    4000397a:	49 89 fe             	mov    %rdi,%r14
    4000397d:	41 89 d7             	mov    %edx,%r15d
    40003980:	41 89 cc             	mov    %ecx,%r12d
    40003983:	74 0d                	je     40003992 <__mmap+0x64>
    40003985:	44 89 45 cc          	mov    %r8d,-0x34(%rbp)
    40003989:	e8 9f ff ff ff       	callq  4000392d <__vm_wait>
    4000398e:	44 8b 45 cc          	mov    -0x34(%rbp),%r8d
    40003992:	50                   	push   %rax
    40003993:	49 63 cf             	movslq %r15d,%rcx
    40003996:	48 89 da             	mov    %rbx,%rdx
    40003999:	4d 63 c8             	movslq %r8d,%r9
    4000399c:	4c 89 f6             	mov    %r14,%rsi
    4000399f:	4d 63 c4             	movslq %r12d,%r8
    400039a2:	41 55                	push   %r13
    400039a4:	bf 09 00 00 00       	mov    $0x9,%edi
    400039a9:	e8 b8 70 00 00       	callq  4000aa66 <ocall_syscall6>
    400039ae:	5a                   	pop    %rdx
    400039af:	59                   	pop    %rcx
    400039b0:	48 8d 65 d8          	lea    -0x28(%rbp),%rsp
    400039b4:	48 89 c7             	mov    %rax,%rdi
    400039b7:	5b                   	pop    %rbx
    400039b8:	41 5c                	pop    %r12
    400039ba:	41 5d                	pop    %r13
    400039bc:	41 5e                	pop    %r14
    400039be:	41 5f                	pop    %r15
    400039c0:	5d                   	pop    %rbp
    400039c1:	e9 2a 28 00 00       	jmpq   400061f0 <__syscall_ret>
    400039c6:	48 8d 65 d8          	lea    -0x28(%rbp),%rsp
    400039ca:	48 83 c8 ff          	or     $0xffffffffffffffff,%rax
    400039ce:	5b                   	pop    %rbx
    400039cf:	41 5c                	pop    %r12
    400039d1:	41 5d                	pop    %r13
    400039d3:	41 5e                	pop    %r14
    400039d5:	41 5f                	pop    %r15
    400039d7:	5d                   	pop    %rbp
    400039d8:	c3                   	retq   

00000000400039d9 <dummy>:
    400039d9:	c3                   	retq   

00000000400039da <__mremap>:
    400039da:	41 55                	push   %r13
    400039dc:	48 b8 fe ff ff ff ff 	movabs $0x7ffffffffffffffe,%rax
    400039e3:	ff ff 7f 
    400039e6:	41 54                	push   %r12
    400039e8:	55                   	push   %rbp
    400039e9:	53                   	push   %rbx
    400039ea:	48 89 d3             	mov    %rdx,%rbx
    400039ed:	48 83 ec 58          	sub    $0x58,%rsp
    400039f1:	48 39 c2             	cmp    %rax,%rdx
    400039f4:	4c 89 44 24 40       	mov    %r8,0x40(%rsp)
    400039f9:	76 11                	jbe    40003a0c <__mremap+0x32>
    400039fb:	e8 c3 e9 ff ff       	callq  400023c3 <__tls_errno_location>
    40003a00:	c7 00 0c 00 00 00    	movl   $0xc,(%rax)
    40003a06:	48 83 c8 ff          	or     $0xffffffffffffffff,%rax
    40003a0a:	eb 57                	jmp    40003a63 <__mremap+0x89>
    40003a0c:	45 31 c9             	xor    %r9d,%r9d
    40003a0f:	f6 c1 02             	test   $0x2,%cl
    40003a12:	49 89 fc             	mov    %rdi,%r12
    40003a15:	49 89 f5             	mov    %rsi,%r13
    40003a18:	89 cd                	mov    %ecx,%ebp
    40003a1a:	74 29                	je     40003a45 <__mremap+0x6b>
    40003a1c:	e8 0c ff ff ff       	callq  4000392d <__vm_wait>
    40003a21:	48 8d 84 24 80 00 00 	lea    0x80(%rsp),%rax
    40003a28:	00 
    40003a29:	4c 8b 4c 24 40       	mov    0x40(%rsp),%r9
    40003a2e:	c7 44 24 08 20 00 00 	movl   $0x20,0x8(%rsp)
    40003a35:	00 
    40003a36:	48 89 44 24 10       	mov    %rax,0x10(%rsp)
    40003a3b:	48 8d 44 24 20       	lea    0x20(%rsp),%rax
    40003a40:	48 89 44 24 18       	mov    %rax,0x18(%rsp)
    40003a45:	bf 19 00 00 00       	mov    $0x19,%edi
    40003a4a:	4c 63 c5             	movslq %ebp,%r8
    40003a4d:	48 89 d9             	mov    %rbx,%rcx
    40003a50:	4c 89 ea             	mov    %r13,%rdx
    40003a53:	4c 89 e6             	mov    %r12,%rsi
    40003a56:	e8 5f 6f 00 00       	callq  4000a9ba <ocall_syscall5>
    40003a5b:	48 89 c7             	mov    %rax,%rdi
    40003a5e:	e8 8d 27 00 00       	callq  400061f0 <__syscall_ret>
    40003a63:	48 83 c4 58          	add    $0x58,%rsp
    40003a67:	5b                   	pop    %rbx
    40003a68:	5d                   	pop    %rbp
    40003a69:	41 5c                	pop    %r12
    40003a6b:	41 5d                	pop    %r13
    40003a6d:	c3                   	retq   

0000000040003a6e <dummy>:
    40003a6e:	c3                   	retq   

0000000040003a6f <__munmap>:
    40003a6f:	55                   	push   %rbp
    40003a70:	48 89 f5             	mov    %rsi,%rbp
    40003a73:	53                   	push   %rbx
    40003a74:	48 89 fb             	mov    %rdi,%rbx
    40003a77:	50                   	push   %rax
    40003a78:	e8 b0 fe ff ff       	callq  4000392d <__vm_wait>
    40003a7d:	48 89 ea             	mov    %rbp,%rdx
    40003a80:	48 89 de             	mov    %rbx,%rsi
    40003a83:	bf 0b 00 00 00       	mov    $0xb,%edi
    40003a88:	e8 3d 63 00 00       	callq  40009dca <ocall_syscall2>
    40003a8d:	48 89 c7             	mov    %rax,%rdi
    40003a90:	e8 5b 27 00 00       	callq  400061f0 <__syscall_ret>
    40003a95:	5a                   	pop    %rdx
    40003a96:	5b                   	pop    %rbx
    40003a97:	5d                   	pop    %rbp
    40003a98:	c3                   	retq   

0000000040003a99 <__unlist_locked_file>:
    40003a99:	c3                   	retq   

0000000040003a9a <fclose>:
    40003a9a:	41 56                	push   %r14
    40003a9c:	41 55                	push   %r13
    40003a9e:	41 54                	push   %r12
    40003aa0:	45 31 e4             	xor    %r12d,%r12d
    40003aa3:	55                   	push   %rbp
    40003aa4:	53                   	push   %rbx
    40003aa5:	8b 87 8c 00 00 00    	mov    0x8c(%rdi),%eax
    40003aab:	48 89 fb             	mov    %rdi,%rbx
    40003aae:	85 c0                	test   %eax,%eax
    40003ab0:	78 08                	js     40003aba <fclose+0x20>
    40003ab2:	e8 33 2b 00 00       	callq  400065ea <__lockfile>
    40003ab7:	41 89 c4             	mov    %eax,%r12d
    40003aba:	48 89 df             	mov    %rbx,%rdi
    40003abd:	e8 d7 ff ff ff       	callq  40003a99 <__unlist_locked_file>
    40003ac2:	44 8b 2b             	mov    (%rbx),%r13d
    40003ac5:	41 83 e5 01          	and    $0x1,%r13d
    40003ac9:	75 30                	jne    40003afb <fclose+0x61>
    40003acb:	e8 12 05 00 00       	callq  40003fe2 <__ofl_lock>
    40003ad0:	48 8b 4b 68          	mov    0x68(%rbx),%rcx
    40003ad4:	48 85 c9             	test   %rcx,%rcx
    40003ad7:	74 08                	je     40003ae1 <fclose+0x47>
    40003ad9:	48 8b 53 70          	mov    0x70(%rbx),%rdx
    40003add:	48 89 51 70          	mov    %rdx,0x70(%rcx)
    40003ae1:	48 8b 53 70          	mov    0x70(%rbx),%rdx
    40003ae5:	48 85 d2             	test   %rdx,%rdx
    40003ae8:	74 04                	je     40003aee <fclose+0x54>
    40003aea:	48 89 4a 68          	mov    %rcx,0x68(%rdx)
    40003aee:	48 39 18             	cmp    %rbx,(%rax)
    40003af1:	75 03                	jne    40003af6 <fclose+0x5c>
    40003af3:	48 89 10             	mov    %rdx,(%rax)
    40003af6:	e8 f9 04 00 00       	callq  40003ff4 <__ofl_unlock>
    40003afb:	48 89 df             	mov    %rbx,%rdi
    40003afe:	e8 46 00 00 00       	callq  40003b49 <fflush>
    40003b03:	48 89 df             	mov    %rbx,%rdi
    40003b06:	41 89 c6             	mov    %eax,%r14d
    40003b09:	ff 53 18             	callq  *0x18(%rbx)
    40003b0c:	48 8b bb a8 00 00 00 	mov    0xa8(%rbx),%rdi
    40003b13:	89 c5                	mov    %eax,%ebp
    40003b15:	44 09 f5             	or     %r14d,%ebp
    40003b18:	48 85 ff             	test   %rdi,%rdi
    40003b1b:	74 05                	je     40003b22 <fclose+0x88>
    40003b1d:	e8 de ef ff ff       	callq  40002b00 <free>
    40003b22:	45 85 ed             	test   %r13d,%r13d
    40003b25:	75 0a                	jne    40003b31 <fclose+0x97>
    40003b27:	48 89 df             	mov    %rbx,%rdi
    40003b2a:	e8 d1 ef ff ff       	callq  40002b00 <free>
    40003b2f:	eb 0d                	jmp    40003b3e <fclose+0xa4>
    40003b31:	45 85 e4             	test   %r12d,%r12d
    40003b34:	74 08                	je     40003b3e <fclose+0xa4>
    40003b36:	48 89 df             	mov    %rbx,%rdi
    40003b39:	e8 02 2b 00 00       	callq  40006640 <__unlockfile>
    40003b3e:	5b                   	pop    %rbx
    40003b3f:	89 e8                	mov    %ebp,%eax
    40003b41:	5d                   	pop    %rbp
    40003b42:	41 5c                	pop    %r12
    40003b44:	41 5d                	pop    %r13
    40003b46:	41 5e                	pop    %r14
    40003b48:	c3                   	retq   

0000000040003b49 <fflush>:
    40003b49:	41 54                	push   %r12
    40003b4b:	48 85 ff             	test   %rdi,%rdi
    40003b4e:	55                   	push   %rbp
    40003b4f:	53                   	push   %rbx
    40003b50:	48 89 fb             	mov    %rdi,%rbx
    40003b53:	75 4f                	jne    40003ba4 <fflush+0x5b>
    40003b55:	48 8b 05 bc e2 3f 00 	mov    0x3fe2bc(%rip),%rax        # 40401e18 <__stdout_used>
    40003b5c:	48 85 c0             	test   %rax,%rax
    40003b5f:	74 10                	je     40003b71 <fflush+0x28>
    40003b61:	48 8b 3d b0 e2 3f 00 	mov    0x3fe2b0(%rip),%rdi        # 40401e18 <__stdout_used>
    40003b68:	e8 dc ff ff ff       	callq  40003b49 <fflush>
    40003b6d:	89 c5                	mov    %eax,%ebp
    40003b6f:	eb 02                	jmp    40003b73 <fflush+0x2a>
    40003b71:	31 ed                	xor    %ebp,%ebp
    40003b73:	e8 6a 04 00 00       	callq  40003fe2 <__ofl_lock>
    40003b78:	48 8b 18             	mov    (%rax),%rbx
    40003b7b:	48 85 db             	test   %rbx,%rbx
    40003b7e:	74 1a                	je     40003b9a <fflush+0x51>
    40003b80:	48 8b 43 38          	mov    0x38(%rbx),%rax
    40003b84:	48 39 43 28          	cmp    %rax,0x28(%rbx)
    40003b88:	76 0a                	jbe    40003b94 <fflush+0x4b>
    40003b8a:	48 89 df             	mov    %rbx,%rdi
    40003b8d:	e8 b7 ff ff ff       	callq  40003b49 <fflush>
    40003b92:	09 c5                	or     %eax,%ebp
    40003b94:	48 8b 5b 70          	mov    0x70(%rbx),%rbx
    40003b98:	eb e1                	jmp    40003b7b <fflush+0x32>
    40003b9a:	e8 55 04 00 00       	callq  40003ff4 <__ofl_unlock>
    40003b9f:	e9 85 00 00 00       	jmpq   40003c29 <fflush+0xe0>
    40003ba4:	8b 87 8c 00 00 00    	mov    0x8c(%rdi),%eax
    40003baa:	45 31 e4             	xor    %r12d,%r12d
    40003bad:	85 c0                	test   %eax,%eax
    40003baf:	78 08                	js     40003bb9 <fflush+0x70>
    40003bb1:	e8 34 2a 00 00       	callq  400065ea <__lockfile>
    40003bb6:	41 89 c4             	mov    %eax,%r12d
    40003bb9:	48 8b 43 38          	mov    0x38(%rbx),%rax
    40003bbd:	48 39 43 28          	cmp    %rax,0x28(%rbx)
    40003bc1:	76 14                	jbe    40003bd7 <fflush+0x8e>
    40003bc3:	31 d2                	xor    %edx,%edx
    40003bc5:	31 f6                	xor    %esi,%esi
    40003bc7:	48 89 df             	mov    %rbx,%rdi
    40003bca:	83 cd ff             	or     $0xffffffff,%ebp
    40003bcd:	ff 53 48             	callq  *0x48(%rbx)
    40003bd0:	48 83 7b 28 00       	cmpq   $0x0,0x28(%rbx)
    40003bd5:	74 45                	je     40003c1c <fflush+0xd3>
    40003bd7:	48 8b 73 08          	mov    0x8(%rbx),%rsi
    40003bdb:	48 8b 43 10          	mov    0x10(%rbx),%rax
    40003bdf:	48 39 c6             	cmp    %rax,%rsi
    40003be2:	73 0e                	jae    40003bf2 <fflush+0xa9>
    40003be4:	48 29 c6             	sub    %rax,%rsi
    40003be7:	ba 01 00 00 00       	mov    $0x1,%edx
    40003bec:	48 89 df             	mov    %rbx,%rdi
    40003bef:	ff 53 50             	callq  *0x50(%rbx)
    40003bf2:	48 c7 43 20 00 00 00 	movq   $0x0,0x20(%rbx)
    40003bf9:	00 
    40003bfa:	48 c7 43 38 00 00 00 	movq   $0x0,0x38(%rbx)
    40003c01:	00 
    40003c02:	31 ed                	xor    %ebp,%ebp
    40003c04:	48 c7 43 28 00 00 00 	movq   $0x0,0x28(%rbx)
    40003c0b:	00 
    40003c0c:	48 c7 43 10 00 00 00 	movq   $0x0,0x10(%rbx)
    40003c13:	00 
    40003c14:	48 c7 43 08 00 00 00 	movq   $0x0,0x8(%rbx)
    40003c1b:	00 
    40003c1c:	45 85 e4             	test   %r12d,%r12d
    40003c1f:	74 08                	je     40003c29 <fflush+0xe0>
    40003c21:	48 89 df             	mov    %rbx,%rdi
    40003c24:	e8 17 2a 00 00       	callq  40006640 <__unlockfile>
    40003c29:	5b                   	pop    %rbx
    40003c2a:	89 e8                	mov    %ebp,%eax
    40003c2c:	5d                   	pop    %rbp
    40003c2d:	41 5c                	pop    %r12
    40003c2f:	c3                   	retq   

0000000040003c30 <fgets>:
    40003c30:	41 57                	push   %r15
    40003c32:	45 31 ff             	xor    %r15d,%r15d
    40003c35:	41 56                	push   %r14
    40003c37:	41 55                	push   %r13
    40003c39:	41 54                	push   %r12
    40003c3b:	49 89 fc             	mov    %rdi,%r12
    40003c3e:	55                   	push   %rbp
    40003c3f:	89 f5                	mov    %esi,%ebp
    40003c41:	53                   	push   %rbx
    40003c42:	48 89 d3             	mov    %rdx,%rbx
    40003c45:	48 83 ec 18          	sub    $0x18,%rsp
    40003c49:	8b 82 8c 00 00 00    	mov    0x8c(%rdx),%eax
    40003c4f:	85 c0                	test   %eax,%eax
    40003c51:	78 0b                	js     40003c5e <fgets+0x2e>
    40003c53:	48 89 d7             	mov    %rdx,%rdi
    40003c56:	e8 8f 29 00 00       	callq  400065ea <__lockfile>
    40003c5b:	41 89 c7             	mov    %eax,%r15d
    40003c5e:	44 8d 6d ff          	lea    -0x1(%rbp),%r13d
    40003c62:	ff cd                	dec    %ebp
    40003c64:	7e 08                	jle    40003c6e <fgets+0x3e>
    40003c66:	4c 89 e5             	mov    %r12,%rbp
    40003c69:	e9 b4 00 00 00       	jmpq   40003d22 <fgets+0xf2>
    40003c6e:	8a 93 8a 00 00 00    	mov    0x8a(%rbx),%dl
    40003c74:	8d 42 ff             	lea    -0x1(%rdx),%eax
    40003c77:	09 d0                	or     %edx,%eax
    40003c79:	45 85 ff             	test   %r15d,%r15d
    40003c7c:	88 83 8a 00 00 00    	mov    %al,0x8a(%rbx)
    40003c82:	74 08                	je     40003c8c <fgets+0x5c>
    40003c84:	48 89 df             	mov    %rbx,%rdi
    40003c87:	e8 b4 29 00 00       	callq  40006640 <__unlockfile>
    40003c8c:	45 85 ed             	test   %r13d,%r13d
    40003c8f:	0f 85 d4 00 00 00    	jne    40003d69 <fgets+0x139>
    40003c95:	41 c6 04 24 00       	movb   $0x0,(%r12)
    40003c9a:	e9 cd 00 00 00       	jmpq   40003d6c <fgets+0x13c>
    40003c9f:	48 8b 7b 08          	mov    0x8(%rbx),%rdi
    40003ca3:	48 8b 53 10          	mov    0x10(%rbx),%rdx
    40003ca7:	be 0a 00 00 00       	mov    $0xa,%esi
    40003cac:	48 29 fa             	sub    %rdi,%rdx
    40003caf:	e8 fc 1f 00 00       	callq  40005cb0 <memchr>
    40003cb4:	48 85 c0             	test   %rax,%rax
    40003cb7:	48 89 c1             	mov    %rax,%rcx
    40003cba:	48 8b 73 08          	mov    0x8(%rbx),%rsi
    40003cbe:	74 6d                	je     40003d2d <fgets+0xfd>
    40003cc0:	49 89 c6             	mov    %rax,%r14
    40003cc3:	49 29 f6             	sub    %rsi,%r14
    40003cc6:	49 ff c6             	inc    %r14
    40003cc9:	49 63 c5             	movslq %r13d,%rax
    40003ccc:	48 89 ef             	mov    %rbp,%rdi
    40003ccf:	48 89 4c 24 08       	mov    %rcx,0x8(%rsp)
    40003cd4:	49 39 c6             	cmp    %rax,%r14
    40003cd7:	4c 0f 47 f0          	cmova  %rax,%r14
    40003cdb:	4c 89 f2             	mov    %r14,%rdx
    40003cde:	4c 01 f5             	add    %r14,%rbp
    40003ce1:	e8 87 22 00 00       	callq  40005f6d <memcpy>
    40003ce6:	4c 89 f2             	mov    %r14,%rdx
    40003ce9:	48 03 53 08          	add    0x8(%rbx),%rdx
    40003ced:	45 29 f5             	sub    %r14d,%r13d
    40003cf0:	48 89 53 08          	mov    %rdx,0x8(%rbx)
    40003cf4:	74 56                	je     40003d4c <fgets+0x11c>
    40003cf6:	48 8b 4c 24 08       	mov    0x8(%rsp),%rcx
    40003cfb:	48 85 c9             	test   %rcx,%rcx
    40003cfe:	75 4c                	jne    40003d4c <fgets+0x11c>
    40003d00:	48 3b 53 10          	cmp    0x10(%rbx),%rdx
    40003d04:	73 30                	jae    40003d36 <fgets+0x106>
    40003d06:	48 8d 42 01          	lea    0x1(%rdx),%rax
    40003d0a:	48 89 43 08          	mov    %rax,0x8(%rbx)
    40003d0e:	0f b6 02             	movzbl (%rdx),%eax
    40003d11:	48 8d 55 01          	lea    0x1(%rbp),%rdx
    40003d15:	41 ff cd             	dec    %r13d
    40003d18:	3c 0a                	cmp    $0xa,%al
    40003d1a:	88 45 00             	mov    %al,0x0(%rbp)
    40003d1d:	48 89 d5             	mov    %rdx,%rbp
    40003d20:	74 2a                	je     40003d4c <fgets+0x11c>
    40003d22:	45 85 ed             	test   %r13d,%r13d
    40003d25:	0f 85 74 ff ff ff    	jne    40003c9f <fgets+0x6f>
    40003d2b:	eb 1f                	jmp    40003d4c <fgets+0x11c>
    40003d2d:	4c 8b 73 10          	mov    0x10(%rbx),%r14
    40003d31:	49 29 f6             	sub    %rsi,%r14
    40003d34:	eb 93                	jmp    40003cc9 <fgets+0x99>
    40003d36:	48 89 df             	mov    %rbx,%rdi
    40003d39:	e8 57 2c 00 00       	callq  40006995 <__uflow>
    40003d3e:	85 c0                	test   %eax,%eax
    40003d40:	79 cf                	jns    40003d11 <fgets+0xe1>
    40003d42:	4c 39 e5             	cmp    %r12,%rbp
    40003d45:	74 10                	je     40003d57 <fgets+0x127>
    40003d47:	f6 03 10             	testb  $0x10,(%rbx)
    40003d4a:	74 0b                	je     40003d57 <fgets+0x127>
    40003d4c:	4d 85 e4             	test   %r12,%r12
    40003d4f:	74 09                	je     40003d5a <fgets+0x12a>
    40003d51:	c6 45 00 00          	movb   $0x0,0x0(%rbp)
    40003d55:	eb 03                	jmp    40003d5a <fgets+0x12a>
    40003d57:	45 31 e4             	xor    %r12d,%r12d
    40003d5a:	45 85 ff             	test   %r15d,%r15d
    40003d5d:	74 0d                	je     40003d6c <fgets+0x13c>
    40003d5f:	48 89 df             	mov    %rbx,%rdi
    40003d62:	e8 d9 28 00 00       	callq  40006640 <__unlockfile>
    40003d67:	eb 03                	jmp    40003d6c <fgets+0x13c>
    40003d69:	45 31 e4             	xor    %r12d,%r12d
    40003d6c:	48 83 c4 18          	add    $0x18,%rsp
    40003d70:	4c 89 e0             	mov    %r12,%rax
    40003d73:	5b                   	pop    %rbx
    40003d74:	5d                   	pop    %rbp
    40003d75:	41 5c                	pop    %r12
    40003d77:	41 5d                	pop    %r13
    40003d79:	41 5e                	pop    %r14
    40003d7b:	41 5f                	pop    %r15
    40003d7d:	c3                   	retq   

0000000040003d7e <fopen>:
    40003d7e:	41 54                	push   %r12
    40003d80:	55                   	push   %rbp
    40003d81:	48 89 f5             	mov    %rsi,%rbp
    40003d84:	53                   	push   %rbx
    40003d85:	0f be 36             	movsbl (%rsi),%esi
    40003d88:	48 89 fb             	mov    %rdi,%rbx
    40003d8b:	bf 9c 03 40 40       	mov    $0x4040039c,%edi
    40003d90:	e8 1b 20 00 00       	callq  40005db0 <strchr>
    40003d95:	48 85 c0             	test   %rax,%rax
    40003d98:	75 0d                	jne    40003da7 <fopen+0x29>
    40003d9a:	e8 24 e6 ff ff       	callq  400023c3 <__tls_errno_location>
    40003d9f:	c7 00 16 00 00 00    	movl   $0x16,(%rax)
    40003da5:	eb 70                	jmp    40003e17 <fopen+0x99>
    40003da7:	48 89 ef             	mov    %rbp,%rdi
    40003daa:	e8 bc 27 00 00       	callq  4000656b <__fmodeflags>
    40003daf:	48 89 de             	mov    %rbx,%rsi
    40003db2:	48 63 d0             	movslq %eax,%rdx
    40003db5:	b9 b6 01 00 00       	mov    $0x1b6,%ecx
    40003dba:	bf 02 00 00 00       	mov    $0x2,%edi
    40003dbf:	41 89 c4             	mov    %eax,%r12d
    40003dc2:	e8 2f 63 00 00       	callq  4000a0f6 <ocall_syscall3>
    40003dc7:	48 89 c7             	mov    %rax,%rdi
    40003dca:	e8 21 24 00 00       	callq  400061f0 <__syscall_ret>
    40003dcf:	85 c0                	test   %eax,%eax
    40003dd1:	48 89 c3             	mov    %rax,%rbx
    40003dd4:	78 41                	js     40003e17 <fopen+0x99>
    40003dd6:	41 81 e4 00 00 08 00 	and    $0x80000,%r12d
    40003ddd:	74 17                	je     40003df6 <fopen+0x78>
    40003ddf:	48 63 f0             	movslq %eax,%rsi
    40003de2:	b9 01 00 00 00       	mov    $0x1,%ecx
    40003de7:	ba 02 00 00 00       	mov    $0x2,%edx
    40003dec:	bf 48 00 00 00       	mov    $0x48,%edi
    40003df1:	e8 00 63 00 00       	callq  4000a0f6 <ocall_syscall3>
    40003df6:	48 89 ee             	mov    %rbp,%rsi
    40003df9:	89 df                	mov    %ebx,%edi
    40003dfb:	e8 fd 25 00 00       	callq  400063fd <__fdopen>
    40003e00:	48 85 c0             	test   %rax,%rax
    40003e03:	48 89 c5             	mov    %rax,%rbp
    40003e06:	75 11                	jne    40003e19 <fopen+0x9b>
    40003e08:	48 63 f3             	movslq %ebx,%rsi
    40003e0b:	bf 03 00 00 00       	mov    $0x3,%edi
    40003e10:	e8 65 5e 00 00       	callq  40009c7a <ocall_syscall1>
    40003e15:	eb 02                	jmp    40003e19 <fopen+0x9b>
    40003e17:	31 ed                	xor    %ebp,%ebp
    40003e19:	5b                   	pop    %rbx
    40003e1a:	48 89 e8             	mov    %rbp,%rax
    40003e1d:	5d                   	pop    %rbp
    40003e1e:	41 5c                	pop    %r12
    40003e20:	c3                   	retq   

0000000040003e21 <fprintf>:
    40003e21:	48 81 ec d8 00 00 00 	sub    $0xd8,%rsp
    40003e28:	84 c0                	test   %al,%al
    40003e2a:	48 89 54 24 30       	mov    %rdx,0x30(%rsp)
    40003e2f:	48 89 4c 24 38       	mov    %rcx,0x38(%rsp)
    40003e34:	4c 89 44 24 40       	mov    %r8,0x40(%rsp)
    40003e39:	4c 89 4c 24 48       	mov    %r9,0x48(%rsp)
    40003e3e:	74 37                	je     40003e77 <fprintf+0x56>
    40003e40:	0f 29 44 24 50       	movaps %xmm0,0x50(%rsp)
    40003e45:	0f 29 4c 24 60       	movaps %xmm1,0x60(%rsp)
    40003e4a:	0f 29 54 24 70       	movaps %xmm2,0x70(%rsp)
    40003e4f:	0f 29 9c 24 80 00 00 	movaps %xmm3,0x80(%rsp)
    40003e56:	00 
    40003e57:	0f 29 a4 24 90 00 00 	movaps %xmm4,0x90(%rsp)
    40003e5e:	00 
    40003e5f:	0f 29 ac 24 a0 00 00 	movaps %xmm5,0xa0(%rsp)
    40003e66:	00 
    40003e67:	0f 29 b4 24 b0 00 00 	movaps %xmm6,0xb0(%rsp)
    40003e6e:	00 
    40003e6f:	0f 29 bc 24 c0 00 00 	movaps %xmm7,0xc0(%rsp)
    40003e76:	00 
    40003e77:	48 8d 84 24 e0 00 00 	lea    0xe0(%rsp),%rax
    40003e7e:	00 
    40003e7f:	48 8d 54 24 08       	lea    0x8(%rsp),%rdx
    40003e84:	48 89 44 24 10       	mov    %rax,0x10(%rsp)
    40003e89:	48 8d 44 24 20       	lea    0x20(%rsp),%rax
    40003e8e:	c7 44 24 08 10 00 00 	movl   $0x10,0x8(%rsp)
    40003e95:	00 
    40003e96:	c7 44 24 0c 30 00 00 	movl   $0x30,0xc(%rsp)
    40003e9d:	00 
    40003e9e:	48 89 44 24 18       	mov    %rax,0x18(%rsp)
    40003ea3:	e8 64 1c 00 00       	callq  40005b0c <vfprintf>
    40003ea8:	48 81 c4 d8 00 00 00 	add    $0xd8,%rsp
    40003eaf:	c3                   	retq   

0000000040003eb0 <__fwritex>:
    40003eb0:	41 55                	push   %r13
    40003eb2:	49 89 fd             	mov    %rdi,%r13
    40003eb5:	41 54                	push   %r12
    40003eb7:	49 89 f4             	mov    %rsi,%r12
    40003eba:	55                   	push   %rbp
    40003ebb:	53                   	push   %rbx
    40003ebc:	48 89 d3             	mov    %rdx,%rbx
    40003ebf:	41 50                	push   %r8
    40003ec1:	48 83 7a 20 00       	cmpq   $0x0,0x20(%rdx)
    40003ec6:	74 23                	je     40003eeb <__fwritex+0x3b>
    40003ec8:	48 8b 43 20          	mov    0x20(%rbx),%rax
    40003ecc:	48 2b 43 28          	sub    0x28(%rbx),%rax
    40003ed0:	49 39 c4             	cmp    %rax,%r12
    40003ed3:	76 26                	jbe    40003efb <__fwritex+0x4b>
    40003ed5:	48 8b 43 48          	mov    0x48(%rbx),%rax
    40003ed9:	48 89 df             	mov    %rbx,%rdi
    40003edc:	4c 89 e2             	mov    %r12,%rdx
    40003edf:	59                   	pop    %rcx
    40003ee0:	5b                   	pop    %rbx
    40003ee1:	5d                   	pop    %rbp
    40003ee2:	41 5c                	pop    %r12
    40003ee4:	4c 89 ee             	mov    %r13,%rsi
    40003ee7:	41 5d                	pop    %r13
    40003ee9:	ff e0                	jmpq   *%rax
    40003eeb:	48 89 d7             	mov    %rdx,%rdi
    40003eee:	e8 56 2a 00 00       	callq  40006949 <__towrite>
    40003ef3:	85 c0                	test   %eax,%eax
    40003ef5:	74 d1                	je     40003ec8 <__fwritex+0x18>
    40003ef7:	31 c0                	xor    %eax,%eax
    40003ef9:	eb 57                	jmp    40003f52 <__fwritex+0xa2>
    40003efb:	80 bb 8b 00 00 00 00 	cmpb   $0x0,0x8b(%rbx)
    40003f02:	78 19                	js     40003f1d <__fwritex+0x6d>
    40003f04:	4c 89 e5             	mov    %r12,%rbp
    40003f07:	48 85 ed             	test   %rbp,%rbp
    40003f0a:	74 13                	je     40003f1f <__fwritex+0x6f>
    40003f0c:	41 80 7c 2d ff 0a    	cmpb   $0xa,-0x1(%r13,%rbp,1)
    40003f12:	48 8d 45 ff          	lea    -0x1(%rbp),%rax
    40003f16:	74 21                	je     40003f39 <__fwritex+0x89>
    40003f18:	48 89 c5             	mov    %rax,%rbp
    40003f1b:	eb ea                	jmp    40003f07 <__fwritex+0x57>
    40003f1d:	31 ed                	xor    %ebp,%ebp
    40003f1f:	48 8b 7b 28          	mov    0x28(%rbx),%rdi
    40003f23:	4c 89 e2             	mov    %r12,%rdx
    40003f26:	4c 89 ee             	mov    %r13,%rsi
    40003f29:	e8 3f 20 00 00       	callq  40005f6d <memcpy>
    40003f2e:	4c 01 63 28          	add    %r12,0x28(%rbx)
    40003f32:	4a 8d 44 25 00       	lea    0x0(%rbp,%r12,1),%rax
    40003f37:	eb 19                	jmp    40003f52 <__fwritex+0xa2>
    40003f39:	48 89 ea             	mov    %rbp,%rdx
    40003f3c:	4c 89 ee             	mov    %r13,%rsi
    40003f3f:	48 89 df             	mov    %rbx,%rdi
