
memcached_enclave:     file format elf64-x86-64


Disassembly of section .text:

0000000018000000 <enclave_start>:
    18000000:	49 83 f9 00          	cmp    $0x0,%r9
    18000004:	75 35                	jne    1800003b <entry>
    18000006:	48 89 e0             	mov    %rsp,%rax
    18000009:	48 c7 c4 00 10 80 18 	mov    $0x18801000,%rsp
    18000010:	50                   	push   %rax
    18000011:	53                   	push   %rbx
    18000012:	51                   	push   %rcx
    18000013:	52                   	push   %rdx
    18000014:	55                   	push   %rbp
    18000015:	56                   	push   %rsi
    18000016:	57                   	push   %rdi
    18000017:	41 50                	push   %r8
    18000019:	41 51                	push   %r9
    1800001b:	41 52                	push   %r10
    1800001d:	41 53                	push   %r11
    1800001f:	41 54                	push   %r12
    18000021:	41 55                	push   %r13
    18000023:	41 56                	push   %r14
    18000025:	41 57                	push   %r15
    18000027:	9c                   	pushfq 
    18000028:	48 8d 05 59 00 00 00 	lea    0x59(%rip),%rax        # 18000088 <exit>
    1800002f:	50                   	push   %rax
    18000030:	4c 89 cf             	mov    %r9,%rdi
    18000033:	4c 89 d6             	mov    %r10,%rsi
    18000036:	e9 03 01 00 00       	jmpq   1800013e <trampoline>

000000001800003b <entry>:
    1800003b:	49 81 f9 86 00 01 00 	cmp    $0x10086,%r9
    18000042:	0f 84 ca 00 00 00    	je     18000112 <ocall_return>
    18000048:	48 89 e0             	mov    %rsp,%rax
    1800004b:	64 48 89 04 25 20 00 	mov    %rax,%fs:0x20
    18000052:	00 00 
    18000054:	64 48 8b 24 25 30 00 	mov    %fs:0x30,%rsp
    1800005b:	00 00 
    1800005d:	50                   	push   %rax
    1800005e:	53                   	push   %rbx
    1800005f:	51                   	push   %rcx
    18000060:	52                   	push   %rdx
    18000061:	55                   	push   %rbp
    18000062:	56                   	push   %rsi
    18000063:	57                   	push   %rdi
    18000064:	41 50                	push   %r8
    18000066:	41 51                	push   %r9
    18000068:	41 52                	push   %r10
    1800006a:	41 53                	push   %r11
    1800006c:	41 54                	push   %r12
    1800006e:	41 55                	push   %r13
    18000070:	41 56                	push   %r14
    18000072:	41 57                	push   %r15
    18000074:	9c                   	pushfq 
    18000075:	48 8d 05 0c 00 00 00 	lea    0xc(%rip),%rax        # 18000088 <exit>
    1800007c:	50                   	push   %rax
    1800007d:	4c 89 cf             	mov    %r9,%rdi
    18000080:	4c 89 d6             	mov    %r10,%rsi
    18000083:	e9 b6 00 00 00       	jmpq   1800013e <trampoline>

0000000018000088 <exit>:
    18000088:	9d                   	popfq  
    18000089:	41 5f                	pop    %r15
    1800008b:	41 5e                	pop    %r14
    1800008d:	41 5d                	pop    %r13
    1800008f:	41 5c                	pop    %r12
    18000091:	41 5b                	pop    %r11
    18000093:	41 5a                	pop    %r10
    18000095:	41 59                	pop    %r9
    18000097:	41 58                	pop    %r8
    18000099:	5f                   	pop    %rdi
    1800009a:	5e                   	pop    %rsi
    1800009b:	5d                   	pop    %rbp
    1800009c:	5a                   	pop    %rdx
    1800009d:	59                   	pop    %rcx
    1800009e:	5b                   	pop    %rbx
    1800009f:	5c                   	pop    %rsp
    180000a0:	48 89 cb             	mov    %rcx,%rbx
    180000a3:	48 c7 c1 00 50 40 00 	mov    $0x405000,%rcx
    180000aa:	48 c7 c0 04 00 00 00 	mov    $0x4,%rax

00000000180000b1 <eexit_tag>:
    180000b1:	0f 01 d7             	enclu  
    180000b4:	90                   	nop
    180000b5:	90                   	nop
    180000b6:	90                   	nop
    180000b7:	90                   	nop
    180000b8:	90                   	nop
    180000b9:	90                   	nop
    180000ba:	90                   	nop
    180000bb:	90                   	nop
    180000bc:	90                   	nop
    180000bd:	90                   	nop
    180000be:	90                   	nop
    180000bf:	90                   	nop
    180000c0:	90                   	nop
    180000c1:	90                   	nop

00000000180000c2 <ocall_syscall>:
    180000c2:	48 8d 44 24 08       	lea    0x8(%rsp),%rax
    180000c7:	64 48 89 04 25 30 00 	mov    %rax,%fs:0x30
    180000ce:	00 00 
    180000d0:	48 8b 04 24          	mov    (%rsp),%rax
    180000d4:	64 48 8b 24 25 10 00 	mov    %fs:0x10,%rsp
    180000db:	00 00 
    180000dd:	50                   	push   %rax
    180000de:	53                   	push   %rbx
    180000df:	51                   	push   %rcx
    180000e0:	52                   	push   %rdx
    180000e1:	55                   	push   %rbp
    180000e2:	56                   	push   %rsi
    180000e3:	57                   	push   %rdi
    180000e4:	41 50                	push   %r8
    180000e6:	41 51                	push   %r9
    180000e8:	41 52                	push   %r10
    180000ea:	41 53                	push   %r11
    180000ec:	41 54                	push   %r12
    180000ee:	41 55                	push   %r13
    180000f0:	41 56                	push   %r14
    180000f2:	41 57                	push   %r15
    180000f4:	9c                   	pushfq 
    180000f5:	64 48 8b 24 25 20 00 	mov    %fs:0x20,%rsp
    180000fc:	00 00 
    180000fe:	48 8b 1c 25 40 59 41 	mov    0x18415940,%rbx
    18000105:	18 
    18000106:	48 c7 c0 04 00 00 00 	mov    $0x4,%rax
    1800010d:	e9 9f ff ff ff       	jmpq   180000b1 <eexit_tag>

0000000018000112 <ocall_return>:
    18000112:	64 48 8b 24 25 18 00 	mov    %fs:0x18,%rsp
    18000119:	00 00 
    1800011b:	9d                   	popfq  
    1800011c:	41 5f                	pop    %r15
    1800011e:	41 5e                	pop    %r14
    18000120:	41 5d                	pop    %r13
    18000122:	41 5c                	pop    %r12
    18000124:	41 5b                	pop    %r11
    18000126:	41 5a                	pop    %r10
    18000128:	41 59                	pop    %r9
    1800012a:	41 58                	pop    %r8
    1800012c:	5f                   	pop    %rdi
    1800012d:	5e                   	pop    %rsi
    1800012e:	5d                   	pop    %rbp
    1800012f:	5a                   	pop    %rdx
    18000130:	59                   	pop    %rcx
    18000131:	5b                   	pop    %rbx
    18000132:	58                   	pop    %rax
    18000133:	64 48 8b 24 25 30 00 	mov    %fs:0x30,%rsp
    1800013a:	00 00 
    1800013c:	ff e0                	jmpq   *%rax

000000001800013e <trampoline>:
    1800013e:	55                   	push   %rbp
    1800013f:	48 89 e5             	mov    %rsp,%rbp
    18000142:	48 83 ec 40          	sub    $0x40,%rsp
    18000146:	48 89 7d c8          	mov    %rdi,-0x38(%rbp)
    1800014a:	48 89 75 c0          	mov    %rsi,-0x40(%rbp)
    1800014e:	48 8b 45 c8          	mov    -0x38(%rbp),%rax
    18000152:	48 83 f8 01          	cmp    $0x1,%rax
    18000156:	74 1e                	je     18000176 <trampoline+0x38>
    18000158:	48 3d 87 00 01 00    	cmp    $0x10087,%rax
    1800015e:	74 5d                	je     180001bd <trampoline+0x7f>
    18000160:	48 85 c0             	test   %rax,%rax
    18000163:	75 66                	jne    180001cb <trampoline+0x8d>
    18000165:	48 8b 45 c0          	mov    -0x40(%rbp),%rax
    18000169:	48 89 c7             	mov    %rax,%rdi
    1800016c:	e8 05 d7 01 00       	callq  1801d876 <init_syscall>
    18000171:	e9 93 00 00 00       	jmpq   18000209 <trampoline+0xcb>
    18000176:	e8 63 d9 01 00       	callq  1801dade <__tls_outside_buffer>
    1800017b:	48 8b 00             	mov    (%rax),%rax
    1800017e:	48 05 00 10 00 00    	add    $0x1000,%rax
    18000184:	48 89 45 f8          	mov    %rax,-0x8(%rbp)
    18000188:	48 8b 45 f8          	mov    -0x8(%rbp),%rax
    1800018c:	48 8b 00             	mov    (%rax),%rax
    1800018f:	89 45 f4             	mov    %eax,-0xc(%rbp)
    18000192:	83 6d f4 01          	subl   $0x1,-0xc(%rbp)
    18000196:	48 8b 45 f8          	mov    -0x8(%rbp),%rax
    1800019a:	48 83 c0 08          	add    $0x8,%rax
    1800019e:	48 8b 00             	mov    (%rax),%rax
    180001a1:	48 89 45 e8          	mov    %rax,-0x18(%rbp)
    180001a5:	48 83 45 e8 08       	addq   $0x8,-0x18(%rbp)
    180001aa:	48 8b 55 e8          	mov    -0x18(%rbp),%rdx
    180001ae:	8b 45 f4             	mov    -0xc(%rbp),%eax
    180001b1:	48 89 d6             	mov    %rdx,%rsi
    180001b4:	89 c7                	mov    %eax,%edi
    180001b6:	e8 73 d2 00 00       	callq  1800d42e <main>
    180001bb:	eb 4c                	jmp    18000209 <trampoline+0xcb>
    180001bd:	48 8b 45 c0          	mov    -0x40(%rbp),%rax
    180001c1:	48 89 c7             	mov    %rax,%rdi
    180001c4:	e8 aa de 02 00       	callq  1802e073 <dump_out>
    180001c9:	eb 3e                	jmp    18000209 <trampoline+0xcb>
    180001cb:	48 8d 3d 2e fe 3f 00 	lea    0x3ffe2e(%rip),%rdi        # 18400000 <data_start>
    180001d2:	e8 15 33 02 00       	callq  180234ec <puts>
    180001d7:	48 8b 45 c8          	mov    -0x38(%rbp),%rax
    180001db:	48 89 45 e0          	mov    %rax,-0x20(%rbp)
    180001df:	48 8b 55 c0          	mov    -0x40(%rbp),%rdx
    180001e3:	48 8b 45 e0          	mov    -0x20(%rbp),%rax
    180001e7:	48 89 d7             	mov    %rdx,%rdi
    180001ea:	ff d0                	callq  *%rax
    180001ec:	48 89 45 d8          	mov    %rax,-0x28(%rbp)
    180001f0:	48 8b 45 d8          	mov    -0x28(%rbp),%rax
    180001f4:	48 89 c6             	mov    %rax,%rsi
    180001f7:	48 8d 3d 2a fe 3f 00 	lea    0x3ffe2a(%rip),%rdi        # 18400028 <data_start+0x28>
    180001fe:	b8 00 00 00 00       	mov    $0x0,%eax
    18000203:	e8 ab 31 02 00       	callq  180233b3 <printf>
    18000208:	90                   	nop
    18000209:	90                   	nop
    1800020a:	c9                   	leaveq 
    1800020b:	c3                   	retq   

000000001800020c <mutex_lock>:
    1800020c:	55                   	push   %rbp
    1800020d:	48 89 e5             	mov    %rsp,%rbp
    18000210:	48 83 ec 10          	sub    $0x10,%rsp
    18000214:	48 89 7d f8          	mov    %rdi,-0x8(%rbp)
    18000218:	90                   	nop
    18000219:	48 8b 45 f8          	mov    -0x8(%rbp),%rax
    1800021d:	48 89 c7             	mov    %rax,%rdi
    18000220:	e8 e2 75 02 00       	callq  18027807 <__pthread_mutex_trylock>
    18000225:	85 c0                	test   %eax,%eax
    18000227:	75 f0                	jne    18000219 <mutex_lock+0xd>
    18000229:	b8 00 00 00 00       	mov    $0x0,%eax
    1800022e:	c9                   	leaveq 
    1800022f:	c3                   	retq   

0000000018000230 <maxconns_handler>:
    18000230:	55                   	push   %rbp
    18000231:	48 89 e5             	mov    %rsp,%rbp
    18000234:	48 83 ec 20          	sub    $0x20,%rsp
    18000238:	89 7d ec             	mov    %edi,-0x14(%rbp)
    1800023b:	89 f0                	mov    %esi,%eax
    1800023d:	48 89 55 e0          	mov    %rdx,-0x20(%rbp)
    18000241:	66 89 45 e8          	mov    %ax,-0x18(%rbp)
    18000245:	48 c7 45 f0 00 00 00 	movq   $0x0,-0x10(%rbp)
    1800024c:	00 
    1800024d:	48 c7 45 f8 10 27 00 	movq   $0x2710,-0x8(%rbp)
    18000254:	00 
    18000255:	83 7d ec d6          	cmpl   $0xffffffd6,-0x14(%rbp)
    18000259:	74 0e                	je     18000269 <maxconns_handler+0x39>
    1800025b:	0f b6 05 de 93 40 00 	movzbl 0x4093de(%rip),%eax        # 18409640 <allow_new_conns>
    18000262:	83 f0 01             	xor    $0x1,%eax
    18000265:	84 c0                	test   %al,%al
    18000267:	74 4e                	je     180002b7 <maxconns_handler+0x87>
    18000269:	41 b8 00 00 00 00    	mov    $0x0,%r8d
    1800026f:	48 8d 0d ba ff ff ff 	lea    -0x46(%rip),%rcx        # 18000230 <maxconns_handler>
    18000276:	ba 00 00 00 00       	mov    $0x0,%edx
    1800027b:	be ff ff ff ff       	mov    $0xffffffff,%esi
    18000280:	48 8d 3d d9 96 40 00 	lea    0x4096d9(%rip),%rdi        # 18409960 <maxconnsevent>
    18000287:	e8 3c 98 01 00       	callq  18019ac8 <event_set>
    1800028c:	48 8b 05 bd 96 40 00 	mov    0x4096bd(%rip),%rax        # 18409950 <main_base>
    18000293:	48 8d 35 c6 96 40 00 	lea    0x4096c6(%rip),%rsi        # 18409960 <maxconnsevent>
    1800029a:	48 89 c7             	mov    %rax,%rdi
    1800029d:	e8 eb 98 01 00       	callq  18019b8d <event_base_set>
    180002a2:	48 8d 45 f0          	lea    -0x10(%rbp),%rax
    180002a6:	48 89 c6             	mov    %rax,%rsi
    180002a9:	48 8d 3d b0 96 40 00 	lea    0x4096b0(%rip),%rdi        # 18409960 <maxconnsevent>
    180002b0:	e8 d7 9a 01 00       	callq  18019d8c <event_add>
    180002b5:	eb 16                	jmp    180002cd <maxconns_handler+0x9d>
    180002b7:	48 8d 3d a2 96 40 00 	lea    0x4096a2(%rip),%rdi        # 18409960 <maxconnsevent>
    180002be:	e8 04 9d 01 00       	callq  18019fc7 <event_del>
    180002c3:	bf 01 00 00 00       	mov    $0x1,%edi
    180002c8:	e8 28 5a 01 00       	callq  18015cf5 <accept_new_conns>
    180002cd:	90                   	nop
    180002ce:	c9                   	leaveq 
    180002cf:	c3                   	retq   

00000000180002d0 <realtime>:
    180002d0:	55                   	push   %rbp
    180002d1:	48 89 e5             	mov    %rsp,%rbp
    180002d4:	48 89 7d f8          	mov    %rdi,-0x8(%rbp)
    180002d8:	48 83 7d f8 00       	cmpq   $0x0,-0x8(%rbp)
    180002dd:	75 07                	jne    180002e6 <realtime+0x16>
    180002df:	b8 00 00 00 00       	mov    $0x0,%eax
    180002e4:	eb 48                	jmp    1800032e <realtime+0x5e>
    180002e6:	48 81 7d f8 00 8d 27 	cmpq   $0x278d00,-0x8(%rbp)
    180002ed:	00 
    180002ee:	7e 2d                	jle    1800031d <realtime+0x4d>
    180002f0:	48 8d 05 a9 54 41 00 	lea    0x4154a9(%rip),%rax        # 184157a0 <process_started>
    180002f7:	48 8b 00             	mov    (%rax),%rax
    180002fa:	48 39 45 f8          	cmp    %rax,-0x8(%rbp)
    180002fe:	7f 07                	jg     18000307 <realtime+0x37>
    18000300:	b8 01 00 00 00       	mov    $0x1,%eax
    18000305:	eb 27                	jmp    1800032e <realtime+0x5e>
    18000307:	48 8b 45 f8          	mov    -0x8(%rbp),%rax
    1800030b:	89 c2                	mov    %eax,%edx
    1800030d:	48 8d 05 8c 54 41 00 	lea    0x41548c(%rip),%rax        # 184157a0 <process_started>
    18000314:	48 8b 00             	mov    (%rax),%rax
    18000317:	29 c2                	sub    %eax,%edx
    18000319:	89 d0                	mov    %edx,%eax
    1800031b:	eb 11                	jmp    1800032e <realtime+0x5e>
    1800031d:	48 8b 45 f8          	mov    -0x8(%rbp),%rax
    18000321:	89 c2                	mov    %eax,%edx
    18000323:	48 8d 05 6e 54 41 00 	lea    0x41546e(%rip),%rax        # 18415798 <current_time>
    1800032a:	8b 00                	mov    (%rax),%eax
    1800032c:	01 d0                	add    %edx,%eax
    1800032e:	5d                   	pop    %rbp
    1800032f:	c3                   	retq   

0000000018000330 <stats_init>:
    18000330:	55                   	push   %rbp
    18000331:	48 89 e5             	mov    %rsp,%rbp
    18000334:	48 8d 05 85 54 41 00 	lea    0x415485(%rip),%rax        # 184157c0 <stats>
    1800033b:	c7 40 54 00 00 00 00 	movl   $0x0,0x54(%rax)
    18000342:	48 8d 05 77 54 41 00 	lea    0x415477(%rip),%rax        # 184157c0 <stats>
    18000349:	8b 50 54             	mov    0x54(%rax),%edx
    1800034c:	48 8d 05 6d 54 41 00 	lea    0x41546d(%rip),%rax        # 184157c0 <stats>
    18000353:	89 50 3c             	mov    %edx,0x3c(%rax)
    18000356:	48 8d 05 63 54 41 00 	lea    0x415463(%rip),%rax        # 184157c0 <stats>
    1800035d:	8b 50 3c             	mov    0x3c(%rax),%edx
    18000360:	48 8d 05 59 54 41 00 	lea    0x415459(%rip),%rax        # 184157c0 <stats>
    18000367:	89 50 38             	mov    %edx,0x38(%rax)
    1800036a:	48 8d 05 4f 54 41 00 	lea    0x41544f(%rip),%rax        # 184157c0 <stats>
    18000371:	8b 50 38             	mov    0x38(%rax),%edx
    18000374:	48 8d 05 45 54 41 00 	lea    0x415445(%rip),%rax        # 184157c0 <stats>
    1800037b:	89 50 2c             	mov    %edx,0x2c(%rax)
    1800037e:	48 8d 05 3b 54 41 00 	lea    0x41543b(%rip),%rax        # 184157c0 <stats>
    18000385:	8b 50 2c             	mov    0x2c(%rax),%edx
    18000388:	48 8d 05 31 54 41 00 	lea    0x415431(%rip),%rax        # 184157c0 <stats>
    1800038f:	89 50 28             	mov    %edx,0x28(%rax)
    18000392:	48 8d 05 27 54 41 00 	lea    0x415427(%rip),%rax        # 184157c0 <stats>
    18000399:	48 c7 80 98 00 00 00 	movq   $0x0,0x98(%rax)
    180003a0:	00 00 00 00 
    180003a4:	48 8d 05 15 54 41 00 	lea    0x415415(%rip),%rax        # 184157c0 <stats>
    180003ab:	48 8b 90 98 00 00 00 	mov    0x98(%rax),%rdx
    180003b2:	48 8d 05 07 54 41 00 	lea    0x415407(%rip),%rax        # 184157c0 <stats>
    180003b9:	48 89 90 90 00 00 00 	mov    %rdx,0x90(%rax)
    180003c0:	48 8d 05 f9 53 41 00 	lea    0x4153f9(%rip),%rax        # 184157c0 <stats>
    180003c7:	48 8b 90 90 00 00 00 	mov    0x90(%rax),%rdx
    180003ce:	48 8d 05 eb 53 41 00 	lea    0x4153eb(%rip),%rax        # 184157c0 <stats>
    180003d5:	48 89 50 78          	mov    %rdx,0x78(%rax)
    180003d9:	48 8d 05 e0 53 41 00 	lea    0x4153e0(%rip),%rax        # 184157c0 <stats>
    180003e0:	48 8b 50 78          	mov    0x78(%rax),%rdx
    180003e4:	48 8d 05 d5 53 41 00 	lea    0x4153d5(%rip),%rax        # 184157c0 <stats>
    180003eb:	48 89 50 70          	mov    %rdx,0x70(%rax)
    180003ef:	48 8d 05 ca 53 41 00 	lea    0x4153ca(%rip),%rax        # 184157c0 <stats>
    180003f6:	48 8b 50 70          	mov    0x70(%rax),%rdx
    180003fa:	48 8d 05 bf 53 41 00 	lea    0x4153bf(%rip),%rax        # 184157c0 <stats>
    18000401:	48 89 50 60          	mov    %rdx,0x60(%rax)
    18000405:	48 8d 05 b4 53 41 00 	lea    0x4153b4(%rip),%rax        # 184157c0 <stats>
    1800040c:	48 8b 50 60          	mov    0x60(%rax),%rdx
    18000410:	48 8d 05 a9 53 41 00 	lea    0x4153a9(%rip),%rax        # 184157c0 <stats>
    18000417:	48 89 50 58          	mov    %rdx,0x58(%rax)
    1800041b:	48 8d 05 9e 53 41 00 	lea    0x41539e(%rip),%rax        # 184157c0 <stats>
    18000422:	48 c7 40 40 00 00 00 	movq   $0x0,0x40(%rax)
    18000429:	00 
    1800042a:	48 8d 05 8f 53 41 00 	lea    0x41538f(%rip),%rax        # 184157c0 <stats>
    18000431:	48 8b 50 40          	mov    0x40(%rax),%rdx
    18000435:	48 8d 05 84 53 41 00 	lea    0x415384(%rip),%rax        # 184157c0 <stats>
    1800043c:	48 89 90 80 00 00 00 	mov    %rdx,0x80(%rax)
    18000443:	48 8d 05 76 53 41 00 	lea    0x415376(%rip),%rax        # 184157c0 <stats>
    1800044a:	48 8b 90 80 00 00 00 	mov    0x80(%rax),%rdx
    18000451:	48 8d 05 68 53 41 00 	lea    0x415368(%rip),%rax        # 184157c0 <stats>
    18000458:	48 89 90 88 00 00 00 	mov    %rdx,0x88(%rax)
    1800045f:	48 8d 05 5a 53 41 00 	lea    0x41535a(%rip),%rax        # 184157c0 <stats>
    18000466:	48 8b 90 88 00 00 00 	mov    0x88(%rax),%rdx
    1800046d:	48 8d 05 4c 53 41 00 	lea    0x41534c(%rip),%rax        # 184157c0 <stats>
    18000474:	48 89 50 68          	mov    %rdx,0x68(%rax)
    18000478:	48 8d 05 41 53 41 00 	lea    0x415341(%rip),%rax        # 184157c0 <stats>
    1800047f:	48 c7 40 48 00 00 00 	movq   $0x0,0x48(%rax)
    18000486:	00 
    18000487:	48 8d 05 32 53 41 00 	lea    0x415332(%rip),%rax        # 184157c0 <stats>
    1800048e:	48 c7 80 b0 00 00 00 	movq   $0x0,0xb0(%rax)
    18000495:	00 00 00 00 
    18000499:	48 8d 05 20 53 41 00 	lea    0x415320(%rip),%rax        # 184157c0 <stats>
    180004a0:	48 8b 90 b0 00 00 00 	mov    0xb0(%rax),%rdx
    180004a7:	48 8d 05 12 53 41 00 	lea    0x415312(%rip),%rax        # 184157c0 <stats>
    180004ae:	48 89 50 30          	mov    %rdx,0x30(%rax)
    180004b2:	48 8d 05 07 53 41 00 	lea    0x415307(%rip),%rax        # 184157c0 <stats>
    180004b9:	c6 80 c8 00 00 00 00 	movb   $0x0,0xc8(%rax)
    180004c0:	48 8d 05 f9 52 41 00 	lea    0x4152f9(%rip),%rax        # 184157c0 <stats>
    180004c7:	48 c7 80 c0 00 00 00 	movq   $0x0,0xc0(%rax)
    180004ce:	00 00 00 00 
    180004d2:	48 8d 05 e7 52 41 00 	lea    0x4152e7(%rip),%rax        # 184157c0 <stats>
    180004d9:	48 8b 80 c0 00 00 00 	mov    0xc0(%rax),%rax
    180004e0:	89 c2                	mov    %eax,%edx
    180004e2:	48 8d 05 d7 52 41 00 	lea    0x4152d7(%rip),%rax        # 184157c0 <stats>
    180004e9:	89 90 b8 00 00 00    	mov    %edx,0xb8(%rax)
    180004ef:	48 8d 05 ca 52 41 00 	lea    0x4152ca(%rip),%rax        # 184157c0 <stats>
    180004f6:	48 c7 80 d8 00 00 00 	movq   $0x0,0xd8(%rax)
    180004fd:	00 00 00 00 
    18000501:	48 8d 05 b8 52 41 00 	lea    0x4152b8(%rip),%rax        # 184157c0 <stats>
    18000508:	48 8b 90 d8 00 00 00 	mov    0xd8(%rax),%rdx
    1800050f:	48 8d 05 aa 52 41 00 	lea    0x4152aa(%rip),%rax        # 184157c0 <stats>
    18000516:	48 89 90 d0 00 00 00 	mov    %rdx,0xd0(%rax)
    1800051d:	48 8d 05 9c 52 41 00 	lea    0x41529c(%rip),%rax        # 184157c0 <stats>
    18000524:	48 c7 80 e8 00 00 00 	movq   $0x0,0xe8(%rax)
    1800052b:	00 00 00 00 
    1800052f:	48 8d 05 8a 52 41 00 	lea    0x41528a(%rip),%rax        # 184157c0 <stats>
    18000536:	c6 80 a8 00 00 00 01 	movb   $0x1,0xa8(%rax)
    1800053d:	48 8d 05 7c 52 41 00 	lea    0x41527c(%rip),%rax        # 184157c0 <stats>
    18000544:	c6 80 e0 00 00 00 00 	movb   $0x0,0xe0(%rax)
    1800054b:	48 8d 05 6e 52 41 00 	lea    0x41526e(%rip),%rax        # 184157c0 <stats>
    18000552:	c6 80 f0 00 00 00 00 	movb   $0x0,0xf0(%rax)
    18000559:	bf 00 00 00 00       	mov    $0x0,%edi
    1800055e:	e8 3a 79 02 00       	callq  18027e9d <time>
    18000563:	48 8d 50 c2          	lea    -0x3e(%rax),%rdx
    18000567:	48 8d 05 32 52 41 00 	lea    0x415232(%rip),%rax        # 184157a0 <process_started>
    1800056e:	48 89 10             	mov    %rdx,(%rax)
    18000571:	e8 04 73 01 00       	callq  1801787a <stats_prefix_init>
    18000576:	90                   	nop
    18000577:	5d                   	pop    %rbp
    18000578:	c3                   	retq   

0000000018000579 <stats_reset>:
    18000579:	55                   	push   %rbp
    1800057a:	48 89 e5             	mov    %rsp,%rbp
    1800057d:	e8 f5 61 01 00       	callq  18016777 <STATS_LOCK>
    18000582:	48 8d 05 37 52 41 00 	lea    0x415237(%rip),%rax        # 184157c0 <stats>
    18000589:	c7 40 3c 00 00 00 00 	movl   $0x0,0x3c(%rax)
    18000590:	48 8d 05 29 52 41 00 	lea    0x415229(%rip),%rax        # 184157c0 <stats>
    18000597:	8b 50 3c             	mov    0x3c(%rax),%edx
    1800059a:	48 8d 05 1f 52 41 00 	lea    0x41521f(%rip),%rax        # 184157c0 <stats>
    180005a1:	89 50 2c             	mov    %edx,0x2c(%rax)
    180005a4:	48 8d 05 15 52 41 00 	lea    0x415215(%rip),%rax        # 184157c0 <stats>
    180005ab:	48 c7 40 40 00 00 00 	movq   $0x0,0x40(%rax)
    180005b2:	00 
    180005b3:	48 8d 05 06 52 41 00 	lea    0x415206(%rip),%rax        # 184157c0 <stats>
    180005ba:	48 c7 40 48 00 00 00 	movq   $0x0,0x48(%rax)
    180005c1:	00 
    180005c2:	48 8d 05 f7 51 41 00 	lea    0x4151f7(%rip),%rax        # 184157c0 <stats>
    180005c9:	48 c7 80 90 00 00 00 	movq   $0x0,0x90(%rax)
    180005d0:	00 00 00 00 
    180005d4:	48 8d 05 e5 51 41 00 	lea    0x4151e5(%rip),%rax        # 184157c0 <stats>
    180005db:	48 c7 80 98 00 00 00 	movq   $0x0,0x98(%rax)
    180005e2:	00 00 00 00 
    180005e6:	48 8d 05 d3 51 41 00 	lea    0x4151d3(%rip),%rax        # 184157c0 <stats>
    180005ed:	48 c7 80 b0 00 00 00 	movq   $0x0,0xb0(%rax)
    180005f4:	00 00 00 00 
    180005f8:	e8 9a 72 01 00       	callq  18017897 <stats_prefix_clear>
    180005fd:	e8 88 61 01 00       	callq  1801678a <STATS_UNLOCK>
    18000602:	e8 96 61 01 00       	callq  1801679d <threadlocal_stats_reset>
    18000607:	e8 67 15 01 00       	callq  18011b73 <item_stats_reset>
    1800060c:	90                   	nop
    1800060d:	5d                   	pop    %rbp
    1800060e:	c3                   	retq   

000000001800060f <settings_init>:
    1800060f:	55                   	push   %rbp
    18000610:	48 89 e5             	mov    %rsp,%rbp
    18000613:	48 8d 05 e6 50 41 00 	lea    0x4150e6(%rip),%rax        # 18415700 <settings>
    1800061a:	c6 40 60 01          	movb   $0x1,0x60(%rax)
    1800061e:	48 8d 05 db 50 41 00 	lea    0x4150db(%rip),%rax        # 18415700 <settings>
    18000625:	c7 40 38 c0 01 00 00 	movl   $0x1c0,0x38(%rax)
    1800062c:	48 8d 05 cd 50 41 00 	lea    0x4150cd(%rip),%rax        # 18415700 <settings>
    18000633:	c7 40 0c cb 2b 00 00 	movl   $0x2bcb,0xc(%rax)
    1800063a:	48 8d 05 bf 50 41 00 	lea    0x4150bf(%rip),%rax        # 18415700 <settings>
    18000641:	c7 40 10 cb 2b 00 00 	movl   $0x2bcb,0x10(%rax)
    18000648:	48 8d 05 b1 50 41 00 	lea    0x4150b1(%rip),%rax        # 18415700 <settings>
    1800064f:	48 c7 40 18 00 00 00 	movq   $0x0,0x18(%rax)
    18000656:	00 
    18000657:	48 8d 05 a2 50 41 00 	lea    0x4150a2(%rip),%rax        # 18415700 <settings>
    1800065e:	48 c7 00 00 00 00 04 	movq   $0x4000000,(%rax)
    18000665:	48 8d 05 94 50 41 00 	lea    0x415094(%rip),%rax        # 18415700 <settings>
    1800066c:	c7 40 08 00 04 00 00 	movl   $0x400,0x8(%rax)
    18000673:	48 8d 05 86 50 41 00 	lea    0x415086(%rip),%rax        # 18415700 <settings>
    1800067a:	c7 40 20 00 00 00 00 	movl   $0x0,0x20(%rax)
    18000681:	48 8d 05 78 50 41 00 	lea    0x415078(%rip),%rax        # 18415700 <settings>
    18000688:	c7 40 24 00 00 00 00 	movl   $0x0,0x24(%rax)
    1800068f:	48 8d 05 6a 50 41 00 	lea    0x41506a(%rip),%rax        # 18415700 <settings>
    18000696:	c7 40 28 01 00 00 00 	movl   $0x1,0x28(%rax)
    1800069d:	48 8d 05 5c 50 41 00 	lea    0x41505c(%rip),%rax        # 18415700 <settings>
    180006a4:	48 c7 40 30 00 00 00 	movq   $0x0,0x30(%rax)
    180006ab:	00 
    180006ac:	48 8d 05 4d 50 41 00 	lea    0x41504d(%rip),%rax        # 18415700 <settings>
    180006b3:	f2 0f 10 05 d5 3b 40 	movsd  0x403bd5(%rip),%xmm0        # 18404290 <error_prefix.6138+0x10>
    180006ba:	00 
    180006bb:	f2 0f 11 40 40       	movsd  %xmm0,0x40(%rax)
    180006c0:	48 8d 05 39 50 41 00 	lea    0x415039(%rip),%rax        # 18415700 <settings>
    180006c7:	c7 40 48 30 00 00 00 	movl   $0x30,0x48(%rax)
    180006ce:	48 8d 05 2b 50 41 00 	lea    0x41502b(%rip),%rax        # 18415700 <settings>
    180006d5:	c7 40 4c 04 00 00 00 	movl   $0x4,0x4c(%rax)
    180006dc:	48 8d 05 1d 50 41 00 	lea    0x41501d(%rip),%rax        # 18415700 <settings>
    180006e3:	c7 40 50 00 00 00 00 	movl   $0x0,0x50(%rax)
    180006ea:	48 8d 05 0f 50 41 00 	lea    0x41500f(%rip),%rax        # 18415700 <settings>
    180006f1:	c6 40 54 3a          	movb   $0x3a,0x54(%rax)
    180006f5:	48 8d 05 04 50 41 00 	lea    0x415004(%rip),%rax        # 18415700 <settings>
    180006fc:	c7 40 58 00 00 00 00 	movl   $0x0,0x58(%rax)
    18000703:	48 8d 05 f6 4f 41 00 	lea    0x414ff6(%rip),%rax        # 18415700 <settings>
    1800070a:	c7 40 5c 14 00 00 00 	movl   $0x14,0x5c(%rax)
    18000711:	48 8d 05 e8 4f 41 00 	lea    0x414fe8(%rip),%rax        # 18415700 <settings>
    18000718:	c7 40 68 00 04 00 00 	movl   $0x400,0x68(%rax)
    1800071f:	48 8d 05 da 4f 41 00 	lea    0x414fda(%rip),%rax        # 18415700 <settings>
    18000726:	c7 40 64 05 00 00 00 	movl   $0x5,0x64(%rax)
    1800072d:	48 8d 05 cc 4f 41 00 	lea    0x414fcc(%rip),%rax        # 18415700 <settings>
    18000734:	c7 40 6c 00 00 10 00 	movl   $0x100000,0x6c(%rax)
    1800073b:	48 8d 05 be 4f 41 00 	lea    0x414fbe(%rip),%rax        # 18415700 <settings>
    18000742:	c6 40 71 00          	movb   $0x0,0x71(%rax)
    18000746:	48 8d 05 b3 4f 41 00 	lea    0x414fb3(%rip),%rax        # 18415700 <settings>
    1800074d:	c6 40 72 00          	movb   $0x0,0x72(%rax)
    18000751:	48 8d 05 a8 4f 41 00 	lea    0x414fa8(%rip),%rax        # 18415700 <settings>
    18000758:	c7 80 90 00 00 00 64 	movl   $0x64,0x90(%rax)
    1800075f:	00 00 00 
    18000762:	48 8d 05 97 4f 41 00 	lea    0x414f97(%rip),%rax        # 18415700 <settings>
    18000769:	c7 80 94 00 00 00 00 	movl   $0x0,0x94(%rax)
    18000770:	00 00 00 
    18000773:	48 8d 05 86 4f 41 00 	lea    0x414f86(%rip),%rax        # 18415700 <settings>
    1800077a:	c7 40 78 00 00 00 00 	movl   $0x0,0x78(%rax)
    18000781:	48 8d 05 78 4f 41 00 	lea    0x414f78(%rip),%rax        # 18415700 <settings>
    18000788:	c6 40 73 00          	movb   $0x0,0x73(%rax)
    1800078c:	48 8d 05 6d 4f 41 00 	lea    0x414f6d(%rip),%rax        # 18415700 <settings>
    18000793:	c7 40 74 00 00 00 00 	movl   $0x0,0x74(%rax)
    1800079a:	48 8d 05 5f 4f 41 00 	lea    0x414f5f(%rip),%rax        # 18415700 <settings>
    180007a1:	c6 40 7c 00          	movb   $0x0,0x7c(%rax)
    180007a5:	48 8d 05 54 4f 41 00 	lea    0x414f54(%rip),%rax        # 18415700 <settings>
    180007ac:	c7 80 80 00 00 00 00 	movl   $0x0,0x80(%rax)
    180007b3:	00 00 00 
    180007b6:	48 8d 05 43 4f 41 00 	lea    0x414f43(%rip),%rax        # 18415700 <settings>
    180007bd:	c6 80 84 00 00 00 01 	movb   $0x1,0x84(%rax)
    180007c4:	90                   	nop
    180007c5:	5d                   	pop    %rbp
    180007c6:	c3                   	retq   

00000000180007c7 <add_msghdr>:
    180007c7:	55                   	push   %rbp
    180007c8:	48 89 e5             	mov    %rsp,%rbp
    180007cb:	48 83 ec 20          	sub    $0x20,%rsp
    180007cf:	48 89 7d e8          	mov    %rdi,-0x18(%rbp)
    180007d3:	48 8b 45 e8          	mov    -0x18(%rbp),%rax
    180007d7:	8b 90 20 01 00 00    	mov    0x120(%rax),%edx
    180007dd:	48 8b 45 e8          	mov    -0x18(%rbp),%rax
    180007e1:	8b 80 24 01 00 00    	mov    0x124(%rax),%eax
    180007e7:	39 c2                	cmp    %eax,%edx
    180007e9:	0f 85 90 00 00 00    	jne    1800087f <add_msghdr+0xb8>
    180007ef:	48 8b 45 e8          	mov    -0x18(%rbp),%rax
    180007f3:	8b 80 20 01 00 00    	mov    0x120(%rax),%eax
    180007f9:	48 98                	cltq   
    180007fb:	48 c1 e0 04          	shl    $0x4,%rax
    180007ff:	48 8d 14 c5 00 00 00 	lea    0x0(,%rax,8),%rdx
    18000806:	00 
    18000807:	48 29 c2             	sub    %rax,%rdx
    1800080a:	48 8b 45 e8          	mov    -0x18(%rbp),%rax
    1800080e:	48 8b 80 18 01 00 00 	mov    0x118(%rax),%rax
    18000815:	48 89 d6             	mov    %rdx,%rsi
    18000818:	48 89 c7             	mov    %rax,%rdi
    1800081b:	e8 d0 e9 01 00       	callq  1801f1f0 <realloc>
    18000820:	48 89 45 f8          	mov    %rax,-0x8(%rbp)
    18000824:	48 83 7d f8 00       	cmpq   $0x0,-0x8(%rbp)
    18000829:	75 2e                	jne    18000859 <add_msghdr+0x92>
    1800082b:	e8 47 5f 01 00       	callq  18016777 <STATS_LOCK>
    18000830:	48 8d 05 89 4f 41 00 	lea    0x414f89(%rip),%rax        # 184157c0 <stats>
    18000837:	48 8b 40 48          	mov    0x48(%rax),%rax
    1800083b:	48 8d 50 01          	lea    0x1(%rax),%rdx
    1800083f:	48 8d 05 7a 4f 41 00 	lea    0x414f7a(%rip),%rax        # 184157c0 <stats>
    18000846:	48 89 50 48          	mov    %rdx,0x48(%rax)
    1800084a:	e8 3b 5f 01 00       	callq  1801678a <STATS_UNLOCK>
    1800084f:	b8 ff ff ff ff       	mov    $0xffffffff,%eax
    18000854:	e9 23 01 00 00       	jmpq   1800097c <add_msghdr+0x1b5>
    18000859:	48 8b 45 e8          	mov    -0x18(%rbp),%rax
    1800085d:	48 8b 55 f8          	mov    -0x8(%rbp),%rdx
    18000861:	48 89 90 18 01 00 00 	mov    %rdx,0x118(%rax)
    18000868:	48 8b 45 e8          	mov    -0x18(%rbp),%rax
    1800086c:	8b 80 20 01 00 00    	mov    0x120(%rax),%eax
    18000872:	8d 14 00             	lea    (%rax,%rax,1),%edx
    18000875:	48 8b 45 e8          	mov    -0x18(%rbp),%rax
    18000879:	89 90 20 01 00 00    	mov    %edx,0x120(%rax)
    1800087f:	48 8b 45 e8          	mov    -0x18(%rbp),%rax
    18000883:	48 8b 90 18 01 00 00 	mov    0x118(%rax),%rdx
    1800088a:	48 8b 45 e8          	mov    -0x18(%rbp),%rax
    1800088e:	8b 80 24 01 00 00    	mov    0x124(%rax),%eax
    18000894:	48 98                	cltq   
    18000896:	48 c1 e0 03          	shl    $0x3,%rax
    1800089a:	48 8d 0c c5 00 00 00 	lea    0x0(,%rax,8),%rcx
    180008a1:	00 
    180008a2:	48 29 c1             	sub    %rax,%rcx
    180008a5:	48 89 c8             	mov    %rcx,%rax
    180008a8:	48 01 d0             	add    %rdx,%rax
    180008ab:	48 89 45 f8          	mov    %rax,-0x8(%rbp)
    180008af:	48 8b 45 f8          	mov    -0x8(%rbp),%rax
    180008b3:	ba 38 00 00 00       	mov    $0x38,%edx
    180008b8:	be 00 00 00 00       	mov    $0x0,%esi
    180008bd:	48 89 c7             	mov    %rax,%rdi
    180008c0:	e8 a9 5d 02 00       	callq  1802666e <memset>
    180008c5:	48 8b 45 e8          	mov    -0x18(%rbp),%rax
    180008c9:	48 8b 90 08 01 00 00 	mov    0x108(%rax),%rdx
    180008d0:	48 8b 45 e8          	mov    -0x18(%rbp),%rax
    180008d4:	8b 80 14 01 00 00    	mov    0x114(%rax),%eax
    180008da:	48 98                	cltq   
    180008dc:	48 c1 e0 04          	shl    $0x4,%rax
    180008e0:	48 01 c2             	add    %rax,%rdx
    180008e3:	48 8b 45 f8          	mov    -0x8(%rbp),%rax
    180008e7:	48 89 50 10          	mov    %rdx,0x10(%rax)
    180008eb:	48 8b 45 e8          	mov    -0x18(%rbp),%rax
    180008ef:	8b 80 70 01 00 00    	mov    0x170(%rax),%eax
    180008f5:	83 f8 02             	cmp    $0x2,%eax
    180008f8:	75 31                	jne    1800092b <add_msghdr+0x164>
    180008fa:	48 8b 45 e8          	mov    -0x18(%rbp),%rax
    180008fe:	8b 80 94 01 00 00    	mov    0x194(%rax),%eax
    18000904:	85 c0                	test   %eax,%eax
    18000906:	74 23                	je     1800092b <add_msghdr+0x164>
    18000908:	48 8b 45 e8          	mov    -0x18(%rbp),%rax
    1800090c:	48 8d 90 78 01 00 00 	lea    0x178(%rax),%rdx
    18000913:	48 8b 45 f8          	mov    -0x8(%rbp),%rax
    18000917:	48 89 10             	mov    %rdx,(%rax)
    1800091a:	48 8b 45 e8          	mov    -0x18(%rbp),%rax
    1800091e:	8b 90 94 01 00 00    	mov    0x194(%rax),%edx
    18000924:	48 8b 45 f8          	mov    -0x8(%rbp),%rax
    18000928:	89 50 08             	mov    %edx,0x8(%rax)
    1800092b:	48 8b 45 e8          	mov    -0x18(%rbp),%rax
    1800092f:	c7 80 2c 01 00 00 00 	movl   $0x0,0x12c(%rax)
    18000936:	00 00 00 
    18000939:	48 8b 45 e8          	mov    -0x18(%rbp),%rax
    1800093d:	8b 80 24 01 00 00    	mov    0x124(%rax),%eax
    18000943:	8d 50 01             	lea    0x1(%rax),%edx
    18000946:	48 8b 45 e8          	mov    -0x18(%rbp),%rax
    1800094a:	89 90 24 01 00 00    	mov    %edx,0x124(%rax)
    18000950:	48 8b 45 e8          	mov    -0x18(%rbp),%rax
    18000954:	8b 80 70 01 00 00    	mov    0x170(%rax),%eax
    1800095a:	83 f8 02             	cmp    $0x2,%eax
    1800095d:	75 18                	jne    18000977 <add_msghdr+0x1b0>
    1800095f:	48 8b 45 e8          	mov    -0x18(%rbp),%rax
    18000963:	ba 08 00 00 00       	mov    $0x8,%edx
    18000968:	be 00 00 00 00       	mov    $0x0,%esi
    1800096d:	48 89 c7             	mov    %rax,%rdi
    18000970:	e8 7e 10 00 00       	callq  180019f3 <add_iov>
    18000975:	eb 05                	jmp    1800097c <add_msghdr+0x1b5>
    18000977:	b8 00 00 00 00       	mov    $0x0,%eax
    1800097c:	c9                   	leaveq 
    1800097d:	c3                   	retq   

000000001800097e <conn_init>:
    1800097e:	55                   	push   %rbp
    1800097f:	48 89 e5             	mov    %rsp,%rbp
    18000982:	48 83 ec 20          	sub    $0x20,%rsp
    18000986:	bf 01 00 00 00       	mov    $0x1,%edi
    1800098b:	e8 92 75 02 00       	callq  18027f22 <dup>
    18000990:	89 45 fc             	mov    %eax,-0x4(%rbp)
    18000993:	c7 45 f8 0a 00 00 00 	movl   $0xa,-0x8(%rbp)
    1800099a:	48 8d 05 5f 4d 41 00 	lea    0x414d5f(%rip),%rax        # 18415700 <settings>
    180009a1:	8b 50 08             	mov    0x8(%rax),%edx
    180009a4:	8b 45 f8             	mov    -0x8(%rbp),%eax
    180009a7:	01 c2                	add    %eax,%edx
    180009a9:	8b 45 fc             	mov    -0x4(%rbp),%eax
    180009ac:	01 d0                	add    %edx,%eax
    180009ae:	89 05 94 8f 40 00    	mov    %eax,0x408f94(%rip)        # 18409948 <max_fds>
    180009b4:	48 8d 45 e0          	lea    -0x20(%rbp),%rax
    180009b8:	48 89 c6             	mov    %rax,%rsi
    180009bb:	bf 07 00 00 00       	mov    $0x7,%edi
    180009c0:	e8 89 ed 01 00       	callq  1801f74e <getrlimit>
    180009c5:	85 c0                	test   %eax,%eax
    180009c7:	75 0c                	jne    180009d5 <conn_init+0x57>
    180009c9:	48 8b 45 e8          	mov    -0x18(%rbp),%rax
    180009cd:	89 05 75 8f 40 00    	mov    %eax,0x408f75(%rip)        # 18409948 <max_fds>
    180009d3:	eb 23                	jmp    180009f8 <conn_init+0x7a>
    180009d5:	48 8d 05 b4 53 40 00 	lea    0x4053b4(%rip),%rax        # 18405d90 <stderr>
    180009dc:	48 8b 00             	mov    (%rax),%rax
    180009df:	48 89 c1             	mov    %rax,%rcx
    180009e2:	ba 42 00 00 00       	mov    $0x42,%edx
    180009e7:	be 01 00 00 00       	mov    $0x1,%esi
    180009ec:	48 8d 3d 6d f6 3f 00 	lea    0x3ff66d(%rip),%rdi        # 18400060 <data_start+0x60>
    180009f3:	e8 e2 27 02 00       	callq  180231da <fwrite>
    180009f8:	8b 45 fc             	mov    -0x4(%rbp),%eax
    180009fb:	89 c7                	mov    %eax,%edi
    180009fd:	e8 fb 74 02 00       	callq  18027efd <close>
    18000a02:	8b 05 40 8f 40 00    	mov    0x408f40(%rip),%eax        # 18409948 <max_fds>
    18000a08:	48 98                	cltq   
    18000a0a:	be 08 00 00 00       	mov    $0x8,%esi
    18000a0f:	48 89 c7             	mov    %rax,%rdi
    18000a12:	e8 d9 d5 01 00       	callq  1801dff0 <calloc>
    18000a17:	48 89 c2             	mov    %rax,%rdx
    18000a1a:	48 8d 05 c7 4e 41 00 	lea    0x414ec7(%rip),%rax        # 184158e8 <conns>
    18000a21:	48 89 10             	mov    %rdx,(%rax)
    18000a24:	48 8d 05 bd 4e 41 00 	lea    0x414ebd(%rip),%rax        # 184158e8 <conns>
    18000a2b:	48 8b 00             	mov    (%rax),%rax
    18000a2e:	48 85 c0             	test   %rax,%rax
    18000a31:	75 2d                	jne    18000a60 <conn_init+0xe2>
    18000a33:	48 8d 05 56 53 40 00 	lea    0x405356(%rip),%rax        # 18405d90 <stderr>
    18000a3a:	48 8b 00             	mov    (%rax),%rax
    18000a3d:	48 89 c1             	mov    %rax,%rcx
    18000a40:	ba 29 00 00 00       	mov    $0x29,%edx
    18000a45:	be 01 00 00 00       	mov    $0x1,%esi
    18000a4a:	48 8d 3d 57 f6 3f 00 	lea    0x3ff657(%rip),%rdi        # 184000a8 <data_start+0xa8>
    18000a51:	e8 84 27 02 00       	callq  180231da <fwrite>
    18000a56:	bf 01 00 00 00       	mov    $0x1,%edi
    18000a5b:	e8 5a d2 01 00       	callq  1801dcba <exit>
    18000a60:	90                   	nop
    18000a61:	c9                   	leaveq 
    18000a62:	c3                   	retq   

0000000018000a63 <prot_text>:
    18000a63:	55                   	push   %rbp
    18000a64:	48 89 e5             	mov    %rsp,%rbp
    18000a67:	89 7d ec             	mov    %edi,-0x14(%rbp)
    18000a6a:	48 8d 05 61 f6 3f 00 	lea    0x3ff661(%rip),%rax        # 184000d2 <data_start+0xd2>
    18000a71:	48 89 45 f8          	mov    %rax,-0x8(%rbp)
    18000a75:	8b 45 ec             	mov    -0x14(%rbp),%eax
    18000a78:	83 f8 04             	cmp    $0x4,%eax
    18000a7b:	74 17                	je     18000a94 <prot_text+0x31>
    18000a7d:	83 f8 05             	cmp    $0x5,%eax
    18000a80:	74 1f                	je     18000aa1 <prot_text+0x3e>
    18000a82:	83 f8 03             	cmp    $0x3,%eax
    18000a85:	75 26                	jne    18000aad <prot_text+0x4a>
    18000a87:	48 8d 05 4c f6 3f 00 	lea    0x3ff64c(%rip),%rax        # 184000da <data_start+0xda>
    18000a8e:	48 89 45 f8          	mov    %rax,-0x8(%rbp)
    18000a92:	eb 19                	jmp    18000aad <prot_text+0x4a>
    18000a94:	48 8d 05 45 f6 3f 00 	lea    0x3ff645(%rip),%rax        # 184000e0 <data_start+0xe0>
    18000a9b:	48 89 45 f8          	mov    %rax,-0x8(%rbp)
    18000a9f:	eb 0c                	jmp    18000aad <prot_text+0x4a>
    18000aa1:	48 8d 05 3f f6 3f 00 	lea    0x3ff63f(%rip),%rax        # 184000e7 <data_start+0xe7>
    18000aa8:	48 89 45 f8          	mov    %rax,-0x8(%rbp)
    18000aac:	90                   	nop
    18000aad:	48 8b 45 f8          	mov    -0x8(%rbp),%rax
    18000ab1:	5d                   	pop    %rbp
    18000ab2:	c3                   	retq   

0000000018000ab3 <conn_new>:
    18000ab3:	55                   	push   %rbp
    18000ab4:	48 89 e5             	mov    %rsp,%rbp
    18000ab7:	48 83 ec 30          	sub    $0x30,%rsp
    18000abb:	89 7d ec             	mov    %edi,-0x14(%rbp)
    18000abe:	89 75 e8             	mov    %esi,-0x18(%rbp)
    18000ac1:	89 55 e4             	mov    %edx,-0x1c(%rbp)
    18000ac4:	89 4d e0             	mov    %ecx,-0x20(%rbp)
    18000ac7:	44 89 45 dc          	mov    %r8d,-0x24(%rbp)
    18000acb:	4c 89 4d d0          	mov    %r9,-0x30(%rbp)
    18000acf:	48 8d 05 12 4e 41 00 	lea    0x414e12(%rip),%rax        # 184158e8 <conns>
    18000ad6:	48 8b 00             	mov    (%rax),%rax
    18000ad9:	8b 55 ec             	mov    -0x14(%rbp),%edx
    18000adc:	48 63 d2             	movslq %edx,%rdx
    18000adf:	48 c1 e2 03          	shl    $0x3,%rdx
    18000ae3:	48 01 d0             	add    %rdx,%rax
    18000ae6:	48 8b 00             	mov    (%rax),%rax
    18000ae9:	48 89 45 f8          	mov    %rax,-0x8(%rbp)
    18000aed:	48 83 7d f8 00       	cmpq   $0x0,-0x8(%rbp)
    18000af2:	0f 85 2b 03 00 00    	jne    18000e23 <conn_new+0x370>
    18000af8:	be 00 02 00 00       	mov    $0x200,%esi
    18000afd:	bf 01 00 00 00       	mov    $0x1,%edi
    18000b02:	e8 e9 d4 01 00       	callq  1801dff0 <calloc>
    18000b07:	48 89 45 f8          	mov    %rax,-0x8(%rbp)
    18000b0b:	48 83 7d f8 00       	cmpq   $0x0,-0x8(%rbp)
    18000b10:	75 51                	jne    18000b63 <conn_new+0xb0>
    18000b12:	e8 60 5c 01 00       	callq  18016777 <STATS_LOCK>
    18000b17:	48 8d 05 a2 4c 41 00 	lea    0x414ca2(%rip),%rax        # 184157c0 <stats>
    18000b1e:	48 8b 40 48          	mov    0x48(%rax),%rax
    18000b22:	48 8d 50 01          	lea    0x1(%rax),%rdx
    18000b26:	48 8d 05 93 4c 41 00 	lea    0x414c93(%rip),%rax        # 184157c0 <stats>
    18000b2d:	48 89 50 48          	mov    %rdx,0x48(%rax)
    18000b31:	e8 54 5c 01 00       	callq  1801678a <STATS_UNLOCK>
    18000b36:	48 8d 05 53 52 40 00 	lea    0x405253(%rip),%rax        # 18405d90 <stderr>
    18000b3d:	48 8b 00             	mov    (%rax),%rax
    18000b40:	48 89 c1             	mov    %rax,%rcx
    18000b43:	ba 25 00 00 00       	mov    $0x25,%edx
    18000b48:	be 01 00 00 00       	mov    $0x1,%esi
    18000b4d:	48 8d 3d a4 f5 3f 00 	lea    0x3ff5a4(%rip),%rdi        # 184000f8 <data_start+0xf8>
    18000b54:	e8 81 26 02 00       	callq  180231da <fwrite>
    18000b59:	b8 00 00 00 00       	mov    $0x0,%eax
    18000b5e:	e9 95 06 00 00       	jmpq   180011f8 <conn_new+0x745>
    18000b63:	48 8b 45 f8          	mov    -0x8(%rbp),%rax
    18000b67:	48 c7 80 c0 00 00 00 	movq   $0x0,0xc0(%rax)
    18000b6e:	00 00 00 00 
    18000b72:	48 8b 45 f8          	mov    -0x8(%rbp),%rax
    18000b76:	48 8b 90 c0 00 00 00 	mov    0xc0(%rax),%rdx
    18000b7d:	48 8b 45 f8          	mov    -0x8(%rbp),%rax
    18000b81:	48 89 90 a8 00 00 00 	mov    %rdx,0xa8(%rax)
    18000b88:	48 8b 45 f8          	mov    -0x8(%rbp),%rax
    18000b8c:	48 c7 80 30 01 00 00 	movq   $0x0,0x130(%rax)
    18000b93:	00 00 00 00 
    18000b97:	48 8b 45 f8          	mov    -0x8(%rbp),%rax
    18000b9b:	48 c7 80 50 01 00 00 	movq   $0x0,0x150(%rax)
    18000ba2:	00 00 00 00 
    18000ba6:	48 8b 45 f8          	mov    -0x8(%rbp),%rax
    18000baa:	48 c7 80 08 01 00 00 	movq   $0x0,0x108(%rax)
    18000bb1:	00 00 00 00 
    18000bb5:	48 8b 45 f8          	mov    -0x8(%rbp),%rax
    18000bb9:	48 c7 80 18 01 00 00 	movq   $0x0,0x118(%rax)
    18000bc0:	00 00 00 00 
    18000bc4:	48 8b 45 f8          	mov    -0x8(%rbp),%rax
    18000bc8:	48 c7 80 98 01 00 00 	movq   $0x0,0x198(%rax)
    18000bcf:	00 00 00 00 
    18000bd3:	48 8b 45 f8          	mov    -0x8(%rbp),%rax
    18000bd7:	8b 55 e0             	mov    -0x20(%rbp),%edx
    18000bda:	89 90 b8 00 00 00    	mov    %edx,0xb8(%rax)
    18000be0:	48 8b 45 f8          	mov    -0x8(%rbp),%rax
    18000be4:	c7 80 d0 00 00 00 00 	movl   $0x800,0xd0(%rax)
    18000beb:	08 00 00 
    18000bee:	48 8b 45 f8          	mov    -0x8(%rbp),%rax
    18000bf2:	c7 80 38 01 00 00 c8 	movl   $0xc8,0x138(%rax)
    18000bf9:	00 00 00 
    18000bfc:	48 8b 45 f8          	mov    -0x8(%rbp),%rax
    18000c00:	c7 80 58 01 00 00 14 	movl   $0x14,0x158(%rax)
    18000c07:	00 00 00 
    18000c0a:	48 8b 45 f8          	mov    -0x8(%rbp),%rax
    18000c0e:	c7 80 10 01 00 00 90 	movl   $0x190,0x110(%rax)
    18000c15:	01 00 00 
    18000c18:	48 8b 45 f8          	mov    -0x8(%rbp),%rax
    18000c1c:	c7 80 20 01 00 00 0a 	movl   $0xa,0x120(%rax)
    18000c23:	00 00 00 
    18000c26:	48 8b 45 f8          	mov    -0x8(%rbp),%rax
    18000c2a:	c7 80 a0 01 00 00 00 	movl   $0x0,0x1a0(%rax)
    18000c31:	00 00 00 
    18000c34:	48 8b 45 f8          	mov    -0x8(%rbp),%rax
    18000c38:	8b 80 b8 00 00 00    	mov    0xb8(%rax),%eax
    18000c3e:	48 98                	cltq   
    18000c40:	48 89 c7             	mov    %rax,%rdi
    18000c43:	e8 08 df 01 00       	callq  1801eb50 <malloc>
    18000c48:	48 89 c2             	mov    %rax,%rdx
    18000c4b:	48 8b 45 f8          	mov    -0x8(%rbp),%rax
    18000c4f:	48 89 90 a8 00 00 00 	mov    %rdx,0xa8(%rax)
    18000c56:	48 8b 45 f8          	mov    -0x8(%rbp),%rax
    18000c5a:	8b 80 d0 00 00 00    	mov    0xd0(%rax),%eax
    18000c60:	48 98                	cltq   
    18000c62:	48 89 c7             	mov    %rax,%rdi
    18000c65:	e8 e6 de 01 00       	callq  1801eb50 <malloc>
    18000c6a:	48 89 c2             	mov    %rax,%rdx
    18000c6d:	48 8b 45 f8          	mov    -0x8(%rbp),%rax
    18000c71:	48 89 90 c0 00 00 00 	mov    %rdx,0xc0(%rax)
    18000c78:	48 8b 45 f8          	mov    -0x8(%rbp),%rax
    18000c7c:	8b 80 38 01 00 00    	mov    0x138(%rax),%eax
    18000c82:	48 98                	cltq   
    18000c84:	48 c1 e0 03          	shl    $0x3,%rax
    18000c88:	48 89 c7             	mov    %rax,%rdi
    18000c8b:	e8 c0 de 01 00       	callq  1801eb50 <malloc>
    18000c90:	48 89 c2             	mov    %rax,%rdx
    18000c93:	48 8b 45 f8          	mov    -0x8(%rbp),%rax
    18000c97:	48 89 90 30 01 00 00 	mov    %rdx,0x130(%rax)
    18000c9e:	48 8b 45 f8          	mov    -0x8(%rbp),%rax
    18000ca2:	8b 80 58 01 00 00    	mov    0x158(%rax),%eax
    18000ca8:	48 98                	cltq   
    18000caa:	48 c1 e0 03          	shl    $0x3,%rax
    18000cae:	48 89 c7             	mov    %rax,%rdi
    18000cb1:	e8 9a de 01 00       	callq  1801eb50 <malloc>
    18000cb6:	48 89 c2             	mov    %rax,%rdx
    18000cb9:	48 8b 45 f8          	mov    -0x8(%rbp),%rax
    18000cbd:	48 89 90 50 01 00 00 	mov    %rdx,0x150(%rax)
    18000cc4:	48 8b 45 f8          	mov    -0x8(%rbp),%rax
    18000cc8:	8b 80 10 01 00 00    	mov    0x110(%rax),%eax
    18000cce:	48 98                	cltq   
    18000cd0:	48 c1 e0 04          	shl    $0x4,%rax
    18000cd4:	48 89 c7             	mov    %rax,%rdi
    18000cd7:	e8 74 de 01 00       	callq  1801eb50 <malloc>
    18000cdc:	48 89 c2             	mov    %rax,%rdx
    18000cdf:	48 8b 45 f8          	mov    -0x8(%rbp),%rax
    18000ce3:	48 89 90 08 01 00 00 	mov    %rdx,0x108(%rax)
    18000cea:	48 8b 45 f8          	mov    -0x8(%rbp),%rax
    18000cee:	8b 80 20 01 00 00    	mov    0x120(%rax),%eax
    18000cf4:	48 98                	cltq   
    18000cf6:	48 c1 e0 03          	shl    $0x3,%rax
    18000cfa:	48 8d 14 c5 00 00 00 	lea    0x0(,%rax,8),%rdx
    18000d01:	00 
    18000d02:	48 29 c2             	sub    %rax,%rdx
    18000d05:	48 89 d0             	mov    %rdx,%rax
    18000d08:	48 89 c7             	mov    %rax,%rdi
    18000d0b:	e8 40 de 01 00       	callq  1801eb50 <malloc>
    18000d10:	48 89 c2             	mov    %rax,%rdx
    18000d13:	48 8b 45 f8          	mov    -0x8(%rbp),%rax
    18000d17:	48 89 90 18 01 00 00 	mov    %rdx,0x118(%rax)
    18000d1e:	48 8b 45 f8          	mov    -0x8(%rbp),%rax
    18000d22:	48 8b 80 a8 00 00 00 	mov    0xa8(%rax),%rax
    18000d29:	48 85 c0             	test   %rax,%rax
    18000d2c:	74 50                	je     18000d7e <conn_new+0x2cb>
    18000d2e:	48 8b 45 f8          	mov    -0x8(%rbp),%rax
    18000d32:	48 8b 80 c0 00 00 00 	mov    0xc0(%rax),%rax
    18000d39:	48 85 c0             	test   %rax,%rax
    18000d3c:	74 40                	je     18000d7e <conn_new+0x2cb>
    18000d3e:	48 8b 45 f8          	mov    -0x8(%rbp),%rax
    18000d42:	48 8b 80 30 01 00 00 	mov    0x130(%rax),%rax
    18000d49:	48 85 c0             	test   %rax,%rax
    18000d4c:	74 30                	je     18000d7e <conn_new+0x2cb>
    18000d4e:	48 8b 45 f8          	mov    -0x8(%rbp),%rax
    18000d52:	48 8b 80 08 01 00 00 	mov    0x108(%rax),%rax
    18000d59:	48 85 c0             	test   %rax,%rax
    18000d5c:	74 20                	je     18000d7e <conn_new+0x2cb>
    18000d5e:	48 8b 45 f8          	mov    -0x8(%rbp),%rax
    18000d62:	48 8b 80 18 01 00 00 	mov    0x118(%rax),%rax
    18000d69:	48 85 c0             	test   %rax,%rax
    18000d6c:	74 10                	je     18000d7e <conn_new+0x2cb>
    18000d6e:	48 8b 45 f8          	mov    -0x8(%rbp),%rax
    18000d72:	48 8b 80 50 01 00 00 	mov    0x150(%rax),%rax
    18000d79:	48 85 c0             	test   %rax,%rax
    18000d7c:	75 5d                	jne    18000ddb <conn_new+0x328>
    18000d7e:	48 8b 45 f8          	mov    -0x8(%rbp),%rax
    18000d82:	48 89 c7             	mov    %rax,%rdi
    18000d85:	e8 3c 06 00 00       	callq  180013c6 <conn_free>
    18000d8a:	e8 e8 59 01 00       	callq  18016777 <STATS_LOCK>
    18000d8f:	48 8d 05 2a 4a 41 00 	lea    0x414a2a(%rip),%rax        # 184157c0 <stats>
    18000d96:	48 8b 40 48          	mov    0x48(%rax),%rax
    18000d9a:	48 8d 50 01          	lea    0x1(%rax),%rdx
    18000d9e:	48 8d 05 1b 4a 41 00 	lea    0x414a1b(%rip),%rax        # 184157c0 <stats>
    18000da5:	48 89 50 48          	mov    %rdx,0x48(%rax)
    18000da9:	e8 dc 59 01 00       	callq  1801678a <STATS_UNLOCK>
    18000dae:	48 8d 05 db 4f 40 00 	lea    0x404fdb(%rip),%rax        # 18405d90 <stderr>
    18000db5:	48 8b 00             	mov    (%rax),%rax
    18000db8:	48 89 c1             	mov    %rax,%rcx
    18000dbb:	ba 2a 00 00 00       	mov    $0x2a,%edx
    18000dc0:	be 01 00 00 00       	mov    $0x1,%esi
    18000dc5:	48 8d 3d 54 f3 3f 00 	lea    0x3ff354(%rip),%rdi        # 18400120 <data_start+0x120>
    18000dcc:	e8 09 24 02 00       	callq  180231da <fwrite>
    18000dd1:	b8 00 00 00 00       	mov    $0x0,%eax
    18000dd6:	e9 1d 04 00 00       	jmpq   180011f8 <conn_new+0x745>
    18000ddb:	e8 97 59 01 00       	callq  18016777 <STATS_LOCK>
    18000de0:	48 8d 05 d9 49 41 00 	lea    0x4149d9(%rip),%rax        # 184157c0 <stats>
    18000de7:	8b 40 54             	mov    0x54(%rax),%eax
    18000dea:	8d 50 01             	lea    0x1(%rax),%edx
    18000ded:	48 8d 05 cc 49 41 00 	lea    0x4149cc(%rip),%rax        # 184157c0 <stats>
    18000df4:	89 50 54             	mov    %edx,0x54(%rax)
    18000df7:	e8 8e 59 01 00       	callq  1801678a <STATS_UNLOCK>
    18000dfc:	48 8b 45 f8          	mov    -0x8(%rbp),%rax
    18000e00:	8b 55 ec             	mov    -0x14(%rbp),%edx
    18000e03:	89 10                	mov    %edx,(%rax)
    18000e05:	48 8d 05 dc 4a 41 00 	lea    0x414adc(%rip),%rax        # 184158e8 <conns>
    18000e0c:	48 8b 00             	mov    (%rax),%rax
    18000e0f:	8b 55 ec             	mov    -0x14(%rbp),%edx
    18000e12:	48 63 d2             	movslq %edx,%rdx
    18000e15:	48 c1 e2 03          	shl    $0x3,%rdx
    18000e19:	48 01 c2             	add    %rax,%rdx
    18000e1c:	48 8b 45 f8          	mov    -0x8(%rbp),%rax
    18000e20:	48 89 02             	mov    %rax,(%rdx)
    18000e23:	48 8b 45 f8          	mov    -0x8(%rbp),%rax
    18000e27:	8b 55 dc             	mov    -0x24(%rbp),%edx
    18000e2a:	89 90 70 01 00 00    	mov    %edx,0x170(%rax)
    18000e30:	48 8d 05 c9 48 41 00 	lea    0x4148c9(%rip),%rax        # 18415700 <settings>
    18000e37:	8b 50 64             	mov    0x64(%rax),%edx
    18000e3a:	48 8b 45 f8          	mov    -0x8(%rbp),%rax
    18000e3e:	89 90 6c 01 00 00    	mov    %edx,0x16c(%rax)
    18000e44:	48 8d 05 b5 48 41 00 	lea    0x4148b5(%rip),%rax        # 18415700 <settings>
    18000e4b:	48 8b 40 30          	mov    0x30(%rax),%rax
    18000e4f:	48 85 c0             	test   %rax,%rax
    18000e52:	75 10                	jne    18000e64 <conn_new+0x3b1>
    18000e54:	48 8b 45 f8          	mov    -0x8(%rbp),%rax
    18000e58:	c7 80 94 01 00 00 1c 	movl   $0x1c,0x194(%rax)
    18000e5f:	00 00 00 
    18000e62:	eb 0e                	jmp    18000e72 <conn_new+0x3bf>
    18000e64:	48 8b 45 f8          	mov    -0x8(%rbp),%rax
    18000e68:	c7 80 94 01 00 00 00 	movl   $0x0,0x194(%rax)
    18000e6f:	00 00 00 
    18000e72:	83 7d dc 01          	cmpl   $0x1,-0x24(%rbp)
    18000e76:	75 55                	jne    18000ecd <conn_new+0x41a>
    18000e78:	83 7d e8 01          	cmpl   $0x1,-0x18(%rbp)
    18000e7c:	75 4f                	jne    18000ecd <conn_new+0x41a>
    18000e7e:	48 8b 45 f8          	mov    -0x8(%rbp),%rax
    18000e82:	48 8d 90 94 01 00 00 	lea    0x194(%rax),%rdx
    18000e89:	48 8b 45 f8          	mov    -0x8(%rbp),%rax
    18000e8d:	48 8d 88 78 01 00 00 	lea    0x178(%rax),%rcx
    18000e94:	8b 45 ec             	mov    -0x14(%rbp),%eax
    18000e97:	48 89 ce             	mov    %rcx,%rsi
    18000e9a:	89 c7                	mov    %eax,%edi
    18000e9c:	e8 1d f1 01 00       	callq  1801ffbe <getpeername>
    18000ea1:	85 c0                	test   %eax,%eax
    18000ea3:	74 28                	je     18000ecd <conn_new+0x41a>
    18000ea5:	48 8d 3d 9f f2 3f 00 	lea    0x3ff29f(%rip),%rdi        # 1840014b <data_start+0x14b>
    18000eac:	e8 46 24 02 00       	callq  180232f7 <perror>
    18000eb1:	48 8b 45 f8          	mov    -0x8(%rbp),%rax
    18000eb5:	48 05 78 01 00 00    	add    $0x178,%rax
    18000ebb:	ba 1c 00 00 00       	mov    $0x1c,%edx
    18000ec0:	be 00 00 00 00       	mov    $0x0,%esi
    18000ec5:	48 89 c7             	mov    %rax,%rdi
    18000ec8:	e8 a1 57 02 00       	callq  1802666e <memset>
    18000ecd:	48 8d 05 2c 48 41 00 	lea    0x41482c(%rip),%rax        # 18415700 <settings>
    18000ed4:	8b 40 20             	mov    0x20(%rax),%eax
    18000ed7:	83 f8 01             	cmp    $0x1,%eax
    18000eda:	0f 8e 30 01 00 00    	jle    18001010 <conn_new+0x55d>
    18000ee0:	83 7d e8 00          	cmpl   $0x0,-0x18(%rbp)
    18000ee4:	75 3a                	jne    18000f20 <conn_new+0x46d>
    18000ee6:	48 8b 45 f8          	mov    -0x8(%rbp),%rax
    18000eea:	8b 80 6c 01 00 00    	mov    0x16c(%rax),%eax
    18000ef0:	89 c7                	mov    %eax,%edi
    18000ef2:	e8 6c fb ff ff       	callq  18000a63 <prot_text>
    18000ef7:	48 89 c1             	mov    %rax,%rcx
    18000efa:	48 8d 05 8f 4e 40 00 	lea    0x404e8f(%rip),%rax        # 18405d90 <stderr>
    18000f01:	48 8b 00             	mov    (%rax),%rax
    18000f04:	8b 55 ec             	mov    -0x14(%rbp),%edx
    18000f07:	48 8d 35 49 f2 3f 00 	lea    0x3ff249(%rip),%rsi        # 18400157 <data_start+0x157>
    18000f0e:	48 89 c7             	mov    %rax,%rdi
    18000f11:	b8 00 00 00 00       	mov    $0x0,%eax
    18000f16:	e8 63 1f 02 00       	callq  18022e7e <fprintf>
    18000f1b:	e9 f0 00 00 00       	jmpq   18001010 <conn_new+0x55d>
    18000f20:	83 7d dc 02          	cmpl   $0x2,-0x24(%rbp)
    18000f24:	75 26                	jne    18000f4c <conn_new+0x499>
    18000f26:	48 8d 05 63 4e 40 00 	lea    0x404e63(%rip),%rax        # 18405d90 <stderr>
    18000f2d:	48 8b 00             	mov    (%rax),%rax
    18000f30:	8b 55 ec             	mov    -0x14(%rbp),%edx
    18000f33:	48 8d 35 38 f2 3f 00 	lea    0x3ff238(%rip),%rsi        # 18400172 <data_start+0x172>
    18000f3a:	48 89 c7             	mov    %rax,%rdi
    18000f3d:	b8 00 00 00 00       	mov    $0x0,%eax
    18000f42:	e8 37 1f 02 00       	callq  18022e7e <fprintf>
    18000f47:	e9 c4 00 00 00       	jmpq   18001010 <conn_new+0x55d>
    18000f4c:	48 8b 45 f8          	mov    -0x8(%rbp),%rax
    18000f50:	8b 80 6c 01 00 00    	mov    0x16c(%rax),%eax
    18000f56:	83 f8 05             	cmp    $0x5,%eax
    18000f59:	75 26                	jne    18000f81 <conn_new+0x4ce>
    18000f5b:	48 8d 05 2e 4e 40 00 	lea    0x404e2e(%rip),%rax        # 18405d90 <stderr>
    18000f62:	48 8b 00             	mov    (%rax),%rax
    18000f65:	8b 55 ec             	mov    -0x14(%rbp),%edx
    18000f68:	48 8d 35 21 f2 3f 00 	lea    0x3ff221(%rip),%rsi        # 18400190 <data_start+0x190>
    18000f6f:	48 89 c7             	mov    %rax,%rdi
    18000f72:	b8 00 00 00 00       	mov    $0x0,%eax
    18000f77:	e8 02 1f 02 00       	callq  18022e7e <fprintf>
    18000f7c:	e9 8f 00 00 00       	jmpq   18001010 <conn_new+0x55d>
    18000f81:	48 8b 45 f8          	mov    -0x8(%rbp),%rax
    18000f85:	8b 80 6c 01 00 00    	mov    0x16c(%rax),%eax
    18000f8b:	83 f8 03             	cmp    $0x3,%eax
    18000f8e:	75 23                	jne    18000fb3 <conn_new+0x500>
    18000f90:	48 8d 05 f9 4d 40 00 	lea    0x404df9(%rip),%rax        # 18405d90 <stderr>
    18000f97:	48 8b 00             	mov    (%rax),%rax
    18000f9a:	8b 55 ec             	mov    -0x14(%rbp),%edx
    18000f9d:	48 8d 35 1c f2 3f 00 	lea    0x3ff21c(%rip),%rsi        # 184001c0 <data_start+0x1c0>
    18000fa4:	48 89 c7             	mov    %rax,%rdi
    18000fa7:	b8 00 00 00 00       	mov    $0x0,%eax
    18000fac:	e8 cd 1e 02 00       	callq  18022e7e <fprintf>
    18000fb1:	eb 5d                	jmp    18001010 <conn_new+0x55d>
    18000fb3:	48 8b 45 f8          	mov    -0x8(%rbp),%rax
    18000fb7:	8b 80 6c 01 00 00    	mov    0x16c(%rax),%eax
    18000fbd:	83 f8 04             	cmp    $0x4,%eax
    18000fc0:	75 23                	jne    18000fe5 <conn_new+0x532>
    18000fc2:	48 8d 05 c7 4d 40 00 	lea    0x404dc7(%rip),%rax        # 18405d90 <stderr>
    18000fc9:	48 8b 00             	mov    (%rax),%rax
    18000fcc:	8b 55 ec             	mov    -0x14(%rbp),%edx
    18000fcf:	48 8d 35 12 f2 3f 00 	lea    0x3ff212(%rip),%rsi        # 184001e8 <data_start+0x1e8>
    18000fd6:	48 89 c7             	mov    %rax,%rdi
    18000fd9:	b8 00 00 00 00       	mov    $0x0,%eax
    18000fde:	e8 9b 1e 02 00       	callq  18022e7e <fprintf>
    18000fe3:	eb 2b                	jmp    18001010 <conn_new+0x55d>
    18000fe5:	48 8b 45 f8          	mov    -0x8(%rbp),%rax
    18000fe9:	8b 88 6c 01 00 00    	mov    0x16c(%rax),%ecx
    18000fef:	48 8d 05 9a 4d 40 00 	lea    0x404d9a(%rip),%rax        # 18405d90 <stderr>
    18000ff6:	48 8b 00             	mov    (%rax),%rax
    18000ff9:	8b 55 ec             	mov    -0x14(%rbp),%edx
    18000ffc:	48 8d 35 0d f2 3f 00 	lea    0x3ff20d(%rip),%rsi        # 18400210 <data_start+0x210>
    18001003:	48 89 c7             	mov    %rax,%rdi
    18001006:	b8 00 00 00 00       	mov    $0x0,%eax
    1800100b:	e8 6e 1e 02 00       	callq  18022e7e <fprintf>
    18001010:	48 8b 45 f8          	mov    -0x8(%rbp),%rax
    18001014:	8b 55 e8             	mov    -0x18(%rbp),%edx
    18001017:	89 50 14             	mov    %edx,0x14(%rax)
    1800101a:	48 8b 45 f8          	mov    -0x8(%rbp),%rax
    1800101e:	c7 80 f0 00 00 00 00 	movl   $0x0,0xf0(%rax)
    18001025:	00 00 00 
    18001028:	48 8b 45 f8          	mov    -0x8(%rbp),%rax
    1800102c:	66 c7 80 e0 01 00 00 	movw   $0xffff,0x1e0(%rax)
    18001033:	ff ff 
    18001035:	48 8b 45 f8          	mov    -0x8(%rbp),%rax
    18001039:	c7 80 d4 00 00 00 00 	movl   $0x0,0xd4(%rax)
    18001040:	00 00 00 
    18001043:	48 8b 45 f8          	mov    -0x8(%rbp),%rax
    18001047:	8b 90 d4 00 00 00    	mov    0xd4(%rax),%edx
    1800104d:	48 8b 45 f8          	mov    -0x8(%rbp),%rax
    18001051:	89 90 bc 00 00 00    	mov    %edx,0xbc(%rax)
    18001057:	48 8b 45 f8          	mov    -0x8(%rbp),%rax
    1800105b:	48 8b 90 c0 00 00 00 	mov    0xc0(%rax),%rdx
    18001062:	48 8b 45 f8          	mov    -0x8(%rbp),%rax
    18001066:	48 89 90 c8 00 00 00 	mov    %rdx,0xc8(%rax)
    1800106d:	48 8b 45 f8          	mov    -0x8(%rbp),%rax
    18001071:	48 8b 90 a8 00 00 00 	mov    0xa8(%rax),%rdx
    18001078:	48 8b 45 f8          	mov    -0x8(%rbp),%rax
    1800107c:	48 89 90 b0 00 00 00 	mov    %rdx,0xb0(%rax)
    18001083:	48 8b 45 f8          	mov    -0x8(%rbp),%rax
    18001087:	48 c7 80 e8 00 00 00 	movq   $0x0,0xe8(%rax)
    1800108e:	00 00 00 00 
    18001092:	48 8b 45 f8          	mov    -0x8(%rbp),%rax
    18001096:	48 8b 90 30 01 00 00 	mov    0x130(%rax),%rdx
    1800109d:	48 8b 45 f8          	mov    -0x8(%rbp),%rax
    180010a1:	48 89 90 40 01 00 00 	mov    %rdx,0x140(%rax)
    180010a8:	48 8b 45 f8          	mov    -0x8(%rbp),%rax
    180010ac:	48 8b 90 50 01 00 00 	mov    0x150(%rax),%rdx
    180010b3:	48 8b 45 f8          	mov    -0x8(%rbp),%rax
    180010b7:	48 89 90 60 01 00 00 	mov    %rdx,0x160(%rax)
    180010be:	48 8b 45 f8          	mov    -0x8(%rbp),%rax
    180010c2:	c7 80 48 01 00 00 00 	movl   $0x0,0x148(%rax)
    180010c9:	00 00 00 
    180010cc:	48 8b 45 f8          	mov    -0x8(%rbp),%rax
    180010d0:	c7 80 68 01 00 00 00 	movl   $0x0,0x168(%rax)
    180010d7:	00 00 00 
    180010da:	48 8b 45 f8          	mov    -0x8(%rbp),%rax
    180010de:	c7 80 14 01 00 00 00 	movl   $0x0,0x114(%rax)
    180010e5:	00 00 00 
    180010e8:	48 8b 45 f8          	mov    -0x8(%rbp),%rax
    180010ec:	c7 80 28 01 00 00 00 	movl   $0x0,0x128(%rax)
    180010f3:	00 00 00 
    180010f6:	48 8b 45 f8          	mov    -0x8(%rbp),%rax
    180010fa:	c7 80 24 01 00 00 00 	movl   $0x0,0x124(%rax)
    18001101:	00 00 00 
    18001104:	48 8b 45 f8          	mov    -0x8(%rbp),%rax
    18001108:	c6 40 10 00          	movb   $0x0,0x10(%rax)
    1800110c:	48 8b 45 f8          	mov    -0x8(%rbp),%rax
    18001110:	8b 55 e8             	mov    -0x18(%rbp),%edx
    18001113:	89 90 d8 00 00 00    	mov    %edx,0xd8(%rax)
    18001119:	48 8b 45 f8          	mov    -0x8(%rbp),%rax
    1800111d:	48 c7 80 e0 00 00 00 	movq   $0x0,0xe0(%rax)
    18001124:	00 00 00 00 
    18001128:	48 8b 45 f8          	mov    -0x8(%rbp),%rax
    1800112c:	48 c7 80 f8 00 00 00 	movq   $0x0,0xf8(%rax)
    18001133:	00 00 00 00 
    18001137:	48 8b 45 f8          	mov    -0x8(%rbp),%rax
    1800113b:	c6 80 a4 01 00 00 00 	movb   $0x0,0x1a4(%rax)
    18001142:	8b 45 e4             	mov    -0x1c(%rbp),%eax
    18001145:	0f bf d0             	movswl %ax,%edx
    18001148:	48 8b 45 f8          	mov    -0x8(%rbp),%rax
    1800114c:	48 8d 78 20          	lea    0x20(%rax),%rdi
    18001150:	48 8b 4d f8          	mov    -0x8(%rbp),%rcx
    18001154:	8b 45 ec             	mov    -0x14(%rbp),%eax
    18001157:	49 89 c8             	mov    %rcx,%r8
    1800115a:	48 8d 0d e7 b1 00 00 	lea    0xb1e7(%rip),%rcx        # 1800c348 <event_handler>
    18001161:	89 c6                	mov    %eax,%esi
    18001163:	e8 60 89 01 00       	callq  18019ac8 <event_set>
    18001168:	48 8b 45 f8          	mov    -0x8(%rbp),%rax
    1800116c:	48 8d 50 20          	lea    0x20(%rax),%rdx
    18001170:	48 8b 45 d0          	mov    -0x30(%rbp),%rax
    18001174:	48 89 d6             	mov    %rdx,%rsi
    18001177:	48 89 c7             	mov    %rax,%rdi
    1800117a:	e8 0e 8a 01 00       	callq  18019b8d <event_base_set>
    1800117f:	8b 45 e4             	mov    -0x1c(%rbp),%eax
    18001182:	89 c2                	mov    %eax,%edx
    18001184:	48 8b 45 f8          	mov    -0x8(%rbp),%rax
    18001188:	66 89 90 a0 00 00 00 	mov    %dx,0xa0(%rax)
    1800118f:	48 8b 45 f8          	mov    -0x8(%rbp),%rax
    18001193:	48 83 c0 20          	add    $0x20,%rax
    18001197:	be 00 00 00 00       	mov    $0x0,%esi
    1800119c:	48 89 c7             	mov    %rax,%rdi
    1800119f:	e8 e8 8b 01 00       	callq  18019d8c <event_add>
    180011a4:	83 f8 ff             	cmp    $0xffffffff,%eax
    180011a7:	75 13                	jne    180011bc <conn_new+0x709>
    180011a9:	48 8d 3d 88 f0 3f 00 	lea    0x3ff088(%rip),%rdi        # 18400238 <data_start+0x238>
    180011b0:	e8 42 21 02 00       	callq  180232f7 <perror>
    180011b5:	b8 00 00 00 00       	mov    $0x0,%eax
    180011ba:	eb 3c                	jmp    180011f8 <conn_new+0x745>
    180011bc:	e8 b6 55 01 00       	callq  18016777 <STATS_LOCK>
    180011c1:	48 8d 05 f8 45 41 00 	lea    0x4145f8(%rip),%rax        # 184157c0 <stats>
    180011c8:	8b 40 38             	mov    0x38(%rax),%eax
    180011cb:	8d 50 01             	lea    0x1(%rax),%edx
    180011ce:	48 8d 05 eb 45 41 00 	lea    0x4145eb(%rip),%rax        # 184157c0 <stats>
    180011d5:	89 50 38             	mov    %edx,0x38(%rax)
    180011d8:	48 8d 05 e1 45 41 00 	lea    0x4145e1(%rip),%rax        # 184157c0 <stats>
    180011df:	8b 40 3c             	mov    0x3c(%rax),%eax
    180011e2:	8d 50 01             	lea    0x1(%rax),%edx
    180011e5:	48 8d 05 d4 45 41 00 	lea    0x4145d4(%rip),%rax        # 184157c0 <stats>
    180011ec:	89 50 3c             	mov    %edx,0x3c(%rax)
    180011ef:	e8 96 55 01 00       	callq  1801678a <STATS_UNLOCK>
    180011f4:	48 8b 45 f8          	mov    -0x8(%rbp),%rax
    180011f8:	c9                   	leaveq 
    180011f9:	c3                   	retq   

00000000180011fa <conn_release_items>:
    180011fa:	55                   	push   %rbp
    180011fb:	48 89 e5             	mov    %rsp,%rbp
    180011fe:	48 83 ec 20          	sub    $0x20,%rsp
    18001202:	48 89 7d e8          	mov    %rdi,-0x18(%rbp)
    18001206:	48 8b 45 e8          	mov    -0x18(%rbp),%rax
    1800120a:	48 8b 80 f8 00 00 00 	mov    0xf8(%rax),%rax
    18001211:	48 85 c0             	test   %rax,%rax
    18001214:	74 73                	je     18001289 <conn_release_items+0x8f>
    18001216:	48 8b 45 e8          	mov    -0x18(%rbp),%rax
    1800121a:	48 8b 80 f8 00 00 00 	mov    0xf8(%rax),%rax
    18001221:	48 89 c7             	mov    %rax,%rdi
    18001224:	e8 5c 51 01 00       	callq  18016385 <item_remove>
    18001229:	48 8b 45 e8          	mov    -0x18(%rbp),%rax
    1800122d:	48 c7 80 f8 00 00 00 	movq   $0x0,0xf8(%rax)
    18001234:	00 00 00 00 
    18001238:	eb 4f                	jmp    18001289 <conn_release_items+0x8f>
    1800123a:	48 8b 45 e8          	mov    -0x18(%rbp),%rax
    1800123e:	48 8b 80 40 01 00 00 	mov    0x140(%rax),%rax
    18001245:	48 8b 00             	mov    (%rax),%rax
    18001248:	48 89 45 f8          	mov    %rax,-0x8(%rbp)
    1800124c:	48 8b 45 f8          	mov    -0x8(%rbp),%rax
    18001250:	48 89 c7             	mov    %rax,%rdi
    18001253:	e8 2d 51 01 00       	callq  18016385 <item_remove>
    18001258:	48 8b 45 e8          	mov    -0x18(%rbp),%rax
    1800125c:	48 8b 80 40 01 00 00 	mov    0x140(%rax),%rax
    18001263:	48 8d 50 08          	lea    0x8(%rax),%rdx
    18001267:	48 8b 45 e8          	mov    -0x18(%rbp),%rax
    1800126b:	48 89 90 40 01 00 00 	mov    %rdx,0x140(%rax)
    18001272:	48 8b 45 e8          	mov    -0x18(%rbp),%rax
    18001276:	8b 80 48 01 00 00    	mov    0x148(%rax),%eax
    1800127c:	8d 50 ff             	lea    -0x1(%rax),%edx
    1800127f:	48 8b 45 e8          	mov    -0x18(%rbp),%rax
    18001283:	89 90 48 01 00 00    	mov    %edx,0x148(%rax)
    18001289:	48 8b 45 e8          	mov    -0x18(%rbp),%rax
    1800128d:	8b 80 48 01 00 00    	mov    0x148(%rax),%eax
    18001293:	85 c0                	test   %eax,%eax
    18001295:	7f a3                	jg     1800123a <conn_release_items+0x40>
    18001297:	48 8b 45 e8          	mov    -0x18(%rbp),%rax
    1800129b:	8b 80 68 01 00 00    	mov    0x168(%rax),%eax
    180012a1:	85 c0                	test   %eax,%eax
    180012a3:	74 6c                	je     18001311 <conn_release_items+0x117>
    180012a5:	eb 5c                	jmp    18001303 <conn_release_items+0x109>
    180012a7:	48 8b 45 e8          	mov    -0x18(%rbp),%rax
    180012ab:	48 8b 80 60 01 00 00 	mov    0x160(%rax),%rax
    180012b2:	48 8b 10             	mov    (%rax),%rdx
    180012b5:	48 8b 45 e8          	mov    -0x18(%rbp),%rax
    180012b9:	48 8b 80 f8 01 00 00 	mov    0x1f8(%rax),%rax
    180012c0:	48 8b 80 78 33 00 00 	mov    0x3378(%rax),%rax
    180012c7:	48 89 d6             	mov    %rdx,%rsi
    180012ca:	48 89 c7             	mov    %rax,%rdi
    180012cd:	e8 56 72 01 00       	callq  18018528 <cache_free>
    180012d2:	48 8b 45 e8          	mov    -0x18(%rbp),%rax
    180012d6:	8b 80 68 01 00 00    	mov    0x168(%rax),%eax
    180012dc:	8d 50 ff             	lea    -0x1(%rax),%edx
    180012df:	48 8b 45 e8          	mov    -0x18(%rbp),%rax
    180012e3:	89 90 68 01 00 00    	mov    %edx,0x168(%rax)
    180012e9:	48 8b 45 e8          	mov    -0x18(%rbp),%rax
    180012ed:	48 8b 80 60 01 00 00 	mov    0x160(%rax),%rax
    180012f4:	48 8d 50 08          	lea    0x8(%rax),%rdx
    180012f8:	48 8b 45 e8          	mov    -0x18(%rbp),%rax
    180012fc:	48 89 90 60 01 00 00 	mov    %rdx,0x160(%rax)
    18001303:	48 8b 45 e8          	mov    -0x18(%rbp),%rax
    18001307:	8b 80 68 01 00 00    	mov    0x168(%rax),%eax
    1800130d:	85 c0                	test   %eax,%eax
    1800130f:	7f 96                	jg     180012a7 <conn_release_items+0xad>
    18001311:	48 8b 45 e8          	mov    -0x18(%rbp),%rax
    18001315:	48 8b 90 30 01 00 00 	mov    0x130(%rax),%rdx
    1800131c:	48 8b 45 e8          	mov    -0x18(%rbp),%rax
    18001320:	48 89 90 40 01 00 00 	mov    %rdx,0x140(%rax)
    18001327:	48 8b 45 e8          	mov    -0x18(%rbp),%rax
    1800132b:	48 8b 90 50 01 00 00 	mov    0x150(%rax),%rdx
    18001332:	48 8b 45 e8          	mov    -0x18(%rbp),%rax
    18001336:	48 89 90 60 01 00 00 	mov    %rdx,0x160(%rax)
    1800133d:	90                   	nop
    1800133e:	c9                   	leaveq 
    1800133f:	c3                   	retq   

0000000018001340 <conn_cleanup>:
    18001340:	55                   	push   %rbp
    18001341:	48 89 e5             	mov    %rsp,%rbp
    18001344:	48 83 ec 10          	sub    $0x10,%rsp
    18001348:	48 89 7d f8          	mov    %rdi,-0x8(%rbp)
    1800134c:	48 8b 45 f8          	mov    -0x8(%rbp),%rax
    18001350:	48 89 c7             	mov    %rax,%rdi
    18001353:	e8 a2 fe ff ff       	callq  180011fa <conn_release_items>
    18001358:	48 8b 45 f8          	mov    -0x8(%rbp),%rax
    1800135c:	48 8b 80 e0 00 00 00 	mov    0xe0(%rax),%rax
    18001363:	48 85 c0             	test   %rax,%rax
    18001366:	74 22                	je     1800138a <conn_cleanup+0x4a>
    18001368:	48 8b 45 f8          	mov    -0x8(%rbp),%rax
    1800136c:	48 8b 80 e0 00 00 00 	mov    0xe0(%rax),%rax
    18001373:	48 89 c7             	mov    %rax,%rdi
    18001376:	e8 d5 d2 01 00       	callq  1801e650 <free>
    1800137b:	48 8b 45 f8          	mov    -0x8(%rbp),%rax
    1800137f:	48 c7 80 e0 00 00 00 	movq   $0x0,0xe0(%rax)
    18001386:	00 00 00 00 
    1800138a:	48 8b 45 f8          	mov    -0x8(%rbp),%rax
    1800138e:	48 8b 40 08          	mov    0x8(%rax),%rax
    18001392:	48 85 c0             	test   %rax,%rax
    18001395:	74 0c                	je     180013a3 <conn_cleanup+0x63>
    18001397:	48 8b 45 f8          	mov    -0x8(%rbp),%rax
    1800139b:	48 c7 40 08 00 00 00 	movq   $0x0,0x8(%rax)
    180013a2:	00 
    180013a3:	48 8b 45 f8          	mov    -0x8(%rbp),%rax
    180013a7:	8b 80 70 01 00 00    	mov    0x170(%rax),%eax
    180013ad:	83 f8 02             	cmp    $0x2,%eax
    180013b0:	75 11                	jne    180013c3 <conn_cleanup+0x83>
    180013b2:	48 8b 45 f8          	mov    -0x8(%rbp),%rax
    180013b6:	be 03 00 00 00       	mov    $0x3,%esi
    180013bb:	48 89 c7             	mov    %rax,%rdi
    180013be:	e8 68 04 00 00       	callq  1800182b <conn_set_state>
    180013c3:	90                   	nop
    180013c4:	c9                   	leaveq 
    180013c5:	c3                   	retq   

00000000180013c6 <conn_free>:
    180013c6:	55                   	push   %rbp
    180013c7:	48 89 e5             	mov    %rsp,%rbp
    180013ca:	48 83 ec 10          	sub    $0x10,%rsp
    180013ce:	48 89 7d f8          	mov    %rdi,-0x8(%rbp)
    180013d2:	48 83 7d f8 00       	cmpq   $0x0,-0x8(%rbp)
    180013d7:	0f 84 21 01 00 00    	je     180014fe <conn_free+0x138>
    180013dd:	48 8d 05 04 45 41 00 	lea    0x414504(%rip),%rax        # 184158e8 <conns>
    180013e4:	48 8b 10             	mov    (%rax),%rdx
    180013e7:	48 8b 45 f8          	mov    -0x8(%rbp),%rax
    180013eb:	8b 00                	mov    (%rax),%eax
    180013ed:	48 98                	cltq   
    180013ef:	48 c1 e0 03          	shl    $0x3,%rax
    180013f3:	48 01 d0             	add    %rdx,%rax
    180013f6:	48 c7 00 00 00 00 00 	movq   $0x0,(%rax)
    180013fd:	48 8b 45 f8          	mov    -0x8(%rbp),%rax
    18001401:	48 8b 80 98 01 00 00 	mov    0x198(%rax),%rax
    18001408:	48 85 c0             	test   %rax,%rax
    1800140b:	74 13                	je     18001420 <conn_free+0x5a>
    1800140d:	48 8b 45 f8          	mov    -0x8(%rbp),%rax
    18001411:	48 8b 80 98 01 00 00 	mov    0x198(%rax),%rax
    18001418:	48 89 c7             	mov    %rax,%rdi
    1800141b:	e8 30 d2 01 00       	callq  1801e650 <free>
    18001420:	48 8b 45 f8          	mov    -0x8(%rbp),%rax
    18001424:	48 8b 80 18 01 00 00 	mov    0x118(%rax),%rax
    1800142b:	48 85 c0             	test   %rax,%rax
    1800142e:	74 13                	je     18001443 <conn_free+0x7d>
    18001430:	48 8b 45 f8          	mov    -0x8(%rbp),%rax
    18001434:	48 8b 80 18 01 00 00 	mov    0x118(%rax),%rax
    1800143b:	48 89 c7             	mov    %rax,%rdi
    1800143e:	e8 0d d2 01 00       	callq  1801e650 <free>
    18001443:	48 8b 45 f8          	mov    -0x8(%rbp),%rax
    18001447:	48 8b 80 a8 00 00 00 	mov    0xa8(%rax),%rax
    1800144e:	48 85 c0             	test   %rax,%rax
    18001451:	74 13                	je     18001466 <conn_free+0xa0>
    18001453:	48 8b 45 f8          	mov    -0x8(%rbp),%rax
    18001457:	48 8b 80 a8 00 00 00 	mov    0xa8(%rax),%rax
    1800145e:	48 89 c7             	mov    %rax,%rdi
    18001461:	e8 ea d1 01 00       	callq  1801e650 <free>
    18001466:	48 8b 45 f8          	mov    -0x8(%rbp),%rax
    1800146a:	48 8b 80 c0 00 00 00 	mov    0xc0(%rax),%rax
    18001471:	48 85 c0             	test   %rax,%rax
    18001474:	74 13                	je     18001489 <conn_free+0xc3>
    18001476:	48 8b 45 f8          	mov    -0x8(%rbp),%rax
    1800147a:	48 8b 80 c0 00 00 00 	mov    0xc0(%rax),%rax
    18001481:	48 89 c7             	mov    %rax,%rdi
    18001484:	e8 c7 d1 01 00       	callq  1801e650 <free>
    18001489:	48 8b 45 f8          	mov    -0x8(%rbp),%rax
    1800148d:	48 8b 80 30 01 00 00 	mov    0x130(%rax),%rax
    18001494:	48 85 c0             	test   %rax,%rax
    18001497:	74 13                	je     180014ac <conn_free+0xe6>
    18001499:	48 8b 45 f8          	mov    -0x8(%rbp),%rax
    1800149d:	48 8b 80 30 01 00 00 	mov    0x130(%rax),%rax
    180014a4:	48 89 c7             	mov    %rax,%rdi
    180014a7:	e8 a4 d1 01 00       	callq  1801e650 <free>
    180014ac:	48 8b 45 f8          	mov    -0x8(%rbp),%rax
    180014b0:	48 8b 80 50 01 00 00 	mov    0x150(%rax),%rax
    180014b7:	48 85 c0             	test   %rax,%rax
    180014ba:	74 13                	je     180014cf <conn_free+0x109>
    180014bc:	48 8b 45 f8          	mov    -0x8(%rbp),%rax
    180014c0:	48 8b 80 50 01 00 00 	mov    0x150(%rax),%rax
    180014c7:	48 89 c7             	mov    %rax,%rdi
    180014ca:	e8 81 d1 01 00       	callq  1801e650 <free>
    180014cf:	48 8b 45 f8          	mov    -0x8(%rbp),%rax
    180014d3:	48 8b 80 08 01 00 00 	mov    0x108(%rax),%rax
    180014da:	48 85 c0             	test   %rax,%rax
    180014dd:	74 13                	je     180014f2 <conn_free+0x12c>
    180014df:	48 8b 45 f8          	mov    -0x8(%rbp),%rax
    180014e3:	48 8b 80 08 01 00 00 	mov    0x108(%rax),%rax
    180014ea:	48 89 c7             	mov    %rax,%rdi
    180014ed:	e8 5e d1 01 00       	callq  1801e650 <free>
    180014f2:	48 8b 45 f8          	mov    -0x8(%rbp),%rax
    180014f6:	48 89 c7             	mov    %rax,%rdi
    180014f9:	e8 52 d1 01 00       	callq  1801e650 <free>
    180014fe:	90                   	nop
    180014ff:	c9                   	leaveq 
    18001500:	c3                   	retq   

0000000018001501 <conn_close>:
    18001501:	55                   	push   %rbp
    18001502:	48 89 e5             	mov    %rsp,%rbp
    18001505:	48 83 ec 10          	sub    $0x10,%rsp
    18001509:	48 89 7d f8          	mov    %rdi,-0x8(%rbp)
    1800150d:	48 8b 45 f8          	mov    -0x8(%rbp),%rax
    18001511:	48 83 c0 20          	add    $0x20,%rax
    18001515:	48 89 c7             	mov    %rax,%rdi
    18001518:	e8 aa 8a 01 00       	callq  18019fc7 <event_del>
    1800151d:	48 8d 05 dc 41 41 00 	lea    0x4141dc(%rip),%rax        # 18415700 <settings>
    18001524:	8b 40 20             	mov    0x20(%rax),%eax
    18001527:	83 f8 01             	cmp    $0x1,%eax
    1800152a:	7e 24                	jle    18001550 <conn_close+0x4f>
    1800152c:	48 8b 45 f8          	mov    -0x8(%rbp),%rax
    18001530:	8b 10                	mov    (%rax),%edx
    18001532:	48 8d 05 57 48 40 00 	lea    0x404857(%rip),%rax        # 18405d90 <stderr>
    18001539:	48 8b 00             	mov    (%rax),%rax
    1800153c:	48 8d 35 ff ec 3f 00 	lea    0x3fecff(%rip),%rsi        # 18400242 <data_start+0x242>
    18001543:	48 89 c7             	mov    %rax,%rdi
    18001546:	b8 00 00 00 00       	mov    $0x0,%eax
    1800154b:	e8 2e 19 02 00       	callq  18022e7e <fprintf>
    18001550:	48 8b 45 f8          	mov    -0x8(%rbp),%rax
    18001554:	48 89 c7             	mov    %rax,%rdi
    18001557:	e8 e4 fd ff ff       	callq  18001340 <conn_cleanup>
    1800155c:	48 8b 45 f8          	mov    -0x8(%rbp),%rax
    18001560:	be 0a 00 00 00       	mov    $0xa,%esi
    18001565:	48 89 c7             	mov    %rax,%rdi
    18001568:	e8 be 02 00 00       	callq  1800182b <conn_set_state>
    1800156d:	48 8b 45 f8          	mov    -0x8(%rbp),%rax
    18001571:	8b 00                	mov    (%rax),%eax
    18001573:	89 c7                	mov    %eax,%edi
    18001575:	e8 83 69 02 00       	callq  18027efd <close>
    1800157a:	48 8d 05 5f 2a 41 00 	lea    0x412a5f(%rip),%rax        # 18413fe0 <conn_lock>
    18001581:	48 89 c7             	mov    %rax,%rdi
    18001584:	e8 2d 60 02 00       	callq  180275b6 <__pthread_mutex_lock>
    18001589:	c6 05 b0 80 40 00 01 	movb   $0x1,0x4080b0(%rip)        # 18409640 <allow_new_conns>
    18001590:	48 8d 05 49 2a 41 00 	lea    0x412a49(%rip),%rax        # 18413fe0 <conn_lock>
    18001597:	48 89 c7             	mov    %rax,%rdi
    1800159a:	e8 82 62 02 00       	callq  18027821 <__pthread_mutex_unlock>
    1800159f:	e8 d3 51 01 00       	callq  18016777 <STATS_LOCK>
    180015a4:	48 8d 05 15 42 41 00 	lea    0x414215(%rip),%rax        # 184157c0 <stats>
    180015ab:	8b 40 38             	mov    0x38(%rax),%eax
    180015ae:	8d 50 ff             	lea    -0x1(%rax),%edx
    180015b1:	48 8d 05 08 42 41 00 	lea    0x414208(%rip),%rax        # 184157c0 <stats>
    180015b8:	89 50 38             	mov    %edx,0x38(%rax)
    180015bb:	e8 ca 51 01 00       	callq  1801678a <STATS_UNLOCK>
    180015c0:	90                   	nop
    180015c1:	c9                   	leaveq 
    180015c2:	c3                   	retq   

00000000180015c3 <conn_shrink>:
    180015c3:	55                   	push   %rbp
    180015c4:	48 89 e5             	mov    %rsp,%rbp
    180015c7:	48 83 ec 30          	sub    $0x30,%rsp
    180015cb:	48 89 7d d8          	mov    %rdi,-0x28(%rbp)
    180015cf:	48 8b 45 d8          	mov    -0x28(%rbp),%rax
    180015d3:	8b 80 70 01 00 00    	mov    0x170(%rax),%eax
    180015d9:	83 f8 02             	cmp    $0x2,%eax
    180015dc:	0f 84 bc 01 00 00    	je     1800179e <conn_shrink+0x1db>
    180015e2:	48 8b 45 d8          	mov    -0x28(%rbp),%rax
    180015e6:	8b 80 b8 00 00 00    	mov    0xb8(%rax),%eax
    180015ec:	3d 00 20 00 00       	cmp    $0x2000,%eax
    180015f1:	0f 8e b4 00 00 00    	jle    180016ab <conn_shrink+0xe8>
    180015f7:	48 8b 45 d8          	mov    -0x28(%rbp),%rax
    180015fb:	8b 80 bc 00 00 00    	mov    0xbc(%rax),%eax
    18001601:	3d ff 07 00 00       	cmp    $0x7ff,%eax
    18001606:	0f 8f 9f 00 00 00    	jg     180016ab <conn_shrink+0xe8>
    1800160c:	48 8b 45 d8          	mov    -0x28(%rbp),%rax
    18001610:	48 8b 90 b0 00 00 00 	mov    0xb0(%rax),%rdx
    18001617:	48 8b 45 d8          	mov    -0x28(%rbp),%rax
    1800161b:	48 8b 80 a8 00 00 00 	mov    0xa8(%rax),%rax
    18001622:	48 39 c2             	cmp    %rax,%rdx
    18001625:	74 2e                	je     18001655 <conn_shrink+0x92>
    18001627:	48 8b 45 d8          	mov    -0x28(%rbp),%rax
    1800162b:	8b 80 bc 00 00 00    	mov    0xbc(%rax),%eax
    18001631:	48 63 d0             	movslq %eax,%rdx
    18001634:	48 8b 45 d8          	mov    -0x28(%rbp),%rax
    18001638:	48 8b 88 b0 00 00 00 	mov    0xb0(%rax),%rcx
    1800163f:	48 8b 45 d8          	mov    -0x28(%rbp),%rax
    18001643:	48 8b 80 a8 00 00 00 	mov    0xa8(%rax),%rax
    1800164a:	48 89 ce             	mov    %rcx,%rsi
    1800164d:	48 89 c7             	mov    %rax,%rdi
    18001650:	e8 f4 4f 02 00       	callq  18026649 <memmove>
    18001655:	48 8b 45 d8          	mov    -0x28(%rbp),%rax
    18001659:	48 8b 80 a8 00 00 00 	mov    0xa8(%rax),%rax
    18001660:	be 00 08 00 00       	mov    $0x800,%esi
    18001665:	48 89 c7             	mov    %rax,%rdi
    18001668:	e8 83 db 01 00       	callq  1801f1f0 <realloc>
    1800166d:	48 89 45 f8          	mov    %rax,-0x8(%rbp)
    18001671:	48 83 7d f8 00       	cmpq   $0x0,-0x8(%rbp)
    18001676:	74 1d                	je     18001695 <conn_shrink+0xd2>
    18001678:	48 8b 45 d8          	mov    -0x28(%rbp),%rax
    1800167c:	48 8b 55 f8          	mov    -0x8(%rbp),%rdx
    18001680:	48 89 90 a8 00 00 00 	mov    %rdx,0xa8(%rax)
    18001687:	48 8b 45 d8          	mov    -0x28(%rbp),%rax
    1800168b:	c7 80 b8 00 00 00 00 	movl   $0x800,0xb8(%rax)
    18001692:	08 00 00 
    18001695:	48 8b 45 d8          	mov    -0x28(%rbp),%rax
    18001699:	48 8b 90 a8 00 00 00 	mov    0xa8(%rax),%rdx
    180016a0:	48 8b 45 d8          	mov    -0x28(%rbp),%rax
    180016a4:	48 89 90 b0 00 00 00 	mov    %rdx,0xb0(%rax)
    180016ab:	48 8b 45 d8          	mov    -0x28(%rbp),%rax
    180016af:	8b 80 38 01 00 00    	mov    0x138(%rax),%eax
    180016b5:	3d 90 01 00 00       	cmp    $0x190,%eax
    180016ba:	7e 40                	jle    180016fc <conn_shrink+0x139>
    180016bc:	48 8b 45 d8          	mov    -0x28(%rbp),%rax
    180016c0:	48 8b 80 30 01 00 00 	mov    0x130(%rax),%rax
    180016c7:	be 40 06 00 00       	mov    $0x640,%esi
    180016cc:	48 89 c7             	mov    %rax,%rdi
    180016cf:	e8 1c db 01 00       	callq  1801f1f0 <realloc>
    180016d4:	48 89 45 f0          	mov    %rax,-0x10(%rbp)
    180016d8:	48 83 7d f0 00       	cmpq   $0x0,-0x10(%rbp)
    180016dd:	74 1d                	je     180016fc <conn_shrink+0x139>
    180016df:	48 8b 45 d8          	mov    -0x28(%rbp),%rax
    180016e3:	48 8b 55 f0          	mov    -0x10(%rbp),%rdx
    180016e7:	48 89 90 30 01 00 00 	mov    %rdx,0x130(%rax)
    180016ee:	48 8b 45 d8          	mov    -0x28(%rbp),%rax
    180016f2:	c7 80 38 01 00 00 c8 	movl   $0xc8,0x138(%rax)
    180016f9:	00 00 00 
    180016fc:	48 8b 45 d8          	mov    -0x28(%rbp),%rax
    18001700:	8b 80 20 01 00 00    	mov    0x120(%rax),%eax
    18001706:	83 f8 64             	cmp    $0x64,%eax
    18001709:	7e 40                	jle    1800174b <conn_shrink+0x188>
    1800170b:	48 8b 45 d8          	mov    -0x28(%rbp),%rax
    1800170f:	48 8b 80 18 01 00 00 	mov    0x118(%rax),%rax
    18001716:	be 30 02 00 00       	mov    $0x230,%esi
    1800171b:	48 89 c7             	mov    %rax,%rdi
    1800171e:	e8 cd da 01 00       	callq  1801f1f0 <realloc>
    18001723:	48 89 45 e8          	mov    %rax,-0x18(%rbp)
    18001727:	48 83 7d e8 00       	cmpq   $0x0,-0x18(%rbp)
    1800172c:	74 1d                	je     1800174b <conn_shrink+0x188>
    1800172e:	48 8b 45 d8          	mov    -0x28(%rbp),%rax
    18001732:	48 8b 55 e8          	mov    -0x18(%rbp),%rdx
    18001736:	48 89 90 18 01 00 00 	mov    %rdx,0x118(%rax)
    1800173d:	48 8b 45 d8          	mov    -0x28(%rbp),%rax
    18001741:	c7 80 20 01 00 00 0a 	movl   $0xa,0x120(%rax)
    18001748:	00 00 00 
    1800174b:	48 8b 45 d8          	mov    -0x28(%rbp),%rax
    1800174f:	8b 80 10 01 00 00    	mov    0x110(%rax),%eax
    18001755:	3d 58 02 00 00       	cmp    $0x258,%eax
    1800175a:	7e 43                	jle    1800179f <conn_shrink+0x1dc>
    1800175c:	48 8b 45 d8          	mov    -0x28(%rbp),%rax
    18001760:	48 8b 80 08 01 00 00 	mov    0x108(%rax),%rax
    18001767:	be 00 19 00 00       	mov    $0x1900,%esi
    1800176c:	48 89 c7             	mov    %rax,%rdi
    1800176f:	e8 7c da 01 00       	callq  1801f1f0 <realloc>
    18001774:	48 89 45 e0          	mov    %rax,-0x20(%rbp)
    18001778:	48 83 7d e0 00       	cmpq   $0x0,-0x20(%rbp)
    1800177d:	74 20                	je     1800179f <conn_shrink+0x1dc>
    1800177f:	48 8b 45 d8          	mov    -0x28(%rbp),%rax
    18001783:	48 8b 55 e0          	mov    -0x20(%rbp),%rdx
    18001787:	48 89 90 08 01 00 00 	mov    %rdx,0x108(%rax)
    1800178e:	48 8b 45 d8          	mov    -0x28(%rbp),%rax
    18001792:	c7 80 10 01 00 00 90 	movl   $0x190,0x110(%rax)
    18001799:	01 00 00 
    1800179c:	eb 01                	jmp    1800179f <conn_shrink+0x1dc>
    1800179e:	90                   	nop
    1800179f:	c9                   	leaveq 
    180017a0:	c3                   	retq   

00000000180017a1 <state_text>:
    180017a1:	55                   	push   %rbp
    180017a2:	48 89 e5             	mov    %rsp,%rbp
    180017a5:	89 7d 9c             	mov    %edi,-0x64(%rbp)
    180017a8:	48 8d 05 ab ea 3f 00 	lea    0x3feaab(%rip),%rax        # 1840025a <data_start+0x25a>
    180017af:	48 89 45 a0          	mov    %rax,-0x60(%rbp)
    180017b3:	48 8d 05 af ea 3f 00 	lea    0x3feaaf(%rip),%rax        # 18400269 <data_start+0x269>
    180017ba:	48 89 45 a8          	mov    %rax,-0x58(%rbp)
    180017be:	48 8d 05 b1 ea 3f 00 	lea    0x3feab1(%rip),%rax        # 18400276 <data_start+0x276>
    180017c5:	48 89 45 b0          	mov    %rax,-0x50(%rbp)
    180017c9:	48 8d 05 b3 ea 3f 00 	lea    0x3feab3(%rip),%rax        # 18400283 <data_start+0x283>
    180017d0:	48 89 45 b8          	mov    %rax,-0x48(%rbp)
    180017d4:	48 8d 05 b2 ea 3f 00 	lea    0x3feab2(%rip),%rax        # 1840028d <data_start+0x28d>
    180017db:	48 89 45 c0          	mov    %rax,-0x40(%rbp)
    180017df:	48 8d 05 b6 ea 3f 00 	lea    0x3feab6(%rip),%rax        # 1840029c <data_start+0x29c>
    180017e6:	48 89 45 c8          	mov    %rax,-0x38(%rbp)
    180017ea:	48 8d 05 b6 ea 3f 00 	lea    0x3feab6(%rip),%rax        # 184002a7 <data_start+0x2a7>
    180017f1:	48 89 45 d0          	mov    %rax,-0x30(%rbp)
    180017f5:	48 8d 05 b6 ea 3f 00 	lea    0x3feab6(%rip),%rax        # 184002b2 <data_start+0x2b2>
    180017fc:	48 89 45 d8          	mov    %rax,-0x28(%rbp)
    18001800:	48 8d 05 b8 ea 3f 00 	lea    0x3feab8(%rip),%rax        # 184002bf <data_start+0x2bf>
    18001807:	48 89 45 e0          	mov    %rax,-0x20(%rbp)
    1800180b:	48 8d 05 ba ea 3f 00 	lea    0x3feaba(%rip),%rax        # 184002cc <data_start+0x2cc>
    18001812:	48 89 45 e8          	mov    %rax,-0x18(%rbp)
    18001816:	48 8d 05 bb ea 3f 00 	lea    0x3feabb(%rip),%rax        # 184002d8 <data_start+0x2d8>
    1800181d:	48 89 45 f0          	mov    %rax,-0x10(%rbp)
    18001821:	8b 45 9c             	mov    -0x64(%rbp),%eax
    18001824:	48 8b 44 c5 a0       	mov    -0x60(%rbp,%rax,8),%rax
    18001829:	5d                   	pop    %rbp
    1800182a:	c3                   	retq   

000000001800182b <conn_set_state>:
    1800182b:	55                   	push   %rbp
    1800182c:	48 89 e5             	mov    %rsp,%rbp
    1800182f:	53                   	push   %rbx
    18001830:	48 83 ec 18          	sub    $0x18,%rsp
    18001834:	48 89 7d e8          	mov    %rdi,-0x18(%rbp)
    18001838:	89 75 e4             	mov    %esi,-0x1c(%rbp)
    1800183b:	48 8b 45 e8          	mov    -0x18(%rbp),%rax
    1800183f:	8b 40 14             	mov    0x14(%rax),%eax
    18001842:	3b 45 e4             	cmp    -0x1c(%rbp),%eax
    18001845:	74 5e                	je     180018a5 <conn_set_state+0x7a>
    18001847:	48 8d 05 b2 3e 41 00 	lea    0x413eb2(%rip),%rax        # 18415700 <settings>
    1800184e:	8b 40 20             	mov    0x20(%rax),%eax
    18001851:	83 f8 02             	cmp    $0x2,%eax
    18001854:	7e 45                	jle    1800189b <conn_set_state+0x70>
    18001856:	8b 45 e4             	mov    -0x1c(%rbp),%eax
    18001859:	89 c7                	mov    %eax,%edi
    1800185b:	e8 41 ff ff ff       	callq  180017a1 <state_text>
    18001860:	48 89 c3             	mov    %rax,%rbx
    18001863:	48 8b 45 e8          	mov    -0x18(%rbp),%rax
    18001867:	8b 40 14             	mov    0x14(%rax),%eax
    1800186a:	89 c7                	mov    %eax,%edi
    1800186c:	e8 30 ff ff ff       	callq  180017a1 <state_text>
    18001871:	48 89 c1             	mov    %rax,%rcx
    18001874:	48 8b 45 e8          	mov    -0x18(%rbp),%rax
    18001878:	8b 10                	mov    (%rax),%edx
    1800187a:	48 8d 05 0f 45 40 00 	lea    0x40450f(%rip),%rax        # 18405d90 <stderr>
    18001881:	48 8b 00             	mov    (%rax),%rax
    18001884:	49 89 d8             	mov    %rbx,%r8
    18001887:	48 8d 35 56 ea 3f 00 	lea    0x3fea56(%rip),%rsi        # 184002e4 <data_start+0x2e4>
    1800188e:	48 89 c7             	mov    %rax,%rdi
    18001891:	b8 00 00 00 00       	mov    $0x0,%eax
    18001896:	e8 e3 15 02 00       	callq  18022e7e <fprintf>
    1800189b:	48 8b 45 e8          	mov    -0x18(%rbp),%rax
    1800189f:	8b 55 e4             	mov    -0x1c(%rbp),%edx
    180018a2:	89 50 14             	mov    %edx,0x14(%rax)
    180018a5:	90                   	nop
    180018a6:	48 83 c4 18          	add    $0x18,%rsp
    180018aa:	5b                   	pop    %rbx
    180018ab:	5d                   	pop    %rbp
    180018ac:	c3                   	retq   

00000000180018ad <ensure_iov_space>:
    180018ad:	55                   	push   %rbp
    180018ae:	48 89 e5             	mov    %rsp,%rbp
    180018b1:	48 83 ec 20          	sub    $0x20,%rsp
    180018b5:	48 89 7d e8          	mov    %rdi,-0x18(%rbp)
    180018b9:	48 8b 45 e8          	mov    -0x18(%rbp),%rax
    180018bd:	8b 90 14 01 00 00    	mov    0x114(%rax),%edx
    180018c3:	48 8b 45 e8          	mov    -0x18(%rbp),%rax
    180018c7:	8b 80 10 01 00 00    	mov    0x110(%rax),%eax
    180018cd:	39 c2                	cmp    %eax,%edx
    180018cf:	0f 8c 17 01 00 00    	jl     180019ec <ensure_iov_space+0x13f>
    180018d5:	48 8b 45 e8          	mov    -0x18(%rbp),%rax
    180018d9:	8b 80 10 01 00 00    	mov    0x110(%rax),%eax
    180018df:	48 98                	cltq   
    180018e1:	48 c1 e0 05          	shl    $0x5,%rax
    180018e5:	48 89 c2             	mov    %rax,%rdx
    180018e8:	48 8b 45 e8          	mov    -0x18(%rbp),%rax
    180018ec:	48 8b 80 08 01 00 00 	mov    0x108(%rax),%rax
    180018f3:	48 89 d6             	mov    %rdx,%rsi
    180018f6:	48 89 c7             	mov    %rax,%rdi
    180018f9:	e8 f2 d8 01 00       	callq  1801f1f0 <realloc>
    180018fe:	48 89 45 f0          	mov    %rax,-0x10(%rbp)
    18001902:	48 83 7d f0 00       	cmpq   $0x0,-0x10(%rbp)
    18001907:	75 2e                	jne    18001937 <ensure_iov_space+0x8a>
    18001909:	e8 69 4e 01 00       	callq  18016777 <STATS_LOCK>
    1800190e:	48 8d 05 ab 3e 41 00 	lea    0x413eab(%rip),%rax        # 184157c0 <stats>
    18001915:	48 8b 40 48          	mov    0x48(%rax),%rax
    18001919:	48 8d 50 01          	lea    0x1(%rax),%rdx
    1800191d:	48 8d 05 9c 3e 41 00 	lea    0x413e9c(%rip),%rax        # 184157c0 <stats>
    18001924:	48 89 50 48          	mov    %rdx,0x48(%rax)
    18001928:	e8 5d 4e 01 00       	callq  1801678a <STATS_UNLOCK>
    1800192d:	b8 ff ff ff ff       	mov    $0xffffffff,%eax
    18001932:	e9 ba 00 00 00       	jmpq   180019f1 <ensure_iov_space+0x144>
    18001937:	48 8b 45 e8          	mov    -0x18(%rbp),%rax
    1800193b:	48 8b 55 f0          	mov    -0x10(%rbp),%rdx
    1800193f:	48 89 90 08 01 00 00 	mov    %rdx,0x108(%rax)
    18001946:	48 8b 45 e8          	mov    -0x18(%rbp),%rax
    1800194a:	8b 80 10 01 00 00    	mov    0x110(%rax),%eax
    18001950:	8d 14 00             	lea    (%rax,%rax,1),%edx
    18001953:	48 8b 45 e8          	mov    -0x18(%rbp),%rax
    18001957:	89 90 10 01 00 00    	mov    %edx,0x110(%rax)
    1800195d:	c7 45 fc 00 00 00 00 	movl   $0x0,-0x4(%rbp)
    18001964:	c7 45 f8 00 00 00 00 	movl   $0x0,-0x8(%rbp)
    1800196b:	eb 70                	jmp    180019dd <ensure_iov_space+0x130>
    1800196d:	48 8b 45 e8          	mov    -0x18(%rbp),%rax
    18001971:	48 8b 90 18 01 00 00 	mov    0x118(%rax),%rdx
    18001978:	8b 45 fc             	mov    -0x4(%rbp),%eax
    1800197b:	48 98                	cltq   
    1800197d:	48 c1 e0 03          	shl    $0x3,%rax
    18001981:	48 8d 0c c5 00 00 00 	lea    0x0(,%rax,8),%rcx
    18001988:	00 
    18001989:	48 29 c1             	sub    %rax,%rcx
    1800198c:	48 89 c8             	mov    %rcx,%rax
    1800198f:	48 01 c2             	add    %rax,%rdx
    18001992:	48 8b 45 e8          	mov    -0x18(%rbp),%rax
    18001996:	48 8b 80 08 01 00 00 	mov    0x108(%rax),%rax
    1800199d:	8b 4d f8             	mov    -0x8(%rbp),%ecx
    180019a0:	48 63 c9             	movslq %ecx,%rcx
    180019a3:	48 c1 e1 04          	shl    $0x4,%rcx
    180019a7:	48 01 c8             	add    %rcx,%rax
    180019aa:	48 89 42 10          	mov    %rax,0x10(%rdx)
    180019ae:	48 8b 45 e8          	mov    -0x18(%rbp),%rax
    180019b2:	48 8b 90 18 01 00 00 	mov    0x118(%rax),%rdx
    180019b9:	8b 45 fc             	mov    -0x4(%rbp),%eax
    180019bc:	48 98                	cltq   
    180019be:	48 c1 e0 03          	shl    $0x3,%rax
    180019c2:	48 8d 0c c5 00 00 00 	lea    0x0(,%rax,8),%rcx
    180019c9:	00 
    180019ca:	48 29 c1             	sub    %rax,%rcx
    180019cd:	48 89 c8             	mov    %rcx,%rax
    180019d0:	48 01 d0             	add    %rdx,%rax
    180019d3:	8b 40 18             	mov    0x18(%rax),%eax
    180019d6:	01 45 f8             	add    %eax,-0x8(%rbp)
    180019d9:	83 45 fc 01          	addl   $0x1,-0x4(%rbp)
    180019dd:	48 8b 45 e8          	mov    -0x18(%rbp),%rax
    180019e1:	8b 80 24 01 00 00    	mov    0x124(%rax),%eax
    180019e7:	3b 45 fc             	cmp    -0x4(%rbp),%eax
    180019ea:	7f 81                	jg     1800196d <ensure_iov_space+0xc0>
    180019ec:	b8 00 00 00 00       	mov    $0x0,%eax
    180019f1:	c9                   	leaveq 
    180019f2:	c3                   	retq   

00000000180019f3 <add_iov>:
    180019f3:	55                   	push   %rbp
    180019f4:	48 89 e5             	mov    %rsp,%rbp
    180019f7:	48 83 ec 40          	sub    $0x40,%rsp
    180019fb:	48 89 7d d8          	mov    %rdi,-0x28(%rbp)
    180019ff:	48 89 75 d0          	mov    %rsi,-0x30(%rbp)
    18001a03:	89 55 cc             	mov    %edx,-0x34(%rbp)
    18001a06:	48 8b 45 d8          	mov    -0x28(%rbp),%rax
    18001a0a:	48 8b 90 18 01 00 00 	mov    0x118(%rax),%rdx
    18001a11:	48 8b 45 d8          	mov    -0x28(%rbp),%rax
    18001a15:	8b 80 24 01 00 00    	mov    0x124(%rax),%eax
    18001a1b:	48 98                	cltq   
    18001a1d:	48 c1 e0 03          	shl    $0x3,%rax
    18001a21:	48 8d 0c c5 00 00 00 	lea    0x0(,%rax,8),%rcx
    18001a28:	00 
    18001a29:	48 29 c1             	sub    %rax,%rcx
    18001a2c:	48 89 c8             	mov    %rcx,%rax
    18001a2f:	48 83 e8 38          	sub    $0x38,%rax
    18001a33:	48 01 d0             	add    %rdx,%rax
    18001a36:	48 89 45 f0          	mov    %rax,-0x10(%rbp)
    18001a3a:	48 8b 45 d8          	mov    -0x28(%rbp),%rax
    18001a3e:	8b 80 70 01 00 00    	mov    0x170(%rax),%eax
    18001a44:	83 f8 02             	cmp    $0x2,%eax
    18001a47:	74 0f                	je     18001a58 <add_iov+0x65>
    18001a49:	48 8b 45 d8          	mov    -0x28(%rbp),%rax
    18001a4d:	8b 80 24 01 00 00    	mov    0x124(%rax),%eax
    18001a53:	83 f8 01             	cmp    $0x1,%eax
    18001a56:	75 07                	jne    18001a5f <add_iov+0x6c>
    18001a58:	b8 01 00 00 00       	mov    $0x1,%eax
    18001a5d:	eb 05                	jmp    18001a64 <add_iov+0x71>
    18001a5f:	b8 00 00 00 00       	mov    $0x0,%eax
    18001a64:	88 45 ef             	mov    %al,-0x11(%rbp)
    18001a67:	80 65 ef 01          	andb   $0x1,-0x11(%rbp)
    18001a6b:	48 8b 45 f0          	mov    -0x10(%rbp),%rax
    18001a6f:	8b 40 18             	mov    0x18(%rax),%eax
    18001a72:	3d 00 04 00 00       	cmp    $0x400,%eax
    18001a77:	74 17                	je     18001a90 <add_iov+0x9d>
    18001a79:	80 7d ef 00          	cmpb   $0x0,-0x11(%rbp)
    18001a7d:	74 51                	je     18001ad0 <add_iov+0xdd>
    18001a7f:	48 8b 45 d8          	mov    -0x28(%rbp),%rax
    18001a83:	8b 80 2c 01 00 00    	mov    0x12c(%rax),%eax
    18001a89:	3d 77 05 00 00       	cmp    $0x577,%eax
    18001a8e:	7e 40                	jle    18001ad0 <add_iov+0xdd>
    18001a90:	48 8b 45 d8          	mov    -0x28(%rbp),%rax
    18001a94:	48 89 c7             	mov    %rax,%rdi
    18001a97:	e8 2b ed ff ff       	callq  180007c7 <add_msghdr>
    18001a9c:	48 8b 45 d8          	mov    -0x28(%rbp),%rax
    18001aa0:	48 8b 90 18 01 00 00 	mov    0x118(%rax),%rdx
    18001aa7:	48 8b 45 d8          	mov    -0x28(%rbp),%rax
    18001aab:	8b 80 24 01 00 00    	mov    0x124(%rax),%eax
    18001ab1:	48 98                	cltq   
    18001ab3:	48 c1 e0 03          	shl    $0x3,%rax
    18001ab7:	48 8d 0c c5 00 00 00 	lea    0x0(,%rax,8),%rcx
    18001abe:	00 
    18001abf:	48 29 c1             	sub    %rax,%rcx
    18001ac2:	48 89 c8             	mov    %rcx,%rax
    18001ac5:	48 83 e8 38          	sub    $0x38,%rax
    18001ac9:	48 01 d0             	add    %rdx,%rax
    18001acc:	48 89 45 f0          	mov    %rax,-0x10(%rbp)
    18001ad0:	48 8b 45 d8          	mov    -0x28(%rbp),%rax
    18001ad4:	48 89 c7             	mov    %rax,%rdi
    18001ad7:	e8 d1 fd ff ff       	callq  180018ad <ensure_iov_space>
    18001adc:	85 c0                	test   %eax,%eax
    18001ade:	74 0a                	je     18001aea <add_iov+0xf7>
    18001ae0:	b8 ff ff ff ff       	mov    $0xffffffff,%eax
    18001ae5:	e9 15 01 00 00       	jmpq   18001bff <add_iov+0x20c>
    18001aea:	80 7d ef 00          	cmpb   $0x0,-0x11(%rbp)
    18001aee:	74 35                	je     18001b25 <add_iov+0x132>
    18001af0:	48 8b 45 d8          	mov    -0x28(%rbp),%rax
    18001af4:	8b 90 2c 01 00 00    	mov    0x12c(%rax),%edx
    18001afa:	8b 45 cc             	mov    -0x34(%rbp),%eax
    18001afd:	01 d0                	add    %edx,%eax
    18001aff:	3d 78 05 00 00       	cmp    $0x578,%eax
    18001b04:	7e 1f                	jle    18001b25 <add_iov+0x132>
    18001b06:	48 8b 45 d8          	mov    -0x28(%rbp),%rax
    18001b0a:	8b 90 2c 01 00 00    	mov    0x12c(%rax),%edx
    18001b10:	8b 45 cc             	mov    -0x34(%rbp),%eax
    18001b13:	01 d0                	add    %edx,%eax
    18001b15:	2d 78 05 00 00       	sub    $0x578,%eax
    18001b1a:	89 45 fc             	mov    %eax,-0x4(%rbp)
    18001b1d:	8b 45 fc             	mov    -0x4(%rbp),%eax
    18001b20:	29 45 cc             	sub    %eax,-0x34(%rbp)
    18001b23:	eb 07                	jmp    18001b2c <add_iov+0x139>
    18001b25:	c7 45 fc 00 00 00 00 	movl   $0x0,-0x4(%rbp)
    18001b2c:	48 8b 45 d8          	mov    -0x28(%rbp),%rax
    18001b30:	48 8b 90 18 01 00 00 	mov    0x118(%rax),%rdx
    18001b37:	48 8b 45 d8          	mov    -0x28(%rbp),%rax
    18001b3b:	8b 80 24 01 00 00    	mov    0x124(%rax),%eax
    18001b41:	48 98                	cltq   
    18001b43:	48 c1 e0 03          	shl    $0x3,%rax
    18001b47:	48 8d 0c c5 00 00 00 	lea    0x0(,%rax,8),%rcx
    18001b4e:	00 
    18001b4f:	48 29 c1             	sub    %rax,%rcx
    18001b52:	48 89 c8             	mov    %rcx,%rax
    18001b55:	48 83 e8 38          	sub    $0x38,%rax
    18001b59:	48 01 d0             	add    %rdx,%rax
    18001b5c:	48 89 45 f0          	mov    %rax,-0x10(%rbp)
    18001b60:	48 8b 45 f0          	mov    -0x10(%rbp),%rax
    18001b64:	48 8b 50 10          	mov    0x10(%rax),%rdx
    18001b68:	48 8b 45 f0          	mov    -0x10(%rbp),%rax
    18001b6c:	8b 40 18             	mov    0x18(%rax),%eax
    18001b6f:	48 98                	cltq   
    18001b71:	48 c1 e0 04          	shl    $0x4,%rax
    18001b75:	48 01 c2             	add    %rax,%rdx
    18001b78:	48 8b 45 d0          	mov    -0x30(%rbp),%rax
    18001b7c:	48 89 02             	mov    %rax,(%rdx)
    18001b7f:	48 8b 45 f0          	mov    -0x10(%rbp),%rax
    18001b83:	48 8b 50 10          	mov    0x10(%rax),%rdx
    18001b87:	48 8b 45 f0          	mov    -0x10(%rbp),%rax
    18001b8b:	8b 40 18             	mov    0x18(%rax),%eax
    18001b8e:	48 98                	cltq   
    18001b90:	48 c1 e0 04          	shl    $0x4,%rax
    18001b94:	48 01 c2             	add    %rax,%rdx
    18001b97:	8b 45 cc             	mov    -0x34(%rbp),%eax
    18001b9a:	48 98                	cltq   
    18001b9c:	48 89 42 08          	mov    %rax,0x8(%rdx)
    18001ba0:	48 8b 45 d8          	mov    -0x28(%rbp),%rax
    18001ba4:	8b 90 2c 01 00 00    	mov    0x12c(%rax),%edx
    18001baa:	8b 45 cc             	mov    -0x34(%rbp),%eax
    18001bad:	01 c2                	add    %eax,%edx
    18001baf:	48 8b 45 d8          	mov    -0x28(%rbp),%rax
    18001bb3:	89 90 2c 01 00 00    	mov    %edx,0x12c(%rax)
    18001bb9:	48 8b 45 d8          	mov    -0x28(%rbp),%rax
    18001bbd:	8b 80 14 01 00 00    	mov    0x114(%rax),%eax
    18001bc3:	8d 50 01             	lea    0x1(%rax),%edx
    18001bc6:	48 8b 45 d8          	mov    -0x28(%rbp),%rax
    18001bca:	89 90 14 01 00 00    	mov    %edx,0x114(%rax)
    18001bd0:	48 8b 45 f0          	mov    -0x10(%rbp),%rax
    18001bd4:	8b 40 18             	mov    0x18(%rax),%eax
    18001bd7:	8d 50 01             	lea    0x1(%rax),%edx
    18001bda:	48 8b 45 f0          	mov    -0x10(%rbp),%rax
    18001bde:	89 50 18             	mov    %edx,0x18(%rax)
    18001be1:	8b 45 cc             	mov    -0x34(%rbp),%eax
    18001be4:	48 98                	cltq   
    18001be6:	48 01 45 d0          	add    %rax,-0x30(%rbp)
    18001bea:	8b 45 fc             	mov    -0x4(%rbp),%eax
    18001bed:	89 45 cc             	mov    %eax,-0x34(%rbp)
    18001bf0:	83 7d fc 00          	cmpl   $0x0,-0x4(%rbp)
    18001bf4:	0f 8f 0c fe ff ff    	jg     18001a06 <add_iov+0x13>
    18001bfa:	b8 00 00 00 00       	mov    $0x0,%eax
    18001bff:	c9                   	leaveq 
    18001c00:	c3                   	retq   

0000000018001c01 <build_udp_headers>:
    18001c01:	55                   	push   %rbp
    18001c02:	48 89 e5             	mov    %rsp,%rbp
    18001c05:	48 83 ec 30          	sub    $0x30,%rsp
    18001c09:	48 89 7d d8          	mov    %rdi,-0x28(%rbp)
    18001c0d:	48 8b 45 d8          	mov    -0x28(%rbp),%rax
    18001c11:	8b 90 24 01 00 00    	mov    0x124(%rax),%edx
    18001c17:	48 8b 45 d8          	mov    -0x28(%rbp),%rax
    18001c1b:	8b 80 a0 01 00 00    	mov    0x1a0(%rax),%eax
    18001c21:	39 c2                	cmp    %eax,%edx
    18001c23:	0f 8e b2 00 00 00    	jle    18001cdb <build_udp_headers+0xda>
    18001c29:	48 8b 45 d8          	mov    -0x28(%rbp),%rax
    18001c2d:	48 8b 80 98 01 00 00 	mov    0x198(%rax),%rax
    18001c34:	48 85 c0             	test   %rax,%rax
    18001c37:	74 2c                	je     18001c65 <build_udp_headers+0x64>
    18001c39:	48 8b 45 d8          	mov    -0x28(%rbp),%rax
    18001c3d:	8b 80 24 01 00 00    	mov    0x124(%rax),%eax
    18001c43:	c1 e0 04             	shl    $0x4,%eax
    18001c46:	48 63 d0             	movslq %eax,%rdx
    18001c49:	48 8b 45 d8          	mov    -0x28(%rbp),%rax
    18001c4d:	48 8b 80 98 01 00 00 	mov    0x198(%rax),%rax
    18001c54:	48 89 d6             	mov    %rdx,%rsi
    18001c57:	48 89 c7             	mov    %rax,%rdi
    18001c5a:	e8 91 d5 01 00       	callq  1801f1f0 <realloc>
    18001c5f:	48 89 45 e8          	mov    %rax,-0x18(%rbp)
    18001c63:	eb 1b                	jmp    18001c80 <build_udp_headers+0x7f>
    18001c65:	48 8b 45 d8          	mov    -0x28(%rbp),%rax
    18001c69:	8b 80 24 01 00 00    	mov    0x124(%rax),%eax
    18001c6f:	c1 e0 04             	shl    $0x4,%eax
    18001c72:	48 98                	cltq   
    18001c74:	48 89 c7             	mov    %rax,%rdi
    18001c77:	e8 d4 ce 01 00       	callq  1801eb50 <malloc>
    18001c7c:	48 89 45 e8          	mov    %rax,-0x18(%rbp)
    18001c80:	48 83 7d e8 00       	cmpq   $0x0,-0x18(%rbp)
    18001c85:	75 2e                	jne    18001cb5 <build_udp_headers+0xb4>
    18001c87:	e8 eb 4a 01 00       	callq  18016777 <STATS_LOCK>
    18001c8c:	48 8d 05 2d 3b 41 00 	lea    0x413b2d(%rip),%rax        # 184157c0 <stats>
    18001c93:	48 8b 40 48          	mov    0x48(%rax),%rax
    18001c97:	48 8d 50 01          	lea    0x1(%rax),%rdx
    18001c9b:	48 8d 05 1e 3b 41 00 	lea    0x413b1e(%rip),%rax        # 184157c0 <stats>
    18001ca2:	48 89 50 48          	mov    %rdx,0x48(%rax)
    18001ca6:	e8 df 4a 01 00       	callq  1801678a <STATS_UNLOCK>
    18001cab:	b8 ff ff ff ff       	mov    $0xffffffff,%eax
    18001cb0:	e9 b5 01 00 00       	jmpq   18001e6a <build_udp_headers+0x269>
    18001cb5:	48 8b 45 d8          	mov    -0x28(%rbp),%rax
    18001cb9:	48 8b 55 e8          	mov    -0x18(%rbp),%rdx
    18001cbd:	48 89 90 98 01 00 00 	mov    %rdx,0x198(%rax)
    18001cc4:	48 8b 45 d8          	mov    -0x28(%rbp),%rax
    18001cc8:	8b 80 24 01 00 00    	mov    0x124(%rax),%eax
    18001cce:	8d 14 00             	lea    (%rax,%rax,1),%edx
    18001cd1:	48 8b 45 d8          	mov    -0x28(%rbp),%rax
    18001cd5:	89 90 a0 01 00 00    	mov    %edx,0x1a0(%rax)
    18001cdb:	48 8b 45 d8          	mov    -0x28(%rbp),%rax
    18001cdf:	48 8b 80 98 01 00 00 	mov    0x198(%rax),%rax
    18001ce6:	48 89 45 f0          	mov    %rax,-0x10(%rbp)
    18001cea:	c7 45 fc 00 00 00 00 	movl   $0x0,-0x4(%rbp)
    18001cf1:	e9 5c 01 00 00       	jmpq   18001e52 <build_udp_headers+0x251>
    18001cf6:	48 8b 45 d8          	mov    -0x28(%rbp),%rax
    18001cfa:	48 8b 90 18 01 00 00 	mov    0x118(%rax),%rdx
    18001d01:	8b 45 fc             	mov    -0x4(%rbp),%eax
    18001d04:	48 98                	cltq   
    18001d06:	48 c1 e0 03          	shl    $0x3,%rax
    18001d0a:	48 8d 0c c5 00 00 00 	lea    0x0(,%rax,8),%rcx
    18001d11:	00 
    18001d12:	48 29 c1             	sub    %rax,%rcx
    18001d15:	48 89 c8             	mov    %rcx,%rax
    18001d18:	48 01 d0             	add    %rdx,%rax
    18001d1b:	48 8b 40 10          	mov    0x10(%rax),%rax
    18001d1f:	48 8b 55 f0          	mov    -0x10(%rbp),%rdx
    18001d23:	48 89 10             	mov    %rdx,(%rax)
    18001d26:	48 8b 45 d8          	mov    -0x28(%rbp),%rax
    18001d2a:	48 8b 90 18 01 00 00 	mov    0x118(%rax),%rdx
    18001d31:	8b 45 fc             	mov    -0x4(%rbp),%eax
    18001d34:	48 98                	cltq   
    18001d36:	48 c1 e0 03          	shl    $0x3,%rax
    18001d3a:	48 8d 0c c5 00 00 00 	lea    0x0(,%rax,8),%rcx
    18001d41:	00 
    18001d42:	48 29 c1             	sub    %rax,%rcx
    18001d45:	48 89 c8             	mov    %rcx,%rax
    18001d48:	48 01 d0             	add    %rdx,%rax
    18001d4b:	48 8b 40 10          	mov    0x10(%rax),%rax
    18001d4f:	48 c7 40 08 08 00 00 	movq   $0x8,0x8(%rax)
    18001d56:	00 
    18001d57:	48 8b 55 f0          	mov    -0x10(%rbp),%rdx
    18001d5b:	48 8d 42 01          	lea    0x1(%rdx),%rax
    18001d5f:	48 89 45 f0          	mov    %rax,-0x10(%rbp)
    18001d63:	48 8b 45 d8          	mov    -0x28(%rbp),%rax
    18001d67:	8b 80 74 01 00 00    	mov    0x174(%rax),%eax
    18001d6d:	8d 88 ff 00 00 00    	lea    0xff(%rax),%ecx
    18001d73:	85 c0                	test   %eax,%eax
    18001d75:	0f 48 c1             	cmovs  %ecx,%eax
    18001d78:	c1 f8 08             	sar    $0x8,%eax
    18001d7b:	88 02                	mov    %al,(%rdx)
    18001d7d:	48 8b 45 f0          	mov    -0x10(%rbp),%rax
    18001d81:	48 8d 50 01          	lea    0x1(%rax),%rdx
    18001d85:	48 89 55 f0          	mov    %rdx,-0x10(%rbp)
    18001d89:	48 8b 55 d8          	mov    -0x28(%rbp),%rdx
    18001d8d:	8b 92 74 01 00 00    	mov    0x174(%rdx),%edx
    18001d93:	89 d1                	mov    %edx,%ecx
    18001d95:	c1 f9 1f             	sar    $0x1f,%ecx
    18001d98:	c1 e9 18             	shr    $0x18,%ecx
    18001d9b:	01 ca                	add    %ecx,%edx
    18001d9d:	0f b6 d2             	movzbl %dl,%edx
    18001da0:	29 ca                	sub    %ecx,%edx
    18001da2:	88 10                	mov    %dl,(%rax)
    18001da4:	48 8b 55 f0          	mov    -0x10(%rbp),%rdx
    18001da8:	48 8d 42 01          	lea    0x1(%rdx),%rax
    18001dac:	48 89 45 f0          	mov    %rax,-0x10(%rbp)
    18001db0:	8b 45 fc             	mov    -0x4(%rbp),%eax
    18001db3:	8d 88 ff 00 00 00    	lea    0xff(%rax),%ecx
    18001db9:	85 c0                	test   %eax,%eax
    18001dbb:	0f 48 c1             	cmovs  %ecx,%eax
    18001dbe:	c1 f8 08             	sar    $0x8,%eax
    18001dc1:	88 02                	mov    %al,(%rdx)
    18001dc3:	48 8b 45 f0          	mov    -0x10(%rbp),%rax
    18001dc7:	48 8d 50 01          	lea    0x1(%rax),%rdx
    18001dcb:	48 89 55 f0          	mov    %rdx,-0x10(%rbp)
    18001dcf:	8b 55 fc             	mov    -0x4(%rbp),%edx
    18001dd2:	89 d1                	mov    %edx,%ecx
    18001dd4:	c1 f9 1f             	sar    $0x1f,%ecx
    18001dd7:	c1 e9 18             	shr    $0x18,%ecx
    18001dda:	01 ca                	add    %ecx,%edx
    18001ddc:	0f b6 d2             	movzbl %dl,%edx
    18001ddf:	29 ca                	sub    %ecx,%edx
    18001de1:	88 10                	mov    %dl,(%rax)
    18001de3:	48 8b 55 f0          	mov    -0x10(%rbp),%rdx
    18001de7:	48 8d 42 01          	lea    0x1(%rdx),%rax
    18001deb:	48 89 45 f0          	mov    %rax,-0x10(%rbp)
    18001def:	48 8b 45 d8          	mov    -0x28(%rbp),%rax
    18001df3:	8b 80 24 01 00 00    	mov    0x124(%rax),%eax
    18001df9:	8d 88 ff 00 00 00    	lea    0xff(%rax),%ecx
    18001dff:	85 c0                	test   %eax,%eax
    18001e01:	0f 48 c1             	cmovs  %ecx,%eax
    18001e04:	c1 f8 08             	sar    $0x8,%eax
    18001e07:	88 02                	mov    %al,(%rdx)
    18001e09:	48 8b 45 f0          	mov    -0x10(%rbp),%rax
    18001e0d:	48 8d 50 01          	lea    0x1(%rax),%rdx
    18001e11:	48 89 55 f0          	mov    %rdx,-0x10(%rbp)
    18001e15:	48 8b 55 d8          	mov    -0x28(%rbp),%rdx
    18001e19:	8b 92 24 01 00 00    	mov    0x124(%rdx),%edx
    18001e1f:	89 d1                	mov    %edx,%ecx
    18001e21:	c1 f9 1f             	sar    $0x1f,%ecx
    18001e24:	c1 e9 18             	shr    $0x18,%ecx
    18001e27:	01 ca                	add    %ecx,%edx
    18001e29:	0f b6 d2             	movzbl %dl,%edx
    18001e2c:	29 ca                	sub    %ecx,%edx
    18001e2e:	88 10                	mov    %dl,(%rax)
    18001e30:	48 8b 45 f0          	mov    -0x10(%rbp),%rax
    18001e34:	48 8d 50 01          	lea    0x1(%rax),%rdx
    18001e38:	48 89 55 f0          	mov    %rdx,-0x10(%rbp)
    18001e3c:	c6 00 00             	movb   $0x0,(%rax)
    18001e3f:	48 8b 45 f0          	mov    -0x10(%rbp),%rax
    18001e43:	48 8d 50 01          	lea    0x1(%rax),%rdx
    18001e47:	48 89 55 f0          	mov    %rdx,-0x10(%rbp)
    18001e4b:	c6 00 00             	movb   $0x0,(%rax)
    18001e4e:	83 45 fc 01          	addl   $0x1,-0x4(%rbp)
    18001e52:	48 8b 45 d8          	mov    -0x28(%rbp),%rax
    18001e56:	8b 80 24 01 00 00    	mov    0x124(%rax),%eax
    18001e5c:	3b 45 fc             	cmp    -0x4(%rbp),%eax
    18001e5f:	0f 8f 91 fe ff ff    	jg     18001cf6 <build_udp_headers+0xf5>
    18001e65:	b8 00 00 00 00       	mov    $0x0,%eax
    18001e6a:	c9                   	leaveq 
    18001e6b:	c3                   	retq   

0000000018001e6c <out_string>:
    18001e6c:	55                   	push   %rbp
    18001e6d:	48 89 e5             	mov    %rsp,%rbp
    18001e70:	48 83 ec 20          	sub    $0x20,%rsp
    18001e74:	48 89 7d e8          	mov    %rdi,-0x18(%rbp)
    18001e78:	48 89 75 e0          	mov    %rsi,-0x20(%rbp)
    18001e7c:	48 8b 45 e8          	mov    -0x18(%rbp),%rax
    18001e80:	0f b6 80 a4 01 00 00 	movzbl 0x1a4(%rax),%eax
    18001e87:	84 c0                	test   %al,%al
    18001e89:	74 58                	je     18001ee3 <out_string+0x77>
    18001e8b:	48 8d 05 6e 38 41 00 	lea    0x41386e(%rip),%rax        # 18415700 <settings>
    18001e92:	8b 40 20             	mov    0x20(%rax),%eax
    18001e95:	83 f8 01             	cmp    $0x1,%eax
    18001e98:	7e 28                	jle    18001ec2 <out_string+0x56>
    18001e9a:	48 8b 45 e8          	mov    -0x18(%rbp),%rax
    18001e9e:	8b 10                	mov    (%rax),%edx
    18001ea0:	48 8d 05 e9 3e 40 00 	lea    0x403ee9(%rip),%rax        # 18405d90 <stderr>
    18001ea7:	48 8b 00             	mov    (%rax),%rax
    18001eaa:	48 8b 4d e0          	mov    -0x20(%rbp),%rcx
    18001eae:	48 8d 35 48 e4 3f 00 	lea    0x3fe448(%rip),%rsi        # 184002fd <data_start+0x2fd>
    18001eb5:	48 89 c7             	mov    %rax,%rdi
    18001eb8:	b8 00 00 00 00       	mov    $0x0,%eax
    18001ebd:	e8 bc 0f 02 00       	callq  18022e7e <fprintf>
    18001ec2:	48 8b 45 e8          	mov    -0x18(%rbp),%rax
    18001ec6:	c6 80 a4 01 00 00 00 	movb   $0x0,0x1a4(%rax)
    18001ecd:	48 8b 45 e8          	mov    -0x18(%rbp),%rax
    18001ed1:	be 01 00 00 00       	mov    $0x1,%esi
    18001ed6:	48 89 c7             	mov    %rax,%rdi
    18001ed9:	e8 4d f9 ff ff       	callq  1800182b <conn_set_state>
    18001ede:	e9 3e 01 00 00       	jmpq   18002021 <out_string+0x1b5>
    18001ee3:	48 8d 05 16 38 41 00 	lea    0x413816(%rip),%rax        # 18415700 <settings>
    18001eea:	8b 40 20             	mov    0x20(%rax),%eax
    18001eed:	83 f8 01             	cmp    $0x1,%eax
    18001ef0:	7e 28                	jle    18001f1a <out_string+0xae>
    18001ef2:	48 8b 45 e8          	mov    -0x18(%rbp),%rax
    18001ef6:	8b 10                	mov    (%rax),%edx
    18001ef8:	48 8d 05 91 3e 40 00 	lea    0x403e91(%rip),%rax        # 18405d90 <stderr>
    18001eff:	48 8b 00             	mov    (%rax),%rax
    18001f02:	48 8b 4d e0          	mov    -0x20(%rbp),%rcx
    18001f06:	48 8d 35 00 e4 3f 00 	lea    0x3fe400(%rip),%rsi        # 1840030d <data_start+0x30d>
    18001f0d:	48 89 c7             	mov    %rax,%rdi
    18001f10:	b8 00 00 00 00       	mov    $0x0,%eax
    18001f15:	e8 64 0f 02 00       	callq  18022e7e <fprintf>
    18001f1a:	48 8b 45 e8          	mov    -0x18(%rbp),%rax
    18001f1e:	c7 80 28 01 00 00 00 	movl   $0x0,0x128(%rax)
    18001f25:	00 00 00 
    18001f28:	48 8b 45 e8          	mov    -0x18(%rbp),%rax
    18001f2c:	c7 80 24 01 00 00 00 	movl   $0x0,0x124(%rax)
    18001f33:	00 00 00 
    18001f36:	48 8b 45 e8          	mov    -0x18(%rbp),%rax
    18001f3a:	c7 80 14 01 00 00 00 	movl   $0x0,0x114(%rax)
    18001f41:	00 00 00 
    18001f44:	48 8b 45 e8          	mov    -0x18(%rbp),%rax
    18001f48:	48 89 c7             	mov    %rax,%rdi
    18001f4b:	e8 77 e8 ff ff       	callq  180007c7 <add_msghdr>
    18001f50:	48 8b 45 e0          	mov    -0x20(%rbp),%rax
    18001f54:	48 89 c7             	mov    %rax,%rdi
    18001f57:	e8 c4 3e 02 00       	callq  18025e20 <strlen>
    18001f5c:	48 89 45 f8          	mov    %rax,-0x8(%rbp)
    18001f60:	48 8b 45 f8          	mov    -0x8(%rbp),%rax
    18001f64:	48 8d 50 02          	lea    0x2(%rax),%rdx
    18001f68:	48 8b 45 e8          	mov    -0x18(%rbp),%rax
    18001f6c:	8b 80 d0 00 00 00    	mov    0xd0(%rax),%eax
    18001f72:	48 98                	cltq   
    18001f74:	48 39 c2             	cmp    %rax,%rdx
    18001f77:	76 1b                	jbe    18001f94 <out_string+0x128>
    18001f79:	48 8d 05 98 e3 3f 00 	lea    0x3fe398(%rip),%rax        # 18400318 <data_start+0x318>
    18001f80:	48 89 45 e0          	mov    %rax,-0x20(%rbp)
    18001f84:	48 8b 45 e0          	mov    -0x20(%rbp),%rax
    18001f88:	48 89 c7             	mov    %rax,%rdi
    18001f8b:	e8 90 3e 02 00       	callq  18025e20 <strlen>
    18001f90:	48 89 45 f8          	mov    %rax,-0x8(%rbp)
    18001f94:	48 8b 45 e8          	mov    -0x18(%rbp),%rax
    18001f98:	48 8b 80 c0 00 00 00 	mov    0xc0(%rax),%rax
    18001f9f:	48 8b 55 f8          	mov    -0x8(%rbp),%rdx
    18001fa3:	48 8b 4d e0          	mov    -0x20(%rbp),%rcx
    18001fa7:	48 89 ce             	mov    %rcx,%rsi
    18001faa:	48 89 c7             	mov    %rax,%rdi
    18001fad:	e8 65 46 02 00       	callq  18026617 <memcpy>
    18001fb2:	48 8b 45 e8          	mov    -0x18(%rbp),%rax
    18001fb6:	48 8b 90 c0 00 00 00 	mov    0xc0(%rax),%rdx
    18001fbd:	48 8b 45 f8          	mov    -0x8(%rbp),%rax
    18001fc1:	48 01 d0             	add    %rdx,%rax
    18001fc4:	ba 02 00 00 00       	mov    $0x2,%edx
    18001fc9:	48 8d 35 6a e3 3f 00 	lea    0x3fe36a(%rip),%rsi        # 1840033a <data_start+0x33a>
    18001fd0:	48 89 c7             	mov    %rax,%rdi
    18001fd3:	e8 3f 46 02 00       	callq  18026617 <memcpy>
    18001fd8:	48 8b 45 f8          	mov    -0x8(%rbp),%rax
    18001fdc:	83 c0 02             	add    $0x2,%eax
    18001fdf:	89 c2                	mov    %eax,%edx
    18001fe1:	48 8b 45 e8          	mov    -0x18(%rbp),%rax
    18001fe5:	89 90 d4 00 00 00    	mov    %edx,0xd4(%rax)
    18001feb:	48 8b 45 e8          	mov    -0x18(%rbp),%rax
    18001fef:	48 8b 90 c0 00 00 00 	mov    0xc0(%rax),%rdx
    18001ff6:	48 8b 45 e8          	mov    -0x18(%rbp),%rax
    18001ffa:	48 89 90 c8 00 00 00 	mov    %rdx,0xc8(%rax)
    18002001:	48 8b 45 e8          	mov    -0x18(%rbp),%rax
    18002005:	be 05 00 00 00       	mov    $0x5,%esi
    1800200a:	48 89 c7             	mov    %rax,%rdi
    1800200d:	e8 19 f8 ff ff       	callq  1800182b <conn_set_state>
    18002012:	48 8b 45 e8          	mov    -0x18(%rbp),%rax
    18002016:	c7 80 d8 00 00 00 01 	movl   $0x1,0xd8(%rax)
    1800201d:	00 00 00 
    18002020:	90                   	nop
    18002021:	c9                   	leaveq 
    18002022:	c3                   	retq   

0000000018002023 <out_of_memory>:
    18002023:	55                   	push   %rbp
    18002024:	48 89 e5             	mov    %rsp,%rbp
    18002027:	48 83 ec 10          	sub    $0x10,%rsp
    1800202b:	48 89 7d f8          	mov    %rdi,-0x8(%rbp)
    1800202f:	48 89 75 f0          	mov    %rsi,-0x10(%rbp)
    18002033:	48 8b 45 f8          	mov    -0x8(%rbp),%rax
    18002037:	8b 80 6c 01 00 00    	mov    0x16c(%rax),%eax
    1800203d:	83 f8 04             	cmp    $0x4,%eax
    18002040:	75 48                	jne    1800208a <out_of_memory+0x67>
    18002042:	8b 05 30 22 40 00    	mov    0x402230(%rip),%eax        # 18404278 <error_prefix_len.6139>
    18002048:	48 63 d0             	movslq %eax,%rdx
    1800204b:	48 8b 45 f0          	mov    -0x10(%rbp),%rax
    1800204f:	48 8d 35 2a 22 40 00 	lea    0x40222a(%rip),%rsi        # 18404280 <error_prefix.6138>
    18002056:	48 89 c7             	mov    %rax,%rdi
    18002059:	e8 42 3e 02 00       	callq  18025ea0 <strncmp>
    1800205e:	85 c0                	test   %eax,%eax
    18002060:	75 0c                	jne    1800206e <out_of_memory+0x4b>
    18002062:	8b 05 10 22 40 00    	mov    0x402210(%rip),%eax        # 18404278 <error_prefix_len.6139>
    18002068:	48 98                	cltq   
    1800206a:	48 01 45 f0          	add    %rax,-0x10(%rbp)
    1800206e:	48 8b 55 f0          	mov    -0x10(%rbp),%rdx
    18002072:	48 8b 45 f8          	mov    -0x8(%rbp),%rax
    18002076:	b9 00 00 00 00       	mov    $0x0,%ecx
    1800207b:	be 82 00 00 00       	mov    $0x82,%esi
    18002080:	48 89 c7             	mov    %rax,%rdi
    18002083:	e8 65 04 00 00       	callq  180024ed <write_bin_error>
    18002088:	eb 13                	jmp    1800209d <out_of_memory+0x7a>
    1800208a:	48 8b 55 f0          	mov    -0x10(%rbp),%rdx
    1800208e:	48 8b 45 f8          	mov    -0x8(%rbp),%rax
    18002092:	48 89 d6             	mov    %rdx,%rsi
    18002095:	48 89 c7             	mov    %rax,%rdi
    18002098:	e8 cf fd ff ff       	callq  18001e6c <out_string>
    1800209d:	90                   	nop
    1800209e:	c9                   	leaveq 
    1800209f:	c3                   	retq   

00000000180020a0 <complete_nread_ascii>:
    180020a0:	55                   	push   %rbp
    180020a1:	48 89 e5             	mov    %rsp,%rbp
    180020a4:	48 83 ec 20          	sub    $0x20,%rsp
    180020a8:	48 89 7d e8          	mov    %rdi,-0x18(%rbp)
    180020ac:	48 8b 45 e8          	mov    -0x18(%rbp),%rax
    180020b0:	48 8b 80 f8 00 00 00 	mov    0xf8(%rax),%rax
    180020b7:	48 89 45 f8          	mov    %rax,-0x8(%rbp)
    180020bb:	48 8b 45 e8          	mov    -0x18(%rbp),%rax
    180020bf:	0f b7 80 e0 01 00 00 	movzwl 0x1e0(%rax),%eax
    180020c6:	98                   	cwtl   
    180020c7:	89 45 f4             	mov    %eax,-0xc(%rbp)
    180020ca:	48 8b 45 e8          	mov    -0x18(%rbp),%rax
    180020ce:	48 8b 80 f8 01 00 00 	mov    0x1f8(%rax),%rax
    180020d5:	48 05 98 00 00 00    	add    $0x98,%rax
    180020db:	48 89 c7             	mov    %rax,%rdi
    180020de:	e8 d3 54 02 00       	callq  180275b6 <__pthread_mutex_lock>
    180020e3:	48 8b 45 e8          	mov    -0x18(%rbp),%rax
    180020e7:	48 8b 80 f8 01 00 00 	mov    0x1f8(%rax),%rax
    180020ee:	48 8b 55 f8          	mov    -0x8(%rbp),%rdx
    180020f2:	0f b6 52 28          	movzbl 0x28(%rdx),%edx
    180020f6:	0f b6 d2             	movzbl %dl,%edx
    180020f9:	48 63 ca             	movslq %edx,%rcx
    180020fc:	48 c1 e1 06          	shl    $0x6,%rcx
    18002100:	48 01 c1             	add    %rax,%rcx
    18002103:	48 81 c1 30 01 00 00 	add    $0x130,%rcx
    1800210a:	48 8b 09             	mov    (%rcx),%rcx
    1800210d:	48 83 c1 01          	add    $0x1,%rcx
    18002111:	48 63 d2             	movslq %edx,%rdx
    18002114:	48 c1 e2 06          	shl    $0x6,%rdx
    18002118:	48 01 d0             	add    %rdx,%rax
    1800211b:	48 05 30 01 00 00    	add    $0x130,%rax
    18002121:	48 89 08             	mov    %rcx,(%rax)
    18002124:	48 8b 45 e8          	mov    -0x18(%rbp),%rax
    18002128:	48 8b 80 f8 01 00 00 	mov    0x1f8(%rax),%rax
    1800212f:	48 05 98 00 00 00    	add    $0x98,%rax
    18002135:	48 89 c7             	mov    %rax,%rdi
    18002138:	e8 e4 56 02 00       	callq  18027821 <__pthread_mutex_unlock>
    1800213d:	48 8b 45 f8          	mov    -0x8(%rbp),%rax
    18002141:	48 8d 48 30          	lea    0x30(%rax),%rcx
    18002145:	48 8b 45 f8          	mov    -0x8(%rbp),%rax
    18002149:	0f b6 40 29          	movzbl 0x29(%rax),%eax
    1800214d:	0f b6 d0             	movzbl %al,%edx
    18002150:	48 8b 45 f8          	mov    -0x8(%rbp),%rax
    18002154:	0f b6 40 26          	movzbl 0x26(%rax),%eax
    18002158:	0f b6 c0             	movzbl %al,%eax
    1800215b:	48 01 c2             	add    %rax,%rdx
    1800215e:	48 8b 45 f8          	mov    -0x8(%rbp),%rax
    18002162:	0f b6 40 27          	movzbl 0x27(%rax),%eax
    18002166:	0f b6 c0             	movzbl %al,%eax
    18002169:	83 e0 02             	and    $0x2,%eax
    1800216c:	85 c0                	test   %eax,%eax
    1800216e:	74 07                	je     18002177 <complete_nread_ascii+0xd7>
    18002170:	b8 08 00 00 00       	mov    $0x8,%eax
    18002175:	eb 05                	jmp    1800217c <complete_nread_ascii+0xdc>
    18002177:	b8 00 00 00 00       	mov    $0x0,%eax
    1800217c:	48 01 c2             	add    %rax,%rdx
    1800217f:	48 8b 45 f8          	mov    -0x8(%rbp),%rax
    18002183:	8b 40 20             	mov    0x20(%rax),%eax
    18002186:	48 98                	cltq   
    18002188:	48 01 d0             	add    %rdx,%rax
    1800218b:	48 83 e8 01          	sub    $0x1,%rax
    1800218f:	48 01 c8             	add    %rcx,%rax
    18002192:	ba 02 00 00 00       	mov    $0x2,%edx
    18002197:	48 8d 35 9c e1 3f 00 	lea    0x3fe19c(%rip),%rsi        # 1840033a <data_start+0x33a>
    1800219e:	48 89 c7             	mov    %rax,%rdi
    180021a1:	e8 fa 3c 02 00       	callq  18025ea0 <strncmp>
    180021a6:	85 c0                	test   %eax,%eax
    180021a8:	74 18                	je     180021c2 <complete_nread_ascii+0x122>
    180021aa:	48 8b 45 e8          	mov    -0x18(%rbp),%rax
    180021ae:	48 8d 35 88 e1 3f 00 	lea    0x3fe188(%rip),%rsi        # 1840033d <data_start+0x33d>
    180021b5:	48 89 c7             	mov    %rax,%rdi
    180021b8:	e8 af fc ff ff       	callq  18001e6c <out_string>
    180021bd:	e9 98 00 00 00       	jmpq   1800225a <complete_nread_ascii+0x1ba>
    180021c2:	48 8b 55 e8          	mov    -0x18(%rbp),%rdx
    180021c6:	8b 4d f4             	mov    -0xc(%rbp),%ecx
    180021c9:	48 8b 45 f8          	mov    -0x8(%rbp),%rax
    180021cd:	89 ce                	mov    %ecx,%esi
    180021cf:	48 89 c7             	mov    %rax,%rdi
    180021d2:	e8 cf 43 01 00       	callq  180165a6 <store_item>
    180021d7:	89 45 f0             	mov    %eax,-0x10(%rbp)
    180021da:	8b 45 f0             	mov    -0x10(%rbp),%eax
    180021dd:	83 f8 01             	cmp    $0x1,%eax
    180021e0:	74 11                	je     180021f3 <complete_nread_ascii+0x153>
    180021e2:	83 f8 01             	cmp    $0x1,%eax
    180021e5:	72 4b                	jb     18002232 <complete_nread_ascii+0x192>
    180021e7:	83 f8 02             	cmp    $0x2,%eax
    180021ea:	74 1c                	je     18002208 <complete_nread_ascii+0x168>
    180021ec:	83 f8 03             	cmp    $0x3,%eax
    180021ef:	74 2c                	je     1800221d <complete_nread_ascii+0x17d>
    180021f1:	eb 54                	jmp    18002247 <complete_nread_ascii+0x1a7>
    180021f3:	48 8b 45 e8          	mov    -0x18(%rbp),%rax
    180021f7:	48 8d 35 5b e1 3f 00 	lea    0x3fe15b(%rip),%rsi        # 18400359 <data_start+0x359>
    180021fe:	48 89 c7             	mov    %rax,%rdi
    18002201:	e8 66 fc ff ff       	callq  18001e6c <out_string>
    18002206:	eb 52                	jmp    1800225a <complete_nread_ascii+0x1ba>
    18002208:	48 8b 45 e8          	mov    -0x18(%rbp),%rax
    1800220c:	48 8d 35 4d e1 3f 00 	lea    0x3fe14d(%rip),%rsi        # 18400360 <data_start+0x360>
    18002213:	48 89 c7             	mov    %rax,%rdi
    18002216:	e8 51 fc ff ff       	callq  18001e6c <out_string>
    1800221b:	eb 3d                	jmp    1800225a <complete_nread_ascii+0x1ba>
    1800221d:	48 8b 45 e8          	mov    -0x18(%rbp),%rax
    18002221:	48 8d 35 3f e1 3f 00 	lea    0x3fe13f(%rip),%rsi        # 18400367 <data_start+0x367>
    18002228:	48 89 c7             	mov    %rax,%rdi
    1800222b:	e8 3c fc ff ff       	callq  18001e6c <out_string>
    18002230:	eb 28                	jmp    1800225a <complete_nread_ascii+0x1ba>
    18002232:	48 8b 45 e8          	mov    -0x18(%rbp),%rax
    18002236:	48 8d 35 34 e1 3f 00 	lea    0x3fe134(%rip),%rsi        # 18400371 <data_start+0x371>
    1800223d:	48 89 c7             	mov    %rax,%rdi
    18002240:	e8 27 fc ff ff       	callq  18001e6c <out_string>
    18002245:	eb 13                	jmp    1800225a <complete_nread_ascii+0x1ba>
    18002247:	48 8b 45 e8          	mov    -0x18(%rbp),%rax
    1800224b:	48 8d 35 2e e1 3f 00 	lea    0x3fe12e(%rip),%rsi        # 18400380 <data_start+0x380>
    18002252:	48 89 c7             	mov    %rax,%rdi
    18002255:	e8 12 fc ff ff       	callq  18001e6c <out_string>
    1800225a:	48 8b 45 e8          	mov    -0x18(%rbp),%rax
    1800225e:	48 8b 80 f8 00 00 00 	mov    0xf8(%rax),%rax
    18002265:	48 89 c7             	mov    %rax,%rdi
    18002268:	e8 18 41 01 00       	callq  18016385 <item_remove>
    1800226d:	48 8b 45 e8          	mov    -0x18(%rbp),%rax
    18002271:	48 c7 80 f8 00 00 00 	movq   $0x0,0xf8(%rax)
    18002278:	00 00 00 00 
    1800227c:	90                   	nop
    1800227d:	c9                   	leaveq 
    1800227e:	c3                   	retq   

000000001800227f <binary_get_request>:
    1800227f:	55                   	push   %rbp
    18002280:	48 89 e5             	mov    %rsp,%rbp
    18002283:	48 89 7d e8          	mov    %rdi,-0x18(%rbp)
    18002287:	48 8b 45 e8          	mov    -0x18(%rbp),%rax
    1800228b:	48 8b 80 b0 00 00 00 	mov    0xb0(%rax),%rax
    18002292:	48 89 45 f8          	mov    %rax,-0x8(%rbp)
    18002296:	48 8b 45 e8          	mov    -0x18(%rbp),%rax
    1800229a:	0f b7 80 c2 01 00 00 	movzwl 0x1c2(%rax),%eax
    180022a1:	0f b7 d0             	movzwl %ax,%edx
    180022a4:	48 8b 45 e8          	mov    -0x18(%rbp),%rax
    180022a8:	0f b6 80 c4 01 00 00 	movzbl 0x1c4(%rax),%eax
    180022af:	0f b6 c0             	movzbl %al,%eax
    180022b2:	48 01 d0             	add    %rdx,%rax
    180022b5:	48 c7 c2 e8 ff ff ff 	mov    $0xffffffffffffffe8,%rdx
    180022bc:	48 29 c2             	sub    %rax,%rdx
    180022bf:	48 89 d0             	mov    %rdx,%rax
    180022c2:	48 01 45 f8          	add    %rax,-0x8(%rbp)
    180022c6:	48 8b 45 f8          	mov    -0x8(%rbp),%rax
    180022ca:	5d                   	pop    %rbp
    180022cb:	c3                   	retq   

00000000180022cc <binary_get_key>:
    180022cc:	55                   	push   %rbp
    180022cd:	48 89 e5             	mov    %rsp,%rbp
    180022d0:	48 89 7d f8          	mov    %rdi,-0x8(%rbp)
    180022d4:	48 8b 45 f8          	mov    -0x8(%rbp),%rax
    180022d8:	48 8b 90 b0 00 00 00 	mov    0xb0(%rax),%rdx
    180022df:	48 8b 45 f8          	mov    -0x8(%rbp),%rax
    180022e3:	0f b7 80 c2 01 00 00 	movzwl 0x1c2(%rax),%eax
    180022ea:	0f b7 c0             	movzwl %ax,%eax
    180022ed:	48 f7 d8             	neg    %rax
    180022f0:	48 01 d0             	add    %rdx,%rax
    180022f3:	5d                   	pop    %rbp
    180022f4:	c3                   	retq   

00000000180022f5 <add_bin_header>:
    180022f5:	55                   	push   %rbp
    180022f6:	48 89 e5             	mov    %rsp,%rbp
    180022f9:	48 83 ec 30          	sub    $0x30,%rsp
    180022fd:	48 89 7d e8          	mov    %rdi,-0x18(%rbp)
    18002301:	89 c8                	mov    %ecx,%eax
    18002303:	44 89 45 d8          	mov    %r8d,-0x28(%rbp)
    18002307:	66 89 75 e4          	mov    %si,-0x1c(%rbp)
    1800230b:	88 55 e0             	mov    %dl,-0x20(%rbp)
    1800230e:	66 89 45 dc          	mov    %ax,-0x24(%rbp)
    18002312:	48 8b 45 e8          	mov    -0x18(%rbp),%rax
    18002316:	c7 80 28 01 00 00 00 	movl   $0x0,0x128(%rax)
    1800231d:	00 00 00 
    18002320:	48 8b 45 e8          	mov    -0x18(%rbp),%rax
    18002324:	c7 80 24 01 00 00 00 	movl   $0x0,0x124(%rax)
    1800232b:	00 00 00 
    1800232e:	48 8b 45 e8          	mov    -0x18(%rbp),%rax
    18002332:	c7 80 14 01 00 00 00 	movl   $0x0,0x114(%rax)
    18002339:	00 00 00 
    1800233c:	48 8b 45 e8          	mov    -0x18(%rbp),%rax
    18002340:	48 89 c7             	mov    %rax,%rdi
    18002343:	e8 7f e4 ff ff       	callq  180007c7 <add_msghdr>
    18002348:	85 c0                	test   %eax,%eax
    1800234a:	74 18                	je     18002364 <add_bin_header+0x6f>
    1800234c:	48 8b 45 e8          	mov    -0x18(%rbp),%rax
    18002350:	48 8d 35 51 e0 3f 00 	lea    0x3fe051(%rip),%rsi        # 184003a8 <data_start+0x3a8>
    18002357:	48 89 c7             	mov    %rax,%rdi
    1800235a:	e8 c4 fc ff ff       	callq  18002023 <out_of_memory>
    1800235f:	e9 87 01 00 00       	jmpq   180024eb <add_bin_header+0x1f6>
    18002364:	48 8b 45 e8          	mov    -0x18(%rbp),%rax
    18002368:	48 8b 80 c0 00 00 00 	mov    0xc0(%rax),%rax
    1800236f:	48 89 45 f0          	mov    %rax,-0x10(%rbp)
    18002373:	48 8b 45 f0          	mov    -0x10(%rbp),%rax
    18002377:	c6 00 81             	movb   $0x81,(%rax)
    1800237a:	48 8b 45 e8          	mov    -0x18(%rbp),%rax
    1800237e:	0f b6 90 c1 01 00 00 	movzbl 0x1c1(%rax),%edx
    18002385:	48 8b 45 f0          	mov    -0x10(%rbp),%rax
    18002389:	88 50 01             	mov    %dl,0x1(%rax)
    1800238c:	0f b7 45 dc          	movzwl -0x24(%rbp),%eax
    18002390:	89 c7                	mov    %eax,%edi
    18002392:	e8 b9 dc 01 00       	callq  18020050 <htons>
    18002397:	89 c2                	mov    %eax,%edx
    18002399:	48 8b 45 f0          	mov    -0x10(%rbp),%rax
    1800239d:	66 89 50 02          	mov    %dx,0x2(%rax)
    180023a1:	48 8b 45 f0          	mov    -0x10(%rbp),%rax
    180023a5:	0f b6 55 e0          	movzbl -0x20(%rbp),%edx
    180023a9:	88 50 04             	mov    %dl,0x4(%rax)
    180023ac:	48 8b 45 f0          	mov    -0x10(%rbp),%rax
    180023b0:	c6 40 05 00          	movb   $0x0,0x5(%rax)
    180023b4:	0f b7 45 e4          	movzwl -0x1c(%rbp),%eax
    180023b8:	89 c7                	mov    %eax,%edi
    180023ba:	e8 91 dc 01 00       	callq  18020050 <htons>
    180023bf:	89 c2                	mov    %eax,%edx
    180023c1:	48 8b 45 f0          	mov    -0x10(%rbp),%rax
    180023c5:	66 89 50 06          	mov    %dx,0x6(%rax)
    180023c9:	8b 45 d8             	mov    -0x28(%rbp),%eax
    180023cc:	89 c7                	mov    %eax,%edi
    180023ce:	e8 78 dc 01 00       	callq  1802004b <htonl>
    180023d3:	89 c2                	mov    %eax,%edx
    180023d5:	48 8b 45 f0          	mov    -0x10(%rbp),%rax
    180023d9:	89 50 08             	mov    %edx,0x8(%rax)
    180023dc:	48 8b 45 e8          	mov    -0x18(%rbp),%rax
    180023e0:	8b 80 e4 01 00 00    	mov    0x1e4(%rax),%eax
    180023e6:	89 c2                	mov    %eax,%edx
    180023e8:	48 8b 45 f0          	mov    -0x10(%rbp),%rax
    180023ec:	89 50 0c             	mov    %edx,0xc(%rax)
    180023ef:	48 8b 45 e8          	mov    -0x18(%rbp),%rax
    180023f3:	48 8b 80 d8 01 00 00 	mov    0x1d8(%rax),%rax
    180023fa:	48 89 c7             	mov    %rax,%rdi
    180023fd:	e8 58 5e 01 00       	callq  1801825a <htonll>
    18002402:	48 89 c2             	mov    %rax,%rdx
    18002405:	48 8b 45 f0          	mov    -0x10(%rbp),%rax
    18002409:	48 89 50 10          	mov    %rdx,0x10(%rax)
    1800240d:	48 8d 05 ec 32 41 00 	lea    0x4132ec(%rip),%rax        # 18415700 <settings>
    18002414:	8b 40 20             	mov    0x20(%rax),%eax
    18002417:	83 f8 01             	cmp    $0x1,%eax
    1800241a:	0f 8e ac 00 00 00    	jle    180024cc <add_bin_header+0x1d7>
    18002420:	48 8b 45 e8          	mov    -0x18(%rbp),%rax
    18002424:	8b 10                	mov    (%rax),%edx
    18002426:	48 8d 05 63 39 40 00 	lea    0x403963(%rip),%rax        # 18405d90 <stderr>
    1800242d:	48 8b 00             	mov    (%rax),%rax
    18002430:	48 8d 35 a1 df 3f 00 	lea    0x3fdfa1(%rip),%rsi        # 184003d8 <data_start+0x3d8>
    18002437:	48 89 c7             	mov    %rax,%rdi
    1800243a:	b8 00 00 00 00       	mov    $0x0,%eax
    1800243f:	e8 3a 0a 02 00       	callq  18022e7e <fprintf>
    18002444:	c7 45 fc 00 00 00 00 	movl   $0x0,-0x4(%rbp)
    1800244b:	eb 60                	jmp    180024ad <add_bin_header+0x1b8>
    1800244d:	8b 45 fc             	mov    -0x4(%rbp),%eax
    18002450:	83 e0 03             	and    $0x3,%eax
    18002453:	85 c0                	test   %eax,%eax
    18002455:	75 24                	jne    1800247b <add_bin_header+0x186>
    18002457:	48 8b 45 e8          	mov    -0x18(%rbp),%rax
    1800245b:	8b 10                	mov    (%rax),%edx
    1800245d:	48 8d 05 2c 39 40 00 	lea    0x40392c(%rip),%rax        # 18405d90 <stderr>
    18002464:	48 8b 00             	mov    (%rax),%rax
    18002467:	48 8d 35 84 df 3f 00 	lea    0x3fdf84(%rip),%rsi        # 184003f2 <data_start+0x3f2>
    1800246e:	48 89 c7             	mov    %rax,%rdi
    18002471:	b8 00 00 00 00       	mov    $0x0,%eax
    18002476:	e8 03 0a 02 00       	callq  18022e7e <fprintf>
    1800247b:	48 8b 55 f0          	mov    -0x10(%rbp),%rdx
    1800247f:	8b 45 fc             	mov    -0x4(%rbp),%eax
    18002482:	48 98                	cltq   
    18002484:	0f b6 04 02          	movzbl (%rdx,%rax,1),%eax
    18002488:	0f b6 d0             	movzbl %al,%edx
    1800248b:	48 8d 05 fe 38 40 00 	lea    0x4038fe(%rip),%rax        # 18405d90 <stderr>
    18002492:	48 8b 00             	mov    (%rax),%rax
    18002495:	48 8d 35 5d df 3f 00 	lea    0x3fdf5d(%rip),%rsi        # 184003f9 <data_start+0x3f9>
    1800249c:	48 89 c7             	mov    %rax,%rdi
    1800249f:	b8 00 00 00 00       	mov    $0x0,%eax
    180024a4:	e8 d5 09 02 00       	callq  18022e7e <fprintf>
    180024a9:	83 45 fc 01          	addl   $0x1,-0x4(%rbp)
    180024ad:	8b 45 fc             	mov    -0x4(%rbp),%eax
    180024b0:	83 f8 17             	cmp    $0x17,%eax
    180024b3:	76 98                	jbe    1800244d <add_bin_header+0x158>
    180024b5:	48 8d 05 d4 38 40 00 	lea    0x4038d4(%rip),%rax        # 18405d90 <stderr>
    180024bc:	48 8b 00             	mov    (%rax),%rax
    180024bf:	48 89 c6             	mov    %rax,%rsi
    180024c2:	bf 0a 00 00 00       	mov    $0xa,%edi
    180024c7:	e8 41 0a 02 00       	callq  18022f0d <fputc>
    180024cc:	48 8b 45 e8          	mov    -0x18(%rbp),%rax
    180024d0:	48 8b 88 c0 00 00 00 	mov    0xc0(%rax),%rcx
    180024d7:	48 8b 45 e8          	mov    -0x18(%rbp),%rax
    180024db:	ba 18 00 00 00       	mov    $0x18,%edx
    180024e0:	48 89 ce             	mov    %rcx,%rsi
    180024e3:	48 89 c7             	mov    %rax,%rdi
    180024e6:	e8 08 f5 ff ff       	callq  180019f3 <add_iov>
    180024eb:	c9                   	leaveq 
    180024ec:	c3                   	retq   

00000000180024ed <write_bin_error>:
    180024ed:	55                   	push   %rbp
    180024ee:	48 89 e5             	mov    %rsp,%rbp
    180024f1:	48 83 ec 30          	sub    $0x30,%rsp
    180024f5:	48 89 7d e8          	mov    %rdi,-0x18(%rbp)
    180024f9:	89 75 e4             	mov    %esi,-0x1c(%rbp)
    180024fc:	48 89 55 d8          	mov    %rdx,-0x28(%rbp)
    18002500:	89 4d e0             	mov    %ecx,-0x20(%rbp)
    18002503:	48 83 7d d8 00       	cmpq   $0x0,-0x28(%rbp)
    18002508:	0f 85 0e 01 00 00    	jne    1800261c <write_bin_error+0x12f>
    1800250e:	8b 45 e4             	mov    -0x1c(%rbp),%eax
    18002511:	83 f8 05             	cmp    $0x5,%eax
    18002514:	0f 84 b6 00 00 00    	je     180025d0 <write_bin_error+0xe3>
    1800251a:	83 f8 05             	cmp    $0x5,%eax
    1800251d:	77 27                	ja     18002546 <write_bin_error+0x59>
    1800251f:	83 f8 02             	cmp    $0x2,%eax
    18002522:	0f 84 81 00 00 00    	je     180025a9 <write_bin_error+0xbc>
    18002528:	83 f8 02             	cmp    $0x2,%eax
    1800252b:	77 0a                	ja     18002537 <write_bin_error+0x4a>
    1800252d:	83 f8 01             	cmp    $0x1,%eax
    18002530:	74 5a                	je     1800258c <write_bin_error+0x9f>
    18002532:	e9 b3 00 00 00       	jmpq   180025ea <write_bin_error+0xfd>
    18002537:	83 f8 03             	cmp    $0x3,%eax
    1800253a:	74 7a                	je     180025b6 <write_bin_error+0xc9>
    1800253c:	83 f8 04             	cmp    $0x4,%eax
    1800253f:	74 5b                	je     1800259c <write_bin_error+0xaf>
    18002541:	e9 a4 00 00 00       	jmpq   180025ea <write_bin_error+0xfd>
    18002546:	83 f8 20             	cmp    $0x20,%eax
    18002549:	0f 84 8e 00 00 00    	je     180025dd <write_bin_error+0xf0>
    1800254f:	83 f8 20             	cmp    $0x20,%eax
    18002552:	77 0a                	ja     1800255e <write_bin_error+0x71>
    18002554:	83 f8 06             	cmp    $0x6,%eax
    18002557:	74 6a                	je     180025c3 <write_bin_error+0xd6>
    18002559:	e9 8c 00 00 00       	jmpq   180025ea <write_bin_error+0xfd>
    1800255e:	3d 81 00 00 00       	cmp    $0x81,%eax
    18002563:	74 17                	je     1800257c <write_bin_error+0x8f>
    18002565:	3d 82 00 00 00       	cmp    $0x82,%eax
    1800256a:	75 7e                	jne    180025ea <write_bin_error+0xfd>
    1800256c:	48 8d 05 8e de 3f 00 	lea    0x3fde8e(%rip),%rax        # 18400401 <data_start+0x401>
    18002573:	48 89 45 d8          	mov    %rax,-0x28(%rbp)
    18002577:	e9 a0 00 00 00       	jmpq   1800261c <write_bin_error+0x12f>
    1800257c:	48 8d 05 8c de 3f 00 	lea    0x3fde8c(%rip),%rax        # 1840040f <data_start+0x40f>
    18002583:	48 89 45 d8          	mov    %rax,-0x28(%rbp)
    18002587:	e9 90 00 00 00       	jmpq   1800261c <write_bin_error+0x12f>
    1800258c:	48 8d 05 8c de 3f 00 	lea    0x3fde8c(%rip),%rax        # 1840041f <data_start+0x41f>
    18002593:	48 89 45 d8          	mov    %rax,-0x28(%rbp)
    18002597:	e9 80 00 00 00       	jmpq   1800261c <write_bin_error+0x12f>
    1800259c:	48 8d 05 86 de 3f 00 	lea    0x3fde86(%rip),%rax        # 18400429 <data_start+0x429>
    180025a3:	48 89 45 d8          	mov    %rax,-0x28(%rbp)
    180025a7:	eb 73                	jmp    1800261c <write_bin_error+0x12f>
    180025a9:	48 8d 05 8b de 3f 00 	lea    0x3fde8b(%rip),%rax        # 1840043b <data_start+0x43b>
    180025b0:	48 89 45 d8          	mov    %rax,-0x28(%rbp)
    180025b4:	eb 66                	jmp    1800261c <write_bin_error+0x12f>
    180025b6:	48 8d 05 93 de 3f 00 	lea    0x3fde93(%rip),%rax        # 18400450 <data_start+0x450>
    180025bd:	48 89 45 d8          	mov    %rax,-0x28(%rbp)
    180025c1:	eb 59                	jmp    1800261c <write_bin_error+0x12f>
    180025c3:	48 8d 05 96 de 3f 00 	lea    0x3fde96(%rip),%rax        # 18400460 <data_start+0x460>
    180025ca:	48 89 45 d8          	mov    %rax,-0x28(%rbp)
    180025ce:	eb 4c                	jmp    1800261c <write_bin_error+0x12f>
    180025d0:	48 8d 05 b8 de 3f 00 	lea    0x3fdeb8(%rip),%rax        # 1840048f <data_start+0x48f>
    180025d7:	48 89 45 d8          	mov    %rax,-0x28(%rbp)
    180025db:	eb 3f                	jmp    1800261c <write_bin_error+0x12f>
    180025dd:	48 8d 05 b7 de 3f 00 	lea    0x3fdeb7(%rip),%rax        # 1840049b <data_start+0x49b>
    180025e4:	48 89 45 d8          	mov    %rax,-0x28(%rbp)
    180025e8:	eb 32                	jmp    1800261c <write_bin_error+0x12f>
    180025ea:	48 8d 05 b8 de 3f 00 	lea    0x3fdeb8(%rip),%rax        # 184004a9 <data_start+0x4a9>
    180025f1:	48 89 45 d8          	mov    %rax,-0x28(%rbp)
    180025f5:	48 8b 45 e8          	mov    -0x18(%rbp),%rax
    180025f9:	8b 10                	mov    (%rax),%edx
    180025fb:	48 8d 05 8e 37 40 00 	lea    0x40378e(%rip),%rax        # 18405d90 <stderr>
    18002602:	48 8b 00             	mov    (%rax),%rax
    18002605:	8b 4d e4             	mov    -0x1c(%rbp),%ecx
    18002608:	48 8d 35 aa de 3f 00 	lea    0x3fdeaa(%rip),%rsi        # 184004b9 <data_start+0x4b9>
    1800260f:	48 89 c7             	mov    %rax,%rdi
    18002612:	b8 00 00 00 00       	mov    $0x0,%eax
    18002617:	e8 62 08 02 00       	callq  18022e7e <fprintf>
    1800261c:	48 8d 05 dd 30 41 00 	lea    0x4130dd(%rip),%rax        # 18415700 <settings>
    18002623:	8b 40 20             	mov    0x20(%rax),%eax
    18002626:	83 f8 01             	cmp    $0x1,%eax
    18002629:	7e 28                	jle    18002653 <write_bin_error+0x166>
    1800262b:	48 8b 45 e8          	mov    -0x18(%rbp),%rax
    1800262f:	8b 10                	mov    (%rax),%edx
    18002631:	48 8d 05 58 37 40 00 	lea    0x403758(%rip),%rax        # 18405d90 <stderr>
    18002638:	48 8b 00             	mov    (%rax),%rax
    1800263b:	48 8b 4d d8          	mov    -0x28(%rbp),%rcx
    1800263f:	48 8d 35 8c de 3f 00 	lea    0x3fde8c(%rip),%rsi        # 184004d2 <data_start+0x4d2>
    18002646:	48 89 c7             	mov    %rax,%rdi
    18002649:	b8 00 00 00 00       	mov    $0x0,%eax
    1800264e:	e8 2b 08 02 00       	callq  18022e7e <fprintf>
    18002653:	48 8b 45 d8          	mov    -0x28(%rbp),%rax
    18002657:	48 89 c7             	mov    %rax,%rdi
    1800265a:	e8 c1 37 02 00       	callq  18025e20 <strlen>
    1800265f:	48 89 45 f8          	mov    %rax,-0x8(%rbp)
    18002663:	48 8b 45 f8          	mov    -0x8(%rbp),%rax
    18002667:	89 c2                	mov    %eax,%edx
    18002669:	8b 45 e4             	mov    -0x1c(%rbp),%eax
    1800266c:	0f b7 f0             	movzwl %ax,%esi
    1800266f:	48 8b 45 e8          	mov    -0x18(%rbp),%rax
    18002673:	41 89 d0             	mov    %edx,%r8d
    18002676:	b9 00 00 00 00       	mov    $0x0,%ecx
    1800267b:	ba 00 00 00 00       	mov    $0x0,%edx
    18002680:	48 89 c7             	mov    %rax,%rdi
    18002683:	e8 6d fc ff ff       	callq  180022f5 <add_bin_header>
    18002688:	48 83 7d f8 00       	cmpq   $0x0,-0x8(%rbp)
    1800268d:	74 19                	je     180026a8 <write_bin_error+0x1bb>
    1800268f:	48 8b 45 f8          	mov    -0x8(%rbp),%rax
    18002693:	89 c2                	mov    %eax,%edx
    18002695:	48 8b 4d d8          	mov    -0x28(%rbp),%rcx
    18002699:	48 8b 45 e8          	mov    -0x18(%rbp),%rax
    1800269d:	48 89 ce             	mov    %rcx,%rsi
    180026a0:	48 89 c7             	mov    %rax,%rdi
    180026a3:	e8 4b f3 ff ff       	callq  180019f3 <add_iov>
    180026a8:	48 8b 45 e8          	mov    -0x18(%rbp),%rax
    180026ac:	be 09 00 00 00       	mov    $0x9,%esi
    180026b1:	48 89 c7             	mov    %rax,%rdi
    180026b4:	e8 72 f1 ff ff       	callq  1800182b <conn_set_state>
    180026b9:	83 7d e0 00          	cmpl   $0x0,-0x20(%rbp)
    180026bd:	7e 1d                	jle    180026dc <write_bin_error+0x1ef>
    180026bf:	48 8b 45 e8          	mov    -0x18(%rbp),%rax
    180026c3:	8b 55 e0             	mov    -0x20(%rbp),%edx
    180026c6:	89 90 00 01 00 00    	mov    %edx,0x100(%rax)
    180026cc:	48 8b 45 e8          	mov    -0x18(%rbp),%rax
    180026d0:	c7 80 d8 00 00 00 07 	movl   $0x7,0xd8(%rax)
    180026d7:	00 00 00 
    180026da:	eb 0e                	jmp    180026ea <write_bin_error+0x1fd>
    180026dc:	48 8b 45 e8          	mov    -0x18(%rbp),%rax
    180026e0:	c7 80 d8 00 00 00 01 	movl   $0x1,0xd8(%rax)
    180026e7:	00 00 00 
    180026ea:	90                   	nop
    180026eb:	c9                   	leaveq 
    180026ec:	c3                   	retq   

00000000180026ed <write_bin_response>:
    180026ed:	55                   	push   %rbp
    180026ee:	48 89 e5             	mov    %rsp,%rbp
    180026f1:	48 83 ec 20          	sub    $0x20,%rsp
    180026f5:	48 89 7d f8          	mov    %rdi,-0x8(%rbp)
    180026f9:	48 89 75 f0          	mov    %rsi,-0x10(%rbp)
    180026fd:	89 55 ec             	mov    %edx,-0x14(%rbp)
    18002700:	89 4d e8             	mov    %ecx,-0x18(%rbp)
    18002703:	44 89 45 e4          	mov    %r8d,-0x1c(%rbp)
    18002707:	48 8b 45 f8          	mov    -0x8(%rbp),%rax
    1800270b:	0f b6 80 a4 01 00 00 	movzbl 0x1a4(%rax),%eax
    18002712:	83 f0 01             	xor    $0x1,%eax
    18002715:	84 c0                	test   %al,%al
    18002717:	75 21                	jne    1800273a <write_bin_response+0x4d>
    18002719:	48 8b 45 f8          	mov    -0x8(%rbp),%rax
    1800271d:	0f b7 80 e0 01 00 00 	movzwl 0x1e0(%rax),%eax
    18002724:	66 85 c0             	test   %ax,%ax
    18002727:	74 11                	je     1800273a <write_bin_response+0x4d>
    18002729:	48 8b 45 f8          	mov    -0x8(%rbp),%rax
    1800272d:	0f b7 80 e0 01 00 00 	movzwl 0x1e0(%rax),%eax
    18002734:	66 83 f8 0c          	cmp    $0xc,%ax
    18002738:	75 60                	jne    1800279a <write_bin_response+0xad>
    1800273a:	8b 75 e4             	mov    -0x1c(%rbp),%esi
    1800273d:	8b 45 e8             	mov    -0x18(%rbp),%eax
    18002740:	0f b7 c8             	movzwl %ax,%ecx
    18002743:	8b 45 ec             	mov    -0x14(%rbp),%eax
    18002746:	0f b6 d0             	movzbl %al,%edx
    18002749:	48 8b 45 f8          	mov    -0x8(%rbp),%rax
    1800274d:	41 89 f0             	mov    %esi,%r8d
    18002750:	be 00 00 00 00       	mov    $0x0,%esi
    18002755:	48 89 c7             	mov    %rax,%rdi
    18002758:	e8 98 fb ff ff       	callq  180022f5 <add_bin_header>
    1800275d:	83 7d e4 00          	cmpl   $0x0,-0x1c(%rbp)
    18002761:	7e 16                	jle    18002779 <write_bin_response+0x8c>
    18002763:	8b 55 e4             	mov    -0x1c(%rbp),%edx
    18002766:	48 8b 4d f0          	mov    -0x10(%rbp),%rcx
    1800276a:	48 8b 45 f8          	mov    -0x8(%rbp),%rax
    1800276e:	48 89 ce             	mov    %rcx,%rsi
    18002771:	48 89 c7             	mov    %rax,%rdi
    18002774:	e8 7a f2 ff ff       	callq  180019f3 <add_iov>
    18002779:	48 8b 45 f8          	mov    -0x8(%rbp),%rax
    1800277d:	be 09 00 00 00       	mov    $0x9,%esi
    18002782:	48 89 c7             	mov    %rax,%rdi
    18002785:	e8 a1 f0 ff ff       	callq  1800182b <conn_set_state>
    1800278a:	48 8b 45 f8          	mov    -0x8(%rbp),%rax
    1800278e:	c7 80 d8 00 00 00 01 	movl   $0x1,0xd8(%rax)
    18002795:	00 00 00 
    18002798:	eb 11                	jmp    180027ab <write_bin_response+0xbe>
    1800279a:	48 8b 45 f8          	mov    -0x8(%rbp),%rax
    1800279e:	be 01 00 00 00       	mov    $0x1,%esi
    180027a3:	48 89 c7             	mov    %rax,%rdi
    180027a6:	e8 80 f0 ff ff       	callq  1800182b <conn_set_state>
    180027ab:	90                   	nop
    180027ac:	c9                   	leaveq 
    180027ad:	c3                   	retq   

00000000180027ae <complete_incr_bin>:
    180027ae:	55                   	push   %rbp
    180027af:	48 89 e5             	mov    %rsp,%rbp
    180027b2:	53                   	push   %rbx
    180027b3:	48 83 ec 78          	sub    $0x78,%rsp
    180027b7:	48 89 7d 88          	mov    %rdi,-0x78(%rbp)
    180027bb:	48 c7 45 98 00 00 00 	movq   $0x0,-0x68(%rbp)
    180027c2:	00 
    180027c3:	48 8b 45 88          	mov    -0x78(%rbp),%rax
    180027c7:	48 8b 80 c0 00 00 00 	mov    0xc0(%rax),%rax
    180027ce:	48 89 45 e0          	mov    %rax,-0x20(%rbp)
    180027d2:	48 8b 45 88          	mov    -0x78(%rbp),%rax
    180027d6:	48 89 c7             	mov    %rax,%rdi
    180027d9:	e8 a1 fa ff ff       	callq  1800227f <binary_get_request>
    180027de:	48 89 45 d8          	mov    %rax,-0x28(%rbp)
    180027e2:	48 8b 45 d8          	mov    -0x28(%rbp),%rax
    180027e6:	48 8b 40 18          	mov    0x18(%rax),%rax
    180027ea:	48 89 c7             	mov    %rax,%rdi
    180027ed:	e8 4e 5a 01 00       	callq  18018240 <ntohll>
    180027f2:	48 89 c2             	mov    %rax,%rdx
    180027f5:	48 8b 45 d8          	mov    -0x28(%rbp),%rax
    180027f9:	48 89 50 18          	mov    %rdx,0x18(%rax)
    180027fd:	48 8b 45 d8          	mov    -0x28(%rbp),%rax
    18002801:	48 8b 40 20          	mov    0x20(%rax),%rax
    18002805:	48 89 c7             	mov    %rax,%rdi
    18002808:	e8 33 5a 01 00       	callq  18018240 <ntohll>
    1800280d:	48 89 c2             	mov    %rax,%rdx
    18002810:	48 8b 45 d8          	mov    -0x28(%rbp),%rax
    18002814:	48 89 50 20          	mov    %rdx,0x20(%rax)
    18002818:	48 8b 45 d8          	mov    -0x28(%rbp),%rax
    1800281c:	8b 40 28             	mov    0x28(%rax),%eax
    1800281f:	89 c7                	mov    %eax,%edi
    18002821:	e8 72 e9 01 00       	callq  18021198 <ntohl>
    18002826:	89 c2                	mov    %eax,%edx
    18002828:	48 8b 45 d8          	mov    -0x28(%rbp),%rax
    1800282c:	89 50 28             	mov    %edx,0x28(%rax)
    1800282f:	48 8b 45 88          	mov    -0x78(%rbp),%rax
    18002833:	48 89 c7             	mov    %rax,%rdi
    18002836:	e8 91 fa ff ff       	callq  180022cc <binary_get_key>
    1800283b:	48 89 45 d0          	mov    %rax,-0x30(%rbp)
    1800283f:	48 8b 45 88          	mov    -0x78(%rbp),%rax
    18002843:	0f b7 80 c2 01 00 00 	movzwl 0x1c2(%rax),%eax
    1800284a:	0f b7 c0             	movzwl %ax,%eax
    1800284d:	48 89 45 c8          	mov    %rax,-0x38(%rbp)
    18002851:	48 8d 05 a8 2e 41 00 	lea    0x412ea8(%rip),%rax        # 18415700 <settings>
    18002858:	8b 40 20             	mov    0x20(%rax),%eax
    1800285b:	83 f8 01             	cmp    $0x1,%eax
    1800285e:	0f 8e a3 00 00 00    	jle    18002907 <complete_incr_bin+0x159>
    18002864:	48 8d 05 25 35 40 00 	lea    0x403525(%rip),%rax        # 18405d90 <stderr>
    1800286b:	48 8b 00             	mov    (%rax),%rax
    1800286e:	48 89 c1             	mov    %rax,%rcx
    18002871:	ba 05 00 00 00       	mov    $0x5,%edx
    18002876:	be 01 00 00 00       	mov    $0x1,%esi
    1800287b:	48 8d 3d 6a dc 3f 00 	lea    0x3fdc6a(%rip),%rdi        # 184004ec <data_start+0x4ec>
    18002882:	e8 53 09 02 00       	callq  180231da <fwrite>
    18002887:	c7 45 ec 00 00 00 00 	movl   $0x0,-0x14(%rbp)
    1800288e:	eb 2b                	jmp    180028bb <complete_incr_bin+0x10d>
    18002890:	8b 45 ec             	mov    -0x14(%rbp),%eax
    18002893:	48 63 d0             	movslq %eax,%rdx
    18002896:	48 8b 45 d0          	mov    -0x30(%rbp),%rax
    1800289a:	48 01 d0             	add    %rdx,%rax
    1800289d:	0f b6 00             	movzbl (%rax),%eax
    180028a0:	0f be c0             	movsbl %al,%eax
    180028a3:	48 8d 15 e6 34 40 00 	lea    0x4034e6(%rip),%rdx        # 18405d90 <stderr>
    180028aa:	48 8b 12             	mov    (%rdx),%rdx
    180028ad:	48 89 d6             	mov    %rdx,%rsi
    180028b0:	89 c7                	mov    %eax,%edi
    180028b2:	e8 56 06 02 00       	callq  18022f0d <fputc>
    180028b7:	83 45 ec 01          	addl   $0x1,-0x14(%rbp)
    180028bb:	8b 45 ec             	mov    -0x14(%rbp),%eax
    180028be:	48 98                	cltq   
    180028c0:	48 3b 45 c8          	cmp    -0x38(%rbp),%rax
    180028c4:	72 ca                	jb     18002890 <complete_incr_bin+0xe2>
    180028c6:	48 8b 45 d8          	mov    -0x28(%rbp),%rax
    180028ca:	8b 50 28             	mov    0x28(%rax),%edx
    180028cd:	48 8b 45 d8          	mov    -0x28(%rbp),%rax
    180028d1:	48 8b 40 20          	mov    0x20(%rax),%rax
    180028d5:	48 89 c1             	mov    %rax,%rcx
    180028d8:	48 8b 45 d8          	mov    -0x28(%rbp),%rax
    180028dc:	48 8b 40 18          	mov    0x18(%rax),%rax
    180028e0:	48 89 c6             	mov    %rax,%rsi
    180028e3:	48 8d 05 a6 34 40 00 	lea    0x4034a6(%rip),%rax        # 18405d90 <stderr>
    180028ea:	48 8b 00             	mov    (%rax),%rax
    180028ed:	41 89 d0             	mov    %edx,%r8d
    180028f0:	48 89 f2             	mov    %rsi,%rdx
    180028f3:	48 8d 35 f8 db 3f 00 	lea    0x3fdbf8(%rip),%rsi        # 184004f2 <data_start+0x4f2>
    180028fa:	48 89 c7             	mov    %rax,%rdi
    180028fd:	b8 00 00 00 00       	mov    $0x0,%eax
    18002902:	e8 77 05 02 00       	callq  18022e7e <fprintf>
    18002907:	48 8b 45 88          	mov    -0x78(%rbp),%rax
    1800290b:	48 8b 80 d0 01 00 00 	mov    0x1d0(%rax),%rax
    18002912:	48 85 c0             	test   %rax,%rax
    18002915:	74 0f                	je     18002926 <complete_incr_bin+0x178>
    18002917:	48 8b 45 88          	mov    -0x78(%rbp),%rax
    1800291b:	48 8b 80 d0 01 00 00 	mov    0x1d0(%rax),%rax
    18002922:	48 89 45 98          	mov    %rax,-0x68(%rbp)
    18002926:	48 8b 45 d8          	mov    -0x28(%rbp),%rax
    1800292a:	48 8b 40 18          	mov    0x18(%rax),%rax
    1800292e:	49 89 c2             	mov    %rax,%r10
    18002931:	48 8b 45 88          	mov    -0x78(%rbp),%rax
    18002935:	0f b7 80 e0 01 00 00 	movzwl 0x1e0(%rax),%eax
    1800293c:	66 83 f8 05          	cmp    $0x5,%ax
    18002940:	0f 94 c0             	sete   %al
    18002943:	0f b6 c8             	movzbl %al,%ecx
    18002946:	4c 8d 45 a0          	lea    -0x60(%rbp),%r8
    1800294a:	48 8b 55 c8          	mov    -0x38(%rbp),%rdx
    1800294e:	48 8b 75 d0          	mov    -0x30(%rbp),%rsi
    18002952:	48 8b 45 88          	mov    -0x78(%rbp),%rax
    18002956:	48 83 ec 08          	sub    $0x8,%rsp
    1800295a:	48 8d 7d 98          	lea    -0x68(%rbp),%rdi
    1800295e:	57                   	push   %rdi
    1800295f:	4d 89 c1             	mov    %r8,%r9
    18002962:	4d 89 d0             	mov    %r10,%r8
    18002965:	48 89 c7             	mov    %rax,%rdi
    18002968:	e8 b0 3b 01 00       	callq  1801651d <add_delta>
    1800296d:	48 83 c4 10          	add    $0x10,%rsp
    18002971:	83 f8 04             	cmp    $0x4,%eax
    18002974:	0f 87 94 03 00 00    	ja     18002d0e <complete_incr_bin+0x560>
    1800297a:	89 c0                	mov    %eax,%eax
    1800297c:	48 8d 14 85 00 00 00 	lea    0x0(,%rax,4),%rdx
    18002983:	00 
    18002984:	48 8d 05 e5 db 3f 00 	lea    0x3fdbe5(%rip),%rax        # 18400570 <data_start+0x570>
    1800298b:	8b 04 02             	mov    (%rdx,%rax,1),%eax
    1800298e:	48 63 d0             	movslq %eax,%rdx
    18002991:	48 8d 05 d8 db 3f 00 	lea    0x3fdbd8(%rip),%rax        # 18400570 <data_start+0x570>
    18002998:	48 01 d0             	add    %rdx,%rax
    1800299b:	ff e0                	jmpq   *%rax
    1800299d:	48 8d 45 a0          	lea    -0x60(%rbp),%rax
    180029a1:	ba 0a 00 00 00       	mov    $0xa,%edx
    180029a6:	be 00 00 00 00       	mov    $0x0,%esi
    180029ab:	48 89 c7             	mov    %rax,%rdi
    180029ae:	e8 36 31 02 00       	callq  18025ae9 <strtoull>
    180029b3:	48 89 c7             	mov    %rax,%rdi
    180029b6:	e8 9f 58 01 00       	callq  1801825a <htonll>
    180029bb:	48 89 c2             	mov    %rax,%rdx
    180029be:	48 8b 45 e0          	mov    -0x20(%rbp),%rax
    180029c2:	48 89 50 18          	mov    %rdx,0x18(%rax)
    180029c6:	48 8b 45 98          	mov    -0x68(%rbp),%rax
    180029ca:	48 85 c0             	test   %rax,%rax
    180029cd:	74 0f                	je     180029de <complete_incr_bin+0x230>
    180029cf:	48 8b 55 98          	mov    -0x68(%rbp),%rdx
    180029d3:	48 8b 45 88          	mov    -0x78(%rbp),%rax
    180029d7:	48 89 90 d8 01 00 00 	mov    %rdx,0x1d8(%rax)
    180029de:	48 8b 45 e0          	mov    -0x20(%rbp),%rax
    180029e2:	48 8d 70 18          	lea    0x18(%rax),%rsi
    180029e6:	48 8b 45 88          	mov    -0x78(%rbp),%rax
    180029ea:	41 b8 08 00 00 00    	mov    $0x8,%r8d
    180029f0:	b9 00 00 00 00       	mov    $0x0,%ecx
    180029f5:	ba 00 00 00 00       	mov    $0x0,%edx
    180029fa:	48 89 c7             	mov    %rax,%rdi
    180029fd:	e8 eb fc ff ff       	callq  180026ed <write_bin_response>
    18002a02:	e9 07 03 00 00       	jmpq   18002d0e <complete_incr_bin+0x560>
    18002a07:	48 8b 45 88          	mov    -0x78(%rbp),%rax
    18002a0b:	b9 00 00 00 00       	mov    $0x0,%ecx
    18002a10:	ba 00 00 00 00       	mov    $0x0,%edx
    18002a15:	be 06 00 00 00       	mov    $0x6,%esi
    18002a1a:	48 89 c7             	mov    %rax,%rdi
    18002a1d:	e8 cb fa ff ff       	callq  180024ed <write_bin_error>
    18002a22:	e9 e7 02 00 00       	jmpq   18002d0e <complete_incr_bin+0x560>
    18002a27:	48 8b 45 88          	mov    -0x78(%rbp),%rax
    18002a2b:	48 8d 35 d6 da 3f 00 	lea    0x3fdad6(%rip),%rsi        # 18400508 <data_start+0x508>
    18002a32:	48 89 c7             	mov    %rax,%rdi
    18002a35:	e8 e9 f5 ff ff       	callq  18002023 <out_of_memory>
    18002a3a:	e9 cf 02 00 00       	jmpq   18002d0e <complete_incr_bin+0x560>
    18002a3f:	48 8b 45 d8          	mov    -0x28(%rbp),%rax
    18002a43:	8b 40 28             	mov    0x28(%rax),%eax
    18002a46:	83 f8 ff             	cmp    $0xffffffff,%eax
    18002a49:	0f 84 07 02 00 00    	je     18002c56 <complete_incr_bin+0x4a8>
    18002a4f:	48 8b 45 d8          	mov    -0x28(%rbp),%rax
    18002a53:	48 8b 40 20          	mov    0x20(%rax),%rax
    18002a57:	48 89 c7             	mov    %rax,%rdi
    18002a5a:	e8 fb 57 01 00       	callq  1801825a <htonll>
    18002a5f:	48 89 c2             	mov    %rax,%rdx
    18002a62:	48 8b 45 e0          	mov    -0x20(%rbp),%rax
    18002a66:	48 89 50 18          	mov    %rdx,0x18(%rax)
    18002a6a:	48 8b 45 d8          	mov    -0x28(%rbp),%rax
    18002a6e:	48 8b 50 20          	mov    0x20(%rax),%rdx
    18002a72:	48 8d 45 a0          	lea    -0x60(%rbp),%rax
    18002a76:	48 89 d1             	mov    %rdx,%rcx
    18002a79:	48 8d 15 b6 da 3f 00 	lea    0x3fdab6(%rip),%rdx        # 18400536 <data_start+0x536>
    18002a80:	be 18 00 00 00       	mov    $0x18,%esi
    18002a85:	48 89 c7             	mov    %rax,%rdi
    18002a88:	b8 00 00 00 00       	mov    $0x0,%eax
    18002a8d:	e8 34 0b 02 00       	callq  180235c6 <snprintf>
    18002a92:	48 8d 45 a0          	lea    -0x60(%rbp),%rax
    18002a96:	48 89 c7             	mov    %rax,%rdi
    18002a99:	e8 82 33 02 00       	callq  18025e20 <strlen>
    18002a9e:	89 45 c4             	mov    %eax,-0x3c(%rbp)
    18002aa1:	8b 45 c4             	mov    -0x3c(%rbp),%eax
    18002aa4:	8d 58 02             	lea    0x2(%rax),%ebx
    18002aa7:	48 8b 45 d8          	mov    -0x28(%rbp),%rax
    18002aab:	8b 40 28             	mov    0x28(%rax),%eax
    18002aae:	89 c0                	mov    %eax,%eax
    18002ab0:	48 89 c7             	mov    %rax,%rdi
    18002ab3:	e8 18 d8 ff ff       	callq  180002d0 <realtime>
    18002ab8:	89 c2                	mov    %eax,%edx
    18002aba:	48 8b 75 c8          	mov    -0x38(%rbp),%rsi
    18002abe:	48 8b 45 d0          	mov    -0x30(%rbp),%rax
    18002ac2:	41 89 d8             	mov    %ebx,%r8d
    18002ac5:	89 d1                	mov    %edx,%ecx
    18002ac7:	ba 00 00 00 00       	mov    $0x0,%edx
    18002acc:	48 89 c7             	mov    %rax,%rdi
    18002acf:	e8 24 37 01 00       	callq  180161f8 <item_alloc>
    18002ad4:	48 89 45 b8          	mov    %rax,-0x48(%rbp)
    18002ad8:	48 83 7d b8 00       	cmpq   $0x0,-0x48(%rbp)
    18002add:	0f 84 5b 01 00 00    	je     18002c3e <complete_incr_bin+0x490>
    18002ae3:	8b 45 c4             	mov    -0x3c(%rbp),%eax
    18002ae6:	48 63 d0             	movslq %eax,%rdx
    18002ae9:	48 8b 45 b8          	mov    -0x48(%rbp),%rax
    18002aed:	48 8d 70 30          	lea    0x30(%rax),%rsi
    18002af1:	48 8b 45 b8          	mov    -0x48(%rbp),%rax
    18002af5:	0f b6 40 29          	movzbl 0x29(%rax),%eax
    18002af9:	0f b6 c8             	movzbl %al,%ecx
    18002afc:	48 8b 45 b8          	mov    -0x48(%rbp),%rax
    18002b00:	0f b6 40 26          	movzbl 0x26(%rax),%eax
    18002b04:	0f b6 c0             	movzbl %al,%eax
    18002b07:	48 01 c1             	add    %rax,%rcx
    18002b0a:	48 8b 45 b8          	mov    -0x48(%rbp),%rax
    18002b0e:	0f b6 40 27          	movzbl 0x27(%rax),%eax
    18002b12:	0f b6 c0             	movzbl %al,%eax
    18002b15:	83 e0 02             	and    $0x2,%eax
    18002b18:	85 c0                	test   %eax,%eax
    18002b1a:	74 07                	je     18002b23 <complete_incr_bin+0x375>
    18002b1c:	b8 08 00 00 00       	mov    $0x8,%eax
    18002b21:	eb 05                	jmp    18002b28 <complete_incr_bin+0x37a>
    18002b23:	b8 00 00 00 00       	mov    $0x0,%eax
    18002b28:	48 01 c8             	add    %rcx,%rax
    18002b2b:	48 83 c0 01          	add    $0x1,%rax
    18002b2f:	48 8d 0c 06          	lea    (%rsi,%rax,1),%rcx
    18002b33:	48 8d 45 a0          	lea    -0x60(%rbp),%rax
    18002b37:	48 89 c6             	mov    %rax,%rsi
    18002b3a:	48 89 cf             	mov    %rcx,%rdi
    18002b3d:	e8 d5 3a 02 00       	callq  18026617 <memcpy>
    18002b42:	48 8b 45 b8          	mov    -0x48(%rbp),%rax
    18002b46:	48 8d 48 30          	lea    0x30(%rax),%rcx
    18002b4a:	48 8b 45 b8          	mov    -0x48(%rbp),%rax
    18002b4e:	0f b6 40 29          	movzbl 0x29(%rax),%eax
    18002b52:	0f b6 d0             	movzbl %al,%edx
    18002b55:	48 8b 45 b8          	mov    -0x48(%rbp),%rax
    18002b59:	0f b6 40 26          	movzbl 0x26(%rax),%eax
    18002b5d:	0f b6 c0             	movzbl %al,%eax
    18002b60:	48 01 c2             	add    %rax,%rdx
    18002b63:	48 8b 45 b8          	mov    -0x48(%rbp),%rax
    18002b67:	0f b6 40 27          	movzbl 0x27(%rax),%eax
    18002b6b:	0f b6 c0             	movzbl %al,%eax
    18002b6e:	83 e0 02             	and    $0x2,%eax
    18002b71:	85 c0                	test   %eax,%eax
    18002b73:	74 07                	je     18002b7c <complete_incr_bin+0x3ce>
    18002b75:	b8 08 00 00 00       	mov    $0x8,%eax
    18002b7a:	eb 05                	jmp    18002b81 <complete_incr_bin+0x3d3>
    18002b7c:	b8 00 00 00 00       	mov    $0x0,%eax
    18002b81:	48 01 c2             	add    %rax,%rdx
    18002b84:	8b 45 c4             	mov    -0x3c(%rbp),%eax
    18002b87:	48 98                	cltq   
    18002b89:	48 01 d0             	add    %rdx,%rax
    18002b8c:	48 83 c0 01          	add    $0x1,%rax
    18002b90:	48 01 c8             	add    %rcx,%rax
    18002b93:	ba 02 00 00 00       	mov    $0x2,%edx
    18002b98:	48 8d 35 9b d7 3f 00 	lea    0x3fd79b(%rip),%rsi        # 1840033a <data_start+0x33a>
    18002b9f:	48 89 c7             	mov    %rax,%rdi
    18002ba2:	e8 70 3a 02 00       	callq  18026617 <memcpy>
    18002ba7:	48 8b 55 88          	mov    -0x78(%rbp),%rdx
    18002bab:	48 8b 45 b8          	mov    -0x48(%rbp),%rax
    18002baf:	be 01 00 00 00       	mov    $0x1,%esi
    18002bb4:	48 89 c7             	mov    %rax,%rdi
    18002bb7:	e8 ea 39 01 00       	callq  180165a6 <store_item>
    18002bbc:	85 c0                	test   %eax,%eax
    18002bbe:	74 52                	je     18002c12 <complete_incr_bin+0x464>
    18002bc0:	48 8b 45 b8          	mov    -0x48(%rbp),%rax
    18002bc4:	0f b6 40 27          	movzbl 0x27(%rax),%eax
    18002bc8:	0f b6 c0             	movzbl %al,%eax
    18002bcb:	83 e0 02             	and    $0x2,%eax
    18002bce:	85 c0                	test   %eax,%eax
    18002bd0:	74 0a                	je     18002bdc <complete_incr_bin+0x42e>
    18002bd2:	48 8b 45 b8          	mov    -0x48(%rbp),%rax
    18002bd6:	48 8b 40 30          	mov    0x30(%rax),%rax
    18002bda:	eb 05                	jmp    18002be1 <complete_incr_bin+0x433>
    18002bdc:	b8 00 00 00 00       	mov    $0x0,%eax
    18002be1:	48 8b 55 88          	mov    -0x78(%rbp),%rdx
    18002be5:	48 89 82 d8 01 00 00 	mov    %rax,0x1d8(%rdx)
    18002bec:	48 8b 45 e0          	mov    -0x20(%rbp),%rax
    18002bf0:	48 8d 70 18          	lea    0x18(%rax),%rsi
    18002bf4:	48 8b 45 88          	mov    -0x78(%rbp),%rax
    18002bf8:	41 b8 08 00 00 00    	mov    $0x8,%r8d
    18002bfe:	b9 00 00 00 00       	mov    $0x0,%ecx
    18002c03:	ba 00 00 00 00       	mov    $0x0,%edx
    18002c08:	48 89 c7             	mov    %rax,%rdi
    18002c0b:	e8 dd fa ff ff       	callq  180026ed <write_bin_response>
    18002c10:	eb 1b                	jmp    18002c2d <complete_incr_bin+0x47f>
    18002c12:	48 8b 45 88          	mov    -0x78(%rbp),%rax
    18002c16:	b9 00 00 00 00       	mov    $0x0,%ecx
    18002c1b:	ba 00 00 00 00       	mov    $0x0,%edx
    18002c20:	be 05 00 00 00       	mov    $0x5,%esi
    18002c25:	48 89 c7             	mov    %rax,%rdi
    18002c28:	e8 c0 f8 ff ff       	callq  180024ed <write_bin_error>
    18002c2d:	48 8b 45 b8          	mov    -0x48(%rbp),%rax
    18002c31:	48 89 c7             	mov    %rax,%rdi
    18002c34:	e8 4c 37 01 00       	callq  18016385 <item_remove>
    18002c39:	e9 d0 00 00 00       	jmpq   18002d0e <complete_incr_bin+0x560>
    18002c3e:	48 8b 45 88          	mov    -0x78(%rbp),%rax
    18002c42:	48 8d 35 f7 d8 3f 00 	lea    0x3fd8f7(%rip),%rsi        # 18400540 <data_start+0x540>
    18002c49:	48 89 c7             	mov    %rax,%rdi
    18002c4c:	e8 d2 f3 ff ff       	callq  18002023 <out_of_memory>
    18002c51:	e9 b8 00 00 00       	jmpq   18002d0e <complete_incr_bin+0x560>
    18002c56:	48 8b 45 88          	mov    -0x78(%rbp),%rax
    18002c5a:	48 8b 80 f8 01 00 00 	mov    0x1f8(%rax),%rax
    18002c61:	48 05 98 00 00 00    	add    $0x98,%rax
    18002c67:	48 89 c7             	mov    %rax,%rdi
    18002c6a:	e8 47 49 02 00       	callq  180275b6 <__pthread_mutex_lock>
    18002c6f:	48 8b 45 88          	mov    -0x78(%rbp),%rax
    18002c73:	0f b7 80 e0 01 00 00 	movzwl 0x1e0(%rax),%eax
    18002c7a:	66 83 f8 05          	cmp    $0x5,%ax
    18002c7e:	75 1f                	jne    18002c9f <complete_incr_bin+0x4f1>
    18002c80:	48 8b 45 88          	mov    -0x78(%rbp),%rax
    18002c84:	48 8b 80 f8 01 00 00 	mov    0x1f8(%rax),%rax
    18002c8b:	48 8b 90 e8 00 00 00 	mov    0xe8(%rax),%rdx
    18002c92:	48 83 c2 01          	add    $0x1,%rdx
    18002c96:	48 89 90 e8 00 00 00 	mov    %rdx,0xe8(%rax)
    18002c9d:	eb 1d                	jmp    18002cbc <complete_incr_bin+0x50e>
    18002c9f:	48 8b 45 88          	mov    -0x78(%rbp),%rax
    18002ca3:	48 8b 80 f8 01 00 00 	mov    0x1f8(%rax),%rax
    18002caa:	48 8b 90 f0 00 00 00 	mov    0xf0(%rax),%rdx
    18002cb1:	48 83 c2 01          	add    $0x1,%rdx
    18002cb5:	48 89 90 f0 00 00 00 	mov    %rdx,0xf0(%rax)
    18002cbc:	48 8b 45 88          	mov    -0x78(%rbp),%rax
    18002cc0:	48 8b 80 f8 01 00 00 	mov    0x1f8(%rax),%rax
    18002cc7:	48 05 98 00 00 00    	add    $0x98,%rax
    18002ccd:	48 89 c7             	mov    %rax,%rdi
    18002cd0:	e8 4c 4b 02 00       	callq  18027821 <__pthread_mutex_unlock>
    18002cd5:	48 8b 45 88          	mov    -0x78(%rbp),%rax
    18002cd9:	b9 00 00 00 00       	mov    $0x0,%ecx
    18002cde:	ba 00 00 00 00       	mov    $0x0,%edx
    18002ce3:	be 01 00 00 00       	mov    $0x1,%esi
    18002ce8:	48 89 c7             	mov    %rax,%rdi
    18002ceb:	e8 fd f7 ff ff       	callq  180024ed <write_bin_error>
    18002cf0:	eb 1c                	jmp    18002d0e <complete_incr_bin+0x560>
    18002cf2:	48 8b 45 88          	mov    -0x78(%rbp),%rax
    18002cf6:	b9 00 00 00 00       	mov    $0x0,%ecx
    18002cfb:	ba 00 00 00 00       	mov    $0x0,%edx
    18002d00:	be 02 00 00 00       	mov    $0x2,%esi
    18002d05:	48 89 c7             	mov    %rax,%rdi
    18002d08:	e8 e0 f7 ff ff       	callq  180024ed <write_bin_error>
    18002d0d:	90                   	nop
    18002d0e:	90                   	nop
    18002d0f:	48 8b 5d f8          	mov    -0x8(%rbp),%rbx
    18002d13:	c9                   	leaveq 
    18002d14:	c3                   	retq   

0000000018002d15 <complete_update_bin>:
    18002d15:	55                   	push   %rbp
    18002d16:	48 89 e5             	mov    %rsp,%rbp
    18002d19:	48 83 ec 20          	sub    $0x20,%rsp
    18002d1d:	48 89 7d e8          	mov    %rdi,-0x18(%rbp)
    18002d21:	c7 45 fc 04 00 00 00 	movl   $0x4,-0x4(%rbp)
    18002d28:	c7 45 f8 00 00 00 00 	movl   $0x0,-0x8(%rbp)
    18002d2f:	48 8b 45 e8          	mov    -0x18(%rbp),%rax
    18002d33:	48 8b 80 f8 00 00 00 	mov    0xf8(%rax),%rax
    18002d3a:	48 89 45 f0          	mov    %rax,-0x10(%rbp)
    18002d3e:	48 8b 45 e8          	mov    -0x18(%rbp),%rax
    18002d42:	48 8b 80 f8 01 00 00 	mov    0x1f8(%rax),%rax
    18002d49:	48 05 98 00 00 00    	add    $0x98,%rax
    18002d4f:	48 89 c7             	mov    %rax,%rdi
    18002d52:	e8 5f 48 02 00       	callq  180275b6 <__pthread_mutex_lock>
    18002d57:	48 8b 45 e8          	mov    -0x18(%rbp),%rax
    18002d5b:	48 8b 80 f8 01 00 00 	mov    0x1f8(%rax),%rax
    18002d62:	48 8b 55 f0          	mov    -0x10(%rbp),%rdx
    18002d66:	0f b6 52 28          	movzbl 0x28(%rdx),%edx
    18002d6a:	0f b6 d2             	movzbl %dl,%edx
    18002d6d:	48 63 ca             	movslq %edx,%rcx
    18002d70:	48 c1 e1 06          	shl    $0x6,%rcx
    18002d74:	48 01 c1             	add    %rax,%rcx
    18002d77:	48 81 c1 30 01 00 00 	add    $0x130,%rcx
    18002d7e:	48 8b 09             	mov    (%rcx),%rcx
    18002d81:	48 83 c1 01          	add    $0x1,%rcx
    18002d85:	48 63 d2             	movslq %edx,%rdx
    18002d88:	48 c1 e2 06          	shl    $0x6,%rdx
    18002d8c:	48 01 d0             	add    %rdx,%rax
    18002d8f:	48 05 30 01 00 00    	add    $0x130,%rax
    18002d95:	48 89 08             	mov    %rcx,(%rax)
    18002d98:	48 8b 45 e8          	mov    -0x18(%rbp),%rax
    18002d9c:	48 8b 80 f8 01 00 00 	mov    0x1f8(%rax),%rax
    18002da3:	48 05 98 00 00 00    	add    $0x98,%rax
    18002da9:	48 89 c7             	mov    %rax,%rdi
    18002dac:	e8 70 4a 02 00       	callq  18027821 <__pthread_mutex_unlock>
    18002db1:	48 8b 45 f0          	mov    -0x10(%rbp),%rax
    18002db5:	48 8d 48 30          	lea    0x30(%rax),%rcx
    18002db9:	48 8b 45 f0          	mov    -0x10(%rbp),%rax
    18002dbd:	0f b6 40 29          	movzbl 0x29(%rax),%eax
    18002dc1:	0f b6 d0             	movzbl %al,%edx
    18002dc4:	48 8b 45 f0          	mov    -0x10(%rbp),%rax
    18002dc8:	0f b6 40 26          	movzbl 0x26(%rax),%eax
    18002dcc:	0f b6 c0             	movzbl %al,%eax
    18002dcf:	48 01 c2             	add    %rax,%rdx
    18002dd2:	48 8b 45 f0          	mov    -0x10(%rbp),%rax
    18002dd6:	0f b6 40 27          	movzbl 0x27(%rax),%eax
    18002dda:	0f b6 c0             	movzbl %al,%eax
    18002ddd:	83 e0 02             	and    $0x2,%eax
    18002de0:	85 c0                	test   %eax,%eax
    18002de2:	74 07                	je     18002deb <complete_update_bin+0xd6>
    18002de4:	b8 08 00 00 00       	mov    $0x8,%eax
    18002de9:	eb 05                	jmp    18002df0 <complete_update_bin+0xdb>
    18002deb:	b8 00 00 00 00       	mov    $0x0,%eax
    18002df0:	48 01 c2             	add    %rax,%rdx
    18002df3:	48 8b 45 f0          	mov    -0x10(%rbp),%rax
    18002df7:	8b 40 20             	mov    0x20(%rax),%eax
    18002dfa:	48 98                	cltq   
    18002dfc:	48 01 d0             	add    %rdx,%rax
    18002dff:	48 83 e8 01          	sub    $0x1,%rax
    18002e03:	48 01 c8             	add    %rcx,%rax
    18002e06:	c6 00 0d             	movb   $0xd,(%rax)
    18002e09:	48 8b 45 f0          	mov    -0x10(%rbp),%rax
    18002e0d:	48 8d 48 30          	lea    0x30(%rax),%rcx
    18002e11:	48 8b 45 f0          	mov    -0x10(%rbp),%rax
    18002e15:	0f b6 40 29          	movzbl 0x29(%rax),%eax
    18002e19:	0f b6 d0             	movzbl %al,%edx
    18002e1c:	48 8b 45 f0          	mov    -0x10(%rbp),%rax
    18002e20:	0f b6 40 26          	movzbl 0x26(%rax),%eax
    18002e24:	0f b6 c0             	movzbl %al,%eax
    18002e27:	48 01 c2             	add    %rax,%rdx
    18002e2a:	48 8b 45 f0          	mov    -0x10(%rbp),%rax
    18002e2e:	0f b6 40 27          	movzbl 0x27(%rax),%eax
    18002e32:	0f b6 c0             	movzbl %al,%eax
    18002e35:	83 e0 02             	and    $0x2,%eax
    18002e38:	85 c0                	test   %eax,%eax
    18002e3a:	74 07                	je     18002e43 <complete_update_bin+0x12e>
    18002e3c:	b8 08 00 00 00       	mov    $0x8,%eax
    18002e41:	eb 05                	jmp    18002e48 <complete_update_bin+0x133>
    18002e43:	b8 00 00 00 00       	mov    $0x0,%eax
    18002e48:	48 01 c2             	add    %rax,%rdx
    18002e4b:	48 8b 45 f0          	mov    -0x10(%rbp),%rax
    18002e4f:	8b 40 20             	mov    0x20(%rax),%eax
    18002e52:	48 98                	cltq   
    18002e54:	48 01 d0             	add    %rdx,%rax
    18002e57:	48 01 c8             	add    %rcx,%rax
    18002e5a:	c6 00 0a             	movb   $0xa,(%rax)
    18002e5d:	48 8b 45 e8          	mov    -0x18(%rbp),%rax
    18002e61:	0f b7 80 e0 01 00 00 	movzwl 0x1e0(%rax),%eax
    18002e68:	0f bf c8             	movswl %ax,%ecx
    18002e6b:	48 8b 55 e8          	mov    -0x18(%rbp),%rdx
    18002e6f:	48 8b 45 f0          	mov    -0x10(%rbp),%rax
    18002e73:	89 ce                	mov    %ecx,%esi
    18002e75:	48 89 c7             	mov    %rax,%rdi
    18002e78:	e8 29 37 01 00       	callq  180165a6 <store_item>
    18002e7d:	89 45 f8             	mov    %eax,-0x8(%rbp)
    18002e80:	8b 45 f8             	mov    -0x8(%rbp),%eax
    18002e83:	83 f8 01             	cmp    $0x1,%eax
    18002e86:	74 14                	je     18002e9c <complete_update_bin+0x187>
    18002e88:	83 f8 01             	cmp    $0x1,%eax
    18002e8b:	72 6f                	jb     18002efc <complete_update_bin+0x1e7>
    18002e8d:	83 f8 02             	cmp    $0x2,%eax
    18002e90:	74 30                	je     18002ec2 <complete_update_bin+0x1ad>
    18002e92:	83 f8 03             	cmp    $0x3,%eax
    18002e95:	74 48                	je     18002edf <complete_update_bin+0x1ca>
    18002e97:	e9 b4 00 00 00       	jmpq   18002f50 <complete_update_bin+0x23b>
    18002e9c:	48 8b 45 e8          	mov    -0x18(%rbp),%rax
    18002ea0:	41 b8 00 00 00 00    	mov    $0x0,%r8d
    18002ea6:	b9 00 00 00 00       	mov    $0x0,%ecx
    18002eab:	ba 00 00 00 00       	mov    $0x0,%edx
    18002eb0:	be 00 00 00 00       	mov    $0x0,%esi
    18002eb5:	48 89 c7             	mov    %rax,%rdi
    18002eb8:	e8 30 f8 ff ff       	callq  180026ed <write_bin_response>
    18002ebd:	e9 8e 00 00 00       	jmpq   18002f50 <complete_update_bin+0x23b>
    18002ec2:	48 8b 45 e8          	mov    -0x18(%rbp),%rax
    18002ec6:	b9 00 00 00 00       	mov    $0x0,%ecx
    18002ecb:	ba 00 00 00 00       	mov    $0x0,%edx
    18002ed0:	be 02 00 00 00       	mov    $0x2,%esi
    18002ed5:	48 89 c7             	mov    %rax,%rdi
    18002ed8:	e8 10 f6 ff ff       	callq  180024ed <write_bin_error>
    18002edd:	eb 71                	jmp    18002f50 <complete_update_bin+0x23b>
    18002edf:	48 8b 45 e8          	mov    -0x18(%rbp),%rax
    18002ee3:	b9 00 00 00 00       	mov    $0x0,%ecx
    18002ee8:	ba 00 00 00 00       	mov    $0x0,%edx
    18002eed:	be 01 00 00 00       	mov    $0x1,%esi
    18002ef2:	48 89 c7             	mov    %rax,%rdi
    18002ef5:	e8 f3 f5 ff ff       	callq  180024ed <write_bin_error>
    18002efa:	eb 54                	jmp    18002f50 <complete_update_bin+0x23b>
    18002efc:	48 8b 45 e8          	mov    -0x18(%rbp),%rax
    18002f00:	0f b7 80 e0 01 00 00 	movzwl 0x1e0(%rax),%eax
    18002f07:	66 83 f8 01          	cmp    $0x1,%ax
    18002f0b:	75 09                	jne    18002f16 <complete_update_bin+0x201>
    18002f0d:	c7 45 fc 02 00 00 00 	movl   $0x2,-0x4(%rbp)
    18002f14:	eb 21                	jmp    18002f37 <complete_update_bin+0x222>
    18002f16:	48 8b 45 e8          	mov    -0x18(%rbp),%rax
    18002f1a:	0f b7 80 e0 01 00 00 	movzwl 0x1e0(%rax),%eax
    18002f21:	66 83 f8 03          	cmp    $0x3,%ax
    18002f25:	75 09                	jne    18002f30 <complete_update_bin+0x21b>
    18002f27:	c7 45 fc 01 00 00 00 	movl   $0x1,-0x4(%rbp)
    18002f2e:	eb 07                	jmp    18002f37 <complete_update_bin+0x222>
    18002f30:	c7 45 fc 05 00 00 00 	movl   $0x5,-0x4(%rbp)
    18002f37:	8b 75 fc             	mov    -0x4(%rbp),%esi
    18002f3a:	48 8b 45 e8          	mov    -0x18(%rbp),%rax
    18002f3e:	b9 00 00 00 00       	mov    $0x0,%ecx
    18002f43:	ba 00 00 00 00       	mov    $0x0,%edx
    18002f48:	48 89 c7             	mov    %rax,%rdi
    18002f4b:	e8 9d f5 ff ff       	callq  180024ed <write_bin_error>
    18002f50:	48 8b 45 e8          	mov    -0x18(%rbp),%rax
    18002f54:	48 8b 80 f8 00 00 00 	mov    0xf8(%rax),%rax
    18002f5b:	48 89 c7             	mov    %rax,%rdi
    18002f5e:	e8 22 34 01 00       	callq  18016385 <item_remove>
    18002f63:	48 8b 45 e8          	mov    -0x18(%rbp),%rax
    18002f67:	48 c7 80 f8 00 00 00 	movq   $0x0,0xf8(%rax)
    18002f6e:	00 00 00 00 
    18002f72:	90                   	nop
    18002f73:	c9                   	leaveq 
    18002f74:	c3                   	retq   

0000000018002f75 <process_bin_get_or_touch>:
    18002f75:	55                   	push   %rbp
    18002f76:	48 89 e5             	mov    %rsp,%rbp
    18002f79:	48 83 ec 60          	sub    $0x60,%rsp
    18002f7d:	48 89 7d a8          	mov    %rdi,-0x58(%rbp)
    18002f81:	48 8b 45 a8          	mov    -0x58(%rbp),%rax
    18002f85:	48 8b 80 c0 00 00 00 	mov    0xc0(%rax),%rax
    18002f8c:	48 89 45 e8          	mov    %rax,-0x18(%rbp)
    18002f90:	48 8b 45 a8          	mov    -0x58(%rbp),%rax
    18002f94:	48 89 c7             	mov    %rax,%rdi
    18002f97:	e8 30 f3 ff ff       	callq  180022cc <binary_get_key>
    18002f9c:	48 89 45 e0          	mov    %rax,-0x20(%rbp)
    18002fa0:	48 8b 45 a8          	mov    -0x58(%rbp),%rax
    18002fa4:	0f b7 80 c2 01 00 00 	movzwl 0x1c2(%rax),%eax
    18002fab:	0f b7 c0             	movzwl %ax,%eax
    18002fae:	48 89 45 d8          	mov    %rax,-0x28(%rbp)
    18002fb2:	48 8b 45 a8          	mov    -0x58(%rbp),%rax
    18002fb6:	0f b7 80 e0 01 00 00 	movzwl 0x1e0(%rax),%eax
    18002fbd:	66 83 f8 1c          	cmp    $0x1c,%ax
    18002fc1:	74 22                	je     18002fe5 <process_bin_get_or_touch+0x70>
    18002fc3:	48 8b 45 a8          	mov    -0x58(%rbp),%rax
    18002fc7:	0f b7 80 e0 01 00 00 	movzwl 0x1e0(%rax),%eax
    18002fce:	66 83 f8 1d          	cmp    $0x1d,%ax
    18002fd2:	74 11                	je     18002fe5 <process_bin_get_or_touch+0x70>
    18002fd4:	48 8b 45 a8          	mov    -0x58(%rbp),%rax
    18002fd8:	0f b7 80 e0 01 00 00 	movzwl 0x1e0(%rax),%eax
    18002fdf:	66 83 f8 23          	cmp    $0x23,%ax
    18002fe3:	75 07                	jne    18002fec <process_bin_get_or_touch+0x77>
    18002fe5:	b8 01 00 00 00       	mov    $0x1,%eax
    18002fea:	eb 05                	jmp    18002ff1 <process_bin_get_or_touch+0x7c>
    18002fec:	b8 00 00 00 00       	mov    $0x0,%eax
    18002ff1:	89 45 d4             	mov    %eax,-0x2c(%rbp)
    18002ff4:	48 8b 45 a8          	mov    -0x58(%rbp),%rax
    18002ff8:	0f b7 80 e0 01 00 00 	movzwl 0x1e0(%rax),%eax
    18002fff:	66 83 f8 0c          	cmp    $0xc,%ax
    18003003:	74 11                	je     18003016 <process_bin_get_or_touch+0xa1>
    18003005:	48 8b 45 a8          	mov    -0x58(%rbp),%rax
    18003009:	0f b7 80 e0 01 00 00 	movzwl 0x1e0(%rax),%eax
    18003010:	66 83 f8 23          	cmp    $0x23,%ax
    18003014:	75 07                	jne    1800301d <process_bin_get_or_touch+0xa8>
    18003016:	b8 01 00 00 00       	mov    $0x1,%eax
    1800301b:	eb 05                	jmp    18003022 <process_bin_get_or_touch+0xad>
    1800301d:	b8 00 00 00 00       	mov    $0x0,%eax
    18003022:	89 45 d0             	mov    %eax,-0x30(%rbp)
    18003025:	48 8b 45 a8          	mov    -0x58(%rbp),%rax
    18003029:	0f b7 80 e0 01 00 00 	movzwl 0x1e0(%rax),%eax
    18003030:	66 83 f8 1c          	cmp    $0x1c,%ax
    18003034:	0f 95 c0             	setne  %al
    18003037:	0f b6 c0             	movzbl %al,%eax
    1800303a:	89 45 cc             	mov    %eax,-0x34(%rbp)
    1800303d:	48 8d 05 bc 26 41 00 	lea    0x4126bc(%rip),%rax        # 18415700 <settings>
    18003044:	8b 40 20             	mov    0x20(%rax),%eax
    18003047:	83 f8 01             	cmp    $0x1,%eax
    1800304a:	7e 70                	jle    180030bc <process_bin_get_or_touch+0x147>
    1800304c:	83 7d d4 00          	cmpl   $0x0,-0x2c(%rbp)
    18003050:	74 09                	je     1800305b <process_bin_get_or_touch+0xe6>
    18003052:	48 8d 05 2b d5 3f 00 	lea    0x3fd52b(%rip),%rax        # 18400584 <data_start+0x584>
    18003059:	eb 07                	jmp    18003062 <process_bin_get_or_touch+0xed>
    1800305b:	48 8d 05 28 d5 3f 00 	lea    0x3fd528(%rip),%rax        # 1840058a <data_start+0x58a>
    18003062:	48 8b 55 a8          	mov    -0x58(%rbp),%rdx
    18003066:	8b 12                	mov    (%rdx),%edx
    18003068:	48 8d 0d 21 2d 40 00 	lea    0x402d21(%rip),%rcx        # 18405d90 <stderr>
    1800306f:	48 8b 39             	mov    (%rcx),%rdi
    18003072:	48 89 c1             	mov    %rax,%rcx
    18003075:	48 8d 35 12 d5 3f 00 	lea    0x3fd512(%rip),%rsi        # 1840058e <data_start+0x58e>
    1800307c:	b8 00 00 00 00       	mov    $0x0,%eax
    18003081:	e8 f8 fd 01 00       	callq  18022e7e <fprintf>
    18003086:	48 8d 05 03 2d 40 00 	lea    0x402d03(%rip),%rax        # 18405d90 <stderr>
    1800308d:	48 8b 08             	mov    (%rax),%rcx
    18003090:	48 8b 55 d8          	mov    -0x28(%rbp),%rdx
    18003094:	48 8b 45 e0          	mov    -0x20(%rbp),%rax
    18003098:	be 01 00 00 00       	mov    $0x1,%esi
    1800309d:	48 89 c7             	mov    %rax,%rdi
    180030a0:	e8 35 01 02 00       	callq  180231da <fwrite>
    180030a5:	48 8d 05 e4 2c 40 00 	lea    0x402ce4(%rip),%rax        # 18405d90 <stderr>
    180030ac:	48 8b 00             	mov    (%rax),%rax
    180030af:	48 89 c6             	mov    %rax,%rsi
    180030b2:	bf 0a 00 00 00       	mov    $0xa,%edi
    180030b7:	e8 51 fe 01 00       	callq  18022f0d <fputc>
    180030bc:	83 7d d4 00          	cmpl   $0x0,-0x2c(%rbp)
    180030c0:	74 4b                	je     1800310d <process_bin_get_or_touch+0x198>
    180030c2:	48 8b 45 a8          	mov    -0x58(%rbp),%rax
    180030c6:	48 89 c7             	mov    %rax,%rdi
    180030c9:	e8 b1 f1 ff ff       	callq  1800227f <binary_get_request>
    180030ce:	48 89 45 c0          	mov    %rax,-0x40(%rbp)
    180030d2:	48 8b 45 c0          	mov    -0x40(%rbp),%rax
    180030d6:	8b 40 18             	mov    0x18(%rax),%eax
    180030d9:	89 c7                	mov    %eax,%edi
    180030db:	e8 b8 e0 01 00       	callq  18021198 <ntohl>
    180030e0:	89 c0                	mov    %eax,%eax
    180030e2:	48 89 45 b8          	mov    %rax,-0x48(%rbp)
    180030e6:	48 8b 45 b8          	mov    -0x48(%rbp),%rax
    180030ea:	48 89 c7             	mov    %rax,%rdi
    180030ed:	e8 de d1 ff ff       	callq  180002d0 <realtime>
    180030f2:	89 c2                	mov    %eax,%edx
    180030f4:	48 8b 4d d8          	mov    -0x28(%rbp),%rcx
    180030f8:	48 8b 45 e0          	mov    -0x20(%rbp),%rax
    180030fc:	48 89 ce             	mov    %rcx,%rsi
    180030ff:	48 89 c7             	mov    %rax,%rdi
    18003102:	e8 98 31 01 00       	callq  1801629f <item_touch>
    18003107:	48 89 45 f8          	mov    %rax,-0x8(%rbp)
    1800310b:	eb 17                	jmp    18003124 <process_bin_get_or_touch+0x1af>
    1800310d:	48 8b 55 d8          	mov    -0x28(%rbp),%rdx
    18003111:	48 8b 45 e0          	mov    -0x20(%rbp),%rax
    18003115:	48 89 d6             	mov    %rdx,%rsi
    18003118:	48 89 c7             	mov    %rax,%rdi
    1800311b:	e8 1e 31 01 00       	callq  1801623e <item_get>
    18003120:	48 89 45 f8          	mov    %rax,-0x8(%rbp)
    18003124:	48 83 7d f8 00       	cmpq   $0x0,-0x8(%rbp)
    18003129:	0f 84 03 03 00 00    	je     18003432 <process_bin_get_or_touch+0x4bd>
    1800312f:	66 c7 45 f6 00 00    	movw   $0x0,-0xa(%rbp)
    18003135:	48 8b 45 f8          	mov    -0x8(%rbp),%rax
    18003139:	8b 40 20             	mov    0x20(%rax),%eax
    1800313c:	83 c0 02             	add    $0x2,%eax
    1800313f:	89 45 f0             	mov    %eax,-0x10(%rbp)
    18003142:	48 8b 45 f8          	mov    -0x8(%rbp),%rax
    18003146:	48 89 c7             	mov    %rax,%rdi
    18003149:	e8 57 33 01 00       	callq  180164a5 <item_update>
    1800314e:	48 8b 45 a8          	mov    -0x58(%rbp),%rax
    18003152:	48 8b 80 f8 01 00 00 	mov    0x1f8(%rax),%rax
    18003159:	48 05 98 00 00 00    	add    $0x98,%rax
    1800315f:	48 89 c7             	mov    %rax,%rdi
    18003162:	e8 4f 44 02 00       	callq  180275b6 <__pthread_mutex_lock>
    18003167:	83 7d d4 00          	cmpl   $0x0,-0x2c(%rbp)
    1800316b:	74 60                	je     180031cd <process_bin_get_or_touch+0x258>
    1800316d:	48 8b 45 a8          	mov    -0x58(%rbp),%rax
    18003171:	48 8b 80 f8 01 00 00 	mov    0x1f8(%rax),%rax
    18003178:	48 8b 90 d0 00 00 00 	mov    0xd0(%rax),%rdx
    1800317f:	48 83 c2 01          	add    $0x1,%rdx
    18003183:	48 89 90 d0 00 00 00 	mov    %rdx,0xd0(%rax)
    1800318a:	48 8b 45 a8          	mov    -0x58(%rbp),%rax
    1800318e:	48 8b 80 f8 01 00 00 	mov    0x1f8(%rax),%rax
    18003195:	48 8b 55 f8          	mov    -0x8(%rbp),%rdx
    18003199:	0f b6 52 28          	movzbl 0x28(%rdx),%edx
    1800319d:	0f b6 d2             	movzbl %dl,%edx
    180031a0:	48 63 ca             	movslq %edx,%rcx
    180031a3:	48 c1 e1 06          	shl    $0x6,%rcx
    180031a7:	48 01 c1             	add    %rax,%rcx
    180031aa:	48 81 c1 40 01 00 00 	add    $0x140,%rcx
    180031b1:	48 8b 09             	mov    (%rcx),%rcx
    180031b4:	48 83 c1 01          	add    $0x1,%rcx
    180031b8:	48 63 d2             	movslq %edx,%rdx
    180031bb:	48 c1 e2 06          	shl    $0x6,%rdx
    180031bf:	48 01 d0             	add    %rdx,%rax
    180031c2:	48 05 40 01 00 00    	add    $0x140,%rax
    180031c8:	48 89 08             	mov    %rcx,(%rax)
    180031cb:	eb 5e                	jmp    1800322b <process_bin_get_or_touch+0x2b6>
    180031cd:	48 8b 45 a8          	mov    -0x58(%rbp),%rax
    180031d1:	48 8b 80 f8 01 00 00 	mov    0x1f8(%rax),%rax
    180031d8:	48 8b 90 c0 00 00 00 	mov    0xc0(%rax),%rdx
    180031df:	48 83 c2 01          	add    $0x1,%rdx
    180031e3:	48 89 90 c0 00 00 00 	mov    %rdx,0xc0(%rax)
    180031ea:	48 8b 45 a8          	mov    -0x58(%rbp),%rax
    180031ee:	48 8b 80 f8 01 00 00 	mov    0x1f8(%rax),%rax
    180031f5:	48 8b 55 f8          	mov    -0x8(%rbp),%rdx
    180031f9:	0f b6 52 28          	movzbl 0x28(%rdx),%edx
    180031fd:	0f b6 d2             	movzbl %dl,%edx
    18003200:	48 63 ca             	movslq %edx,%rcx
    18003203:	48 c1 e1 06          	shl    $0x6,%rcx
    18003207:	48 01 c1             	add    %rax,%rcx
    1800320a:	48 81 c1 38 01 00 00 	add    $0x138,%rcx
    18003211:	48 8b 09             	mov    (%rcx),%rcx
    18003214:	48 83 c1 01          	add    $0x1,%rcx
    18003218:	48 63 d2             	movslq %edx,%rdx
    1800321b:	48 c1 e2 06          	shl    $0x6,%rdx
    1800321f:	48 01 d0             	add    %rdx,%rax
    18003222:	48 05 38 01 00 00    	add    $0x138,%rax
    18003228:	48 89 08             	mov    %rcx,(%rax)
    1800322b:	48 8b 45 a8          	mov    -0x58(%rbp),%rax
    1800322f:	48 8b 80 f8 01 00 00 	mov    0x1f8(%rax),%rax
    18003236:	48 05 98 00 00 00    	add    $0x98,%rax
    1800323c:	48 89 c7             	mov    %rax,%rdi
    1800323f:	e8 dd 45 02 00       	callq  18027821 <__pthread_mutex_unlock>
    18003244:	48 8b 45 a8          	mov    -0x58(%rbp),%rax
    18003248:	0f b7 80 e0 01 00 00 	movzwl 0x1e0(%rax),%eax
    1800324f:	66 83 f8 1c          	cmp    $0x1c,%ax
    18003253:	75 16                	jne    1800326b <process_bin_get_or_touch+0x2f6>
    18003255:	48 8b 45 f8          	mov    -0x8(%rbp),%rax
    18003259:	8b 40 20             	mov    0x20(%rax),%eax
    1800325c:	89 c2                	mov    %eax,%edx
    1800325e:	8b 45 f0             	mov    -0x10(%rbp),%eax
    18003261:	29 d0                	sub    %edx,%eax
    18003263:	83 c0 02             	add    $0x2,%eax
    18003266:	89 45 f0             	mov    %eax,-0x10(%rbp)
    18003269:	eb 15                	jmp    18003280 <process_bin_get_or_touch+0x30b>
    1800326b:	83 7d d0 00          	cmpl   $0x0,-0x30(%rbp)
    1800326f:	74 0f                	je     18003280 <process_bin_get_or_touch+0x30b>
    18003271:	48 8b 45 d8          	mov    -0x28(%rbp),%rax
    18003275:	01 45 f0             	add    %eax,-0x10(%rbp)
    18003278:	48 8b 45 d8          	mov    -0x28(%rbp),%rax
    1800327c:	66 89 45 f6          	mov    %ax,-0xa(%rbp)
    18003280:	0f b7 55 f6          	movzwl -0xa(%rbp),%edx
    18003284:	8b 4d f0             	mov    -0x10(%rbp),%ecx
    18003287:	48 8b 45 a8          	mov    -0x58(%rbp),%rax
    1800328b:	41 89 c8             	mov    %ecx,%r8d
    1800328e:	89 d1                	mov    %edx,%ecx
    18003290:	ba 04 00 00 00       	mov    $0x4,%edx
    18003295:	be 00 00 00 00       	mov    $0x0,%esi
    1800329a:	48 89 c7             	mov    %rax,%rdi
    1800329d:	e8 53 f0 ff ff       	callq  180022f5 <add_bin_header>
    180032a2:	48 8b 45 f8          	mov    -0x8(%rbp),%rax
    180032a6:	0f b6 40 27          	movzbl 0x27(%rax),%eax
    180032aa:	0f b6 c0             	movzbl %al,%eax
    180032ad:	83 e0 02             	and    $0x2,%eax
    180032b0:	85 c0                	test   %eax,%eax
    180032b2:	74 0a                	je     180032be <process_bin_get_or_touch+0x349>
    180032b4:	48 8b 45 f8          	mov    -0x8(%rbp),%rax
    180032b8:	48 8b 40 30          	mov    0x30(%rax),%rax
    180032bc:	eb 05                	jmp    180032c3 <process_bin_get_or_touch+0x34e>
    180032be:	b8 00 00 00 00       	mov    $0x0,%eax
    180032c3:	48 89 c7             	mov    %rax,%rdi
    180032c6:	e8 8f 4f 01 00       	callq  1801825a <htonll>
    180032cb:	48 89 c2             	mov    %rax,%rdx
    180032ce:	48 8b 45 e8          	mov    -0x18(%rbp),%rax
    180032d2:	48 89 50 10          	mov    %rdx,0x10(%rax)
    180032d6:	48 8b 45 f8          	mov    -0x8(%rbp),%rax
    180032da:	48 8d 48 30          	lea    0x30(%rax),%rcx
    180032de:	48 8b 45 f8          	mov    -0x8(%rbp),%rax
    180032e2:	0f b6 40 29          	movzbl 0x29(%rax),%eax
    180032e6:	0f b6 d0             	movzbl %al,%edx
    180032e9:	48 8b 45 f8          	mov    -0x8(%rbp),%rax
    180032ed:	0f b6 40 27          	movzbl 0x27(%rax),%eax
    180032f1:	0f b6 c0             	movzbl %al,%eax
    180032f4:	83 e0 02             	and    $0x2,%eax
    180032f7:	85 c0                	test   %eax,%eax
    180032f9:	74 07                	je     18003302 <process_bin_get_or_touch+0x38d>
    180032fb:	b8 08 00 00 00       	mov    $0x8,%eax
    18003300:	eb 05                	jmp    18003307 <process_bin_get_or_touch+0x392>
    18003302:	b8 00 00 00 00       	mov    $0x0,%eax
    18003307:	48 01 d0             	add    %rdx,%rax
    1800330a:	48 83 c0 01          	add    $0x1,%rax
    1800330e:	48 01 c8             	add    %rcx,%rax
    18003311:	ba 0a 00 00 00       	mov    $0xa,%edx
    18003316:	be 00 00 00 00       	mov    $0x0,%esi
    1800331b:	48 89 c7             	mov    %rax,%rdi
    1800331e:	e8 de 27 02 00       	callq  18025b01 <strtoul>
    18003323:	89 c7                	mov    %eax,%edi
    18003325:	e8 21 cd 01 00       	callq  1802004b <htonl>
    1800332a:	89 c2                	mov    %eax,%edx
    1800332c:	48 8b 45 e8          	mov    -0x18(%rbp),%rax
    18003330:	89 50 18             	mov    %edx,0x18(%rax)
    18003333:	48 8b 45 e8          	mov    -0x18(%rbp),%rax
    18003337:	48 8d 48 18          	lea    0x18(%rax),%rcx
    1800333b:	48 8b 45 a8          	mov    -0x58(%rbp),%rax
    1800333f:	ba 04 00 00 00       	mov    $0x4,%edx
    18003344:	48 89 ce             	mov    %rcx,%rsi
    18003347:	48 89 c7             	mov    %rax,%rdi
    1800334a:	e8 a4 e6 ff ff       	callq  180019f3 <add_iov>
    1800334f:	83 7d d0 00          	cmpl   $0x0,-0x30(%rbp)
    18003353:	74 41                	je     18003396 <process_bin_get_or_touch+0x421>
    18003355:	48 8b 45 d8          	mov    -0x28(%rbp),%rax
    18003359:	89 c6                	mov    %eax,%esi
    1800335b:	48 8b 45 f8          	mov    -0x8(%rbp),%rax
    1800335f:	48 8d 50 30          	lea    0x30(%rax),%rdx
    18003363:	48 8b 45 f8          	mov    -0x8(%rbp),%rax
    18003367:	0f b6 40 27          	movzbl 0x27(%rax),%eax
    1800336b:	0f b6 c0             	movzbl %al,%eax
    1800336e:	83 e0 02             	and    $0x2,%eax
    18003371:	85 c0                	test   %eax,%eax
    18003373:	74 07                	je     1800337c <process_bin_get_or_touch+0x407>
    18003375:	b8 08 00 00 00       	mov    $0x8,%eax
    1800337a:	eb 05                	jmp    18003381 <process_bin_get_or_touch+0x40c>
    1800337c:	b8 00 00 00 00       	mov    $0x0,%eax
    18003381:	48 8d 0c 02          	lea    (%rdx,%rax,1),%rcx
    18003385:	48 8b 45 a8          	mov    -0x58(%rbp),%rax
    18003389:	89 f2                	mov    %esi,%edx
    1800338b:	48 89 ce             	mov    %rcx,%rsi
    1800338e:	48 89 c7             	mov    %rax,%rdi
    18003391:	e8 5d e6 ff ff       	callq  180019f3 <add_iov>
    18003396:	83 7d cc 00          	cmpl   $0x0,-0x34(%rbp)
    1800339a:	74 63                	je     180033ff <process_bin_get_or_touch+0x48a>
    1800339c:	48 8b 45 f8          	mov    -0x8(%rbp),%rax
    180033a0:	8b 40 20             	mov    0x20(%rax),%eax
    180033a3:	8d 50 fe             	lea    -0x2(%rax),%edx
    180033a6:	48 8b 45 f8          	mov    -0x8(%rbp),%rax
    180033aa:	48 8d 70 30          	lea    0x30(%rax),%rsi
    180033ae:	48 8b 45 f8          	mov    -0x8(%rbp),%rax
    180033b2:	0f b6 40 29          	movzbl 0x29(%rax),%eax
    180033b6:	0f b6 c8             	movzbl %al,%ecx
    180033b9:	48 8b 45 f8          	mov    -0x8(%rbp),%rax
    180033bd:	0f b6 40 26          	movzbl 0x26(%rax),%eax
    180033c1:	0f b6 c0             	movzbl %al,%eax
    180033c4:	48 01 c1             	add    %rax,%rcx
    180033c7:	48 8b 45 f8          	mov    -0x8(%rbp),%rax
    180033cb:	0f b6 40 27          	movzbl 0x27(%rax),%eax
    180033cf:	0f b6 c0             	movzbl %al,%eax
    180033d2:	83 e0 02             	and    $0x2,%eax
    180033d5:	85 c0                	test   %eax,%eax
    180033d7:	74 07                	je     180033e0 <process_bin_get_or_touch+0x46b>
    180033d9:	b8 08 00 00 00       	mov    $0x8,%eax
    180033de:	eb 05                	jmp    180033e5 <process_bin_get_or_touch+0x470>
    180033e0:	b8 00 00 00 00       	mov    $0x0,%eax
    180033e5:	48 01 c8             	add    %rcx,%rax
    180033e8:	48 83 c0 01          	add    $0x1,%rax
    180033ec:	48 8d 0c 06          	lea    (%rsi,%rax,1),%rcx
    180033f0:	48 8b 45 a8          	mov    -0x58(%rbp),%rax
    180033f4:	48 89 ce             	mov    %rcx,%rsi
    180033f7:	48 89 c7             	mov    %rax,%rdi
    180033fa:	e8 f4 e5 ff ff       	callq  180019f3 <add_iov>
    180033ff:	48 8b 45 a8          	mov    -0x58(%rbp),%rax
    18003403:	be 09 00 00 00       	mov    $0x9,%esi
    18003408:	48 89 c7             	mov    %rax,%rdi
    1800340b:	e8 1b e4 ff ff       	callq  1800182b <conn_set_state>
    18003410:	48 8b 45 a8          	mov    -0x58(%rbp),%rax
    18003414:	c7 80 d8 00 00 00 01 	movl   $0x1,0xd8(%rax)
    1800341b:	00 00 00 
    1800341e:	48 8b 45 a8          	mov    -0x58(%rbp),%rax
    18003422:	48 8b 55 f8          	mov    -0x8(%rbp),%rdx
    18003426:	48 89 90 f8 00 00 00 	mov    %rdx,0xf8(%rax)
    1800342d:	e9 84 01 00 00       	jmpq   180035b6 <process_bin_get_or_touch+0x641>
    18003432:	48 8b 45 a8          	mov    -0x58(%rbp),%rax
    18003436:	48 8b 80 f8 01 00 00 	mov    0x1f8(%rax),%rax
    1800343d:	48 05 98 00 00 00    	add    $0x98,%rax
    18003443:	48 89 c7             	mov    %rax,%rdi
    18003446:	e8 6b 41 02 00       	callq  180275b6 <__pthread_mutex_lock>
    1800344b:	83 7d d4 00          	cmpl   $0x0,-0x2c(%rbp)
    1800344f:	74 3c                	je     1800348d <process_bin_get_or_touch+0x518>
    18003451:	48 8b 45 a8          	mov    -0x58(%rbp),%rax
    18003455:	48 8b 80 f8 01 00 00 	mov    0x1f8(%rax),%rax
    1800345c:	48 8b 90 d0 00 00 00 	mov    0xd0(%rax),%rdx
    18003463:	48 83 c2 01          	add    $0x1,%rdx
    18003467:	48 89 90 d0 00 00 00 	mov    %rdx,0xd0(%rax)
    1800346e:	48 8b 45 a8          	mov    -0x58(%rbp),%rax
    18003472:	48 8b 80 f8 01 00 00 	mov    0x1f8(%rax),%rax
    18003479:	48 8b 90 d8 00 00 00 	mov    0xd8(%rax),%rdx
    18003480:	48 83 c2 01          	add    $0x1,%rdx
    18003484:	48 89 90 d8 00 00 00 	mov    %rdx,0xd8(%rax)
    1800348b:	eb 3a                	jmp    180034c7 <process_bin_get_or_touch+0x552>
    1800348d:	48 8b 45 a8          	mov    -0x58(%rbp),%rax
    18003491:	48 8b 80 f8 01 00 00 	mov    0x1f8(%rax),%rax
    18003498:	48 8b 90 c0 00 00 00 	mov    0xc0(%rax),%rdx
    1800349f:	48 83 c2 01          	add    $0x1,%rdx
    180034a3:	48 89 90 c0 00 00 00 	mov    %rdx,0xc0(%rax)
    180034aa:	48 8b 45 a8          	mov    -0x58(%rbp),%rax
    180034ae:	48 8b 80 f8 01 00 00 	mov    0x1f8(%rax),%rax
    180034b5:	48 8b 90 c8 00 00 00 	mov    0xc8(%rax),%rdx
    180034bc:	48 83 c2 01          	add    $0x1,%rdx
    180034c0:	48 89 90 c8 00 00 00 	mov    %rdx,0xc8(%rax)
    180034c7:	48 8b 45 a8          	mov    -0x58(%rbp),%rax
    180034cb:	48 8b 80 f8 01 00 00 	mov    0x1f8(%rax),%rax
    180034d2:	48 05 98 00 00 00    	add    $0x98,%rax
    180034d8:	48 89 c7             	mov    %rax,%rdi
    180034db:	e8 41 43 02 00       	callq  18027821 <__pthread_mutex_unlock>
    180034e0:	48 8b 45 a8          	mov    -0x58(%rbp),%rax
    180034e4:	0f b6 80 a4 01 00 00 	movzbl 0x1a4(%rax),%eax
    180034eb:	84 c0                	test   %al,%al
    180034ed:	74 16                	je     18003505 <process_bin_get_or_touch+0x590>
    180034ef:	48 8b 45 a8          	mov    -0x58(%rbp),%rax
    180034f3:	be 01 00 00 00       	mov    $0x1,%esi
    180034f8:	48 89 c7             	mov    %rax,%rdi
    180034fb:	e8 2b e3 ff ff       	callq  1800182b <conn_set_state>
    18003500:	e9 b1 00 00 00       	jmpq   180035b6 <process_bin_get_or_touch+0x641>
    18003505:	83 7d d0 00          	cmpl   $0x0,-0x30(%rbp)
    18003509:	0f 84 8c 00 00 00    	je     1800359b <process_bin_get_or_touch+0x626>
    1800350f:	48 8b 45 a8          	mov    -0x58(%rbp),%rax
    18003513:	48 8b 80 c0 00 00 00 	mov    0xc0(%rax),%rax
    1800351a:	48 83 c0 18          	add    $0x18,%rax
    1800351e:	48 89 45 b0          	mov    %rax,-0x50(%rbp)
    18003522:	48 8b 45 d8          	mov    -0x28(%rbp),%rax
    18003526:	89 c1                	mov    %eax,%ecx
    18003528:	48 8b 45 d8          	mov    -0x28(%rbp),%rax
    1800352c:	0f b7 d0             	movzwl %ax,%edx
    1800352f:	48 8b 45 a8          	mov    -0x58(%rbp),%rax
    18003533:	41 89 c8             	mov    %ecx,%r8d
    18003536:	89 d1                	mov    %edx,%ecx
    18003538:	ba 00 00 00 00       	mov    $0x0,%edx
    1800353d:	be 01 00 00 00       	mov    $0x1,%esi
    18003542:	48 89 c7             	mov    %rax,%rdi
    18003545:	e8 ab ed ff ff       	callq  180022f5 <add_bin_header>
    1800354a:	48 8b 55 d8          	mov    -0x28(%rbp),%rdx
    1800354e:	48 8b 4d e0          	mov    -0x20(%rbp),%rcx
    18003552:	48 8b 45 b0          	mov    -0x50(%rbp),%rax
    18003556:	48 89 ce             	mov    %rcx,%rsi
    18003559:	48 89 c7             	mov    %rax,%rdi
    1800355c:	e8 b6 30 02 00       	callq  18026617 <memcpy>
    18003561:	48 8b 45 d8          	mov    -0x28(%rbp),%rax
    18003565:	89 c2                	mov    %eax,%edx
    18003567:	48 8b 4d b0          	mov    -0x50(%rbp),%rcx
    1800356b:	48 8b 45 a8          	mov    -0x58(%rbp),%rax
    1800356f:	48 89 ce             	mov    %rcx,%rsi
    18003572:	48 89 c7             	mov    %rax,%rdi
    18003575:	e8 79 e4 ff ff       	callq  180019f3 <add_iov>
    1800357a:	48 8b 45 a8          	mov    -0x58(%rbp),%rax
    1800357e:	be 09 00 00 00       	mov    $0x9,%esi
    18003583:	48 89 c7             	mov    %rax,%rdi
    18003586:	e8 a0 e2 ff ff       	callq  1800182b <conn_set_state>
    1800358b:	48 8b 45 a8          	mov    -0x58(%rbp),%rax
    1800358f:	c7 80 d8 00 00 00 01 	movl   $0x1,0xd8(%rax)
    18003596:	00 00 00 
    18003599:	eb 1b                	jmp    180035b6 <process_bin_get_or_touch+0x641>
    1800359b:	48 8b 45 a8          	mov    -0x58(%rbp),%rax
    1800359f:	b9 00 00 00 00       	mov    $0x0,%ecx
    180035a4:	ba 00 00 00 00       	mov    $0x0,%edx
    180035a9:	be 01 00 00 00       	mov    $0x1,%esi
    180035ae:	48 89 c7             	mov    %rax,%rdi
    180035b1:	e8 37 ef ff ff       	callq  180024ed <write_bin_error>
    180035b6:	48 8d 05 43 21 41 00 	lea    0x412143(%rip),%rax        # 18415700 <settings>
    180035bd:	8b 40 58             	mov    0x58(%rax),%eax
    180035c0:	85 c0                	test   %eax,%eax
    180035c2:	74 1e                	je     180035e2 <process_bin_get_or_touch+0x66d>
    180035c4:	48 83 7d f8 00       	cmpq   $0x0,-0x8(%rbp)
    180035c9:	0f 95 c0             	setne  %al
    180035cc:	0f b6 d0             	movzbl %al,%edx
    180035cf:	48 8b 4d d8          	mov    -0x28(%rbp),%rcx
    180035d3:	48 8b 45 e0          	mov    -0x20(%rbp),%rax
    180035d7:	48 89 ce             	mov    %rcx,%rsi
    180035da:	48 89 c7             	mov    %rax,%rdi
    180035dd:	e8 54 45 01 00       	callq  18017b36 <stats_prefix_record_get>
    180035e2:	90                   	nop
    180035e3:	c9                   	leaveq 
    180035e4:	c3                   	retq   

00000000180035e5 <append_bin_stats>:
    180035e5:	55                   	push   %rbp
    180035e6:	48 89 e5             	mov    %rsp,%rbp
    180035e9:	48 83 ec 50          	sub    $0x50,%rsp
    180035ed:	48 89 7d c8          	mov    %rdi,-0x38(%rbp)
    180035f1:	89 f0                	mov    %esi,%eax
    180035f3:	48 89 55 b8          	mov    %rdx,-0x48(%rbp)
    180035f7:	89 4d c0             	mov    %ecx,-0x40(%rbp)
    180035fa:	4c 89 45 b0          	mov    %r8,-0x50(%rbp)
    180035fe:	66 89 45 c4          	mov    %ax,-0x3c(%rbp)
    18003602:	48 8b 45 b0          	mov    -0x50(%rbp),%rax
    18003606:	48 8b 90 a8 01 00 00 	mov    0x1a8(%rax),%rdx
    1800360d:	48 8b 45 b0          	mov    -0x50(%rbp),%rax
    18003611:	48 8b 80 b8 01 00 00 	mov    0x1b8(%rax),%rax
    18003618:	48 01 d0             	add    %rdx,%rax
    1800361b:	48 89 45 f8          	mov    %rax,-0x8(%rbp)
    1800361f:	0f b7 55 c4          	movzwl -0x3c(%rbp),%edx
    18003623:	8b 45 c0             	mov    -0x40(%rbp),%eax
    18003626:	01 d0                	add    %edx,%eax
    18003628:	89 45 f4             	mov    %eax,-0xc(%rbp)
    1800362b:	48 c7 45 d0 00 00 00 	movq   $0x0,-0x30(%rbp)
    18003632:	00 
    18003633:	48 c7 45 d8 00 00 00 	movq   $0x0,-0x28(%rbp)
    1800363a:	00 
    1800363b:	48 c7 45 e0 00 00 00 	movq   $0x0,-0x20(%rbp)
    18003642:	00 
    18003643:	c6 45 d0 81          	movb   $0x81,-0x30(%rbp)
    18003647:	c6 45 d1 10          	movb   $0x10,-0x2f(%rbp)
    1800364b:	0f b7 45 c4          	movzwl -0x3c(%rbp),%eax
    1800364f:	89 c7                	mov    %eax,%edi
    18003651:	e8 fa c9 01 00       	callq  18020050 <htons>
    18003656:	66 89 45 d2          	mov    %ax,-0x2e(%rbp)
    1800365a:	8b 45 f4             	mov    -0xc(%rbp),%eax
    1800365d:	89 c7                	mov    %eax,%edi
    1800365f:	e8 e7 c9 01 00       	callq  1802004b <htonl>
    18003664:	89 45 d8             	mov    %eax,-0x28(%rbp)
    18003667:	48 8b 45 b0          	mov    -0x50(%rbp),%rax
    1800366b:	8b 80 e4 01 00 00    	mov    0x1e4(%rax),%eax
    18003671:	89 45 dc             	mov    %eax,-0x24(%rbp)
    18003674:	48 8b 45 f8          	mov    -0x8(%rbp),%rax
    18003678:	48 8b 55 d0          	mov    -0x30(%rbp),%rdx
    1800367c:	48 89 10             	mov    %rdx,(%rax)
    1800367f:	48 8b 55 d8          	mov    -0x28(%rbp),%rdx
    18003683:	48 89 50 08          	mov    %rdx,0x8(%rax)
    18003687:	48 8b 55 e0          	mov    -0x20(%rbp),%rdx
    1800368b:	48 89 50 10          	mov    %rdx,0x10(%rax)
    1800368f:	48 83 45 f8 18       	addq   $0x18,-0x8(%rbp)
    18003694:	66 83 7d c4 00       	cmpw   $0x0,-0x3c(%rbp)
    18003699:	74 3b                	je     180036d6 <append_bin_stats+0xf1>
    1800369b:	0f b7 55 c4          	movzwl -0x3c(%rbp),%edx
    1800369f:	48 8b 4d c8          	mov    -0x38(%rbp),%rcx
    180036a3:	48 8b 45 f8          	mov    -0x8(%rbp),%rax
    180036a7:	48 89 ce             	mov    %rcx,%rsi
    180036aa:	48 89 c7             	mov    %rax,%rdi
    180036ad:	e8 65 2f 02 00       	callq  18026617 <memcpy>
    180036b2:	0f b7 45 c4          	movzwl -0x3c(%rbp),%eax
    180036b6:	48 01 45 f8          	add    %rax,-0x8(%rbp)
    180036ba:	83 7d c0 00          	cmpl   $0x0,-0x40(%rbp)
    180036be:	74 16                	je     180036d6 <append_bin_stats+0xf1>
    180036c0:	8b 55 c0             	mov    -0x40(%rbp),%edx
    180036c3:	48 8b 4d b8          	mov    -0x48(%rbp),%rcx
    180036c7:	48 8b 45 f8          	mov    -0x8(%rbp),%rax
    180036cb:	48 89 ce             	mov    %rcx,%rsi
    180036ce:	48 89 c7             	mov    %rax,%rdi
    180036d1:	e8 41 2f 02 00       	callq  18026617 <memcpy>
    180036d6:	48 8b 45 b0          	mov    -0x50(%rbp),%rax
    180036da:	48 8b 90 b8 01 00 00 	mov    0x1b8(%rax),%rdx
    180036e1:	8b 45 f4             	mov    -0xc(%rbp),%eax
    180036e4:	48 01 d0             	add    %rdx,%rax
    180036e7:	48 8d 50 18          	lea    0x18(%rax),%rdx
    180036eb:	48 8b 45 b0          	mov    -0x50(%rbp),%rax
    180036ef:	48 89 90 b8 01 00 00 	mov    %rdx,0x1b8(%rax)
    180036f6:	90                   	nop
    180036f7:	c9                   	leaveq 
    180036f8:	c3                   	retq   

00000000180036f9 <append_ascii_stats>:
    180036f9:	55                   	push   %rbp
    180036fa:	48 89 e5             	mov    %rsp,%rbp
    180036fd:	48 83 ec 40          	sub    $0x40,%rsp
    18003701:	48 89 7d d8          	mov    %rdi,-0x28(%rbp)
    18003705:	89 f0                	mov    %esi,%eax
    18003707:	48 89 55 c8          	mov    %rdx,-0x38(%rbp)
    1800370b:	89 4d d0             	mov    %ecx,-0x30(%rbp)
    1800370e:	4c 89 45 c0          	mov    %r8,-0x40(%rbp)
    18003712:	66 89 45 d4          	mov    %ax,-0x2c(%rbp)
    18003716:	48 8b 45 c0          	mov    -0x40(%rbp),%rax
    1800371a:	48 8b 90 a8 01 00 00 	mov    0x1a8(%rax),%rdx
    18003721:	48 8b 45 c0          	mov    -0x40(%rbp),%rax
    18003725:	48 8b 80 b8 01 00 00 	mov    0x1b8(%rax),%rax
    1800372c:	48 01 d0             	add    %rdx,%rax
    1800372f:	48 89 45 f0          	mov    %rax,-0x10(%rbp)
    18003733:	c7 45 fc 00 00 00 00 	movl   $0x0,-0x4(%rbp)
    1800373a:	48 8b 45 c0          	mov    -0x40(%rbp),%rax
    1800373e:	48 8b 80 b0 01 00 00 	mov    0x1b0(%rax),%rax
    18003745:	89 c2                	mov    %eax,%edx
    18003747:	48 8b 45 c0          	mov    -0x40(%rbp),%rax
    1800374b:	48 8b 80 b8 01 00 00 	mov    0x1b8(%rax),%rax
    18003752:	29 c2                	sub    %eax,%edx
    18003754:	89 d0                	mov    %edx,%eax
    18003756:	89 45 ec             	mov    %eax,-0x14(%rbp)
    18003759:	8b 45 ec             	mov    -0x14(%rbp),%eax
    1800375c:	83 e8 01             	sub    $0x1,%eax
    1800375f:	89 45 e8             	mov    %eax,-0x18(%rbp)
    18003762:	66 83 7d d4 00       	cmpw   $0x0,-0x2c(%rbp)
    18003767:	75 2c                	jne    18003795 <append_ascii_stats+0x9c>
    18003769:	83 7d d0 00          	cmpl   $0x0,-0x30(%rbp)
    1800376d:	75 26                	jne    18003795 <append_ascii_stats+0x9c>
    1800376f:	8b 45 e8             	mov    -0x18(%rbp),%eax
    18003772:	48 63 c8             	movslq %eax,%rcx
    18003775:	48 8b 45 f0          	mov    -0x10(%rbp),%rax
    18003779:	48 8d 15 16 ce 3f 00 	lea    0x3fce16(%rip),%rdx        # 18400596 <data_start+0x596>
    18003780:	48 89 ce             	mov    %rcx,%rsi
    18003783:	48 89 c7             	mov    %rax,%rdi
    18003786:	b8 00 00 00 00       	mov    $0x0,%eax
    1800378b:	e8 36 fe 01 00       	callq  180235c6 <snprintf>
    18003790:	89 45 fc             	mov    %eax,-0x4(%rbp)
    18003793:	eb 5f                	jmp    180037f4 <append_ascii_stats+0xfb>
    18003795:	83 7d d0 00          	cmpl   $0x0,-0x30(%rbp)
    18003799:	75 2a                	jne    180037c5 <append_ascii_stats+0xcc>
    1800379b:	8b 45 e8             	mov    -0x18(%rbp),%eax
    1800379e:	48 63 f0             	movslq %eax,%rsi
    180037a1:	48 8b 55 d8          	mov    -0x28(%rbp),%rdx
    180037a5:	48 8b 45 f0          	mov    -0x10(%rbp),%rax
    180037a9:	48 89 d1             	mov    %rdx,%rcx
    180037ac:	48 8d 15 e9 cd 3f 00 	lea    0x3fcde9(%rip),%rdx        # 1840059c <data_start+0x59c>
    180037b3:	48 89 c7             	mov    %rax,%rdi
    180037b6:	b8 00 00 00 00       	mov    $0x0,%eax
    180037bb:	e8 06 fe 01 00       	callq  180235c6 <snprintf>
    180037c0:	89 45 fc             	mov    %eax,-0x4(%rbp)
    180037c3:	eb 2f                	jmp    180037f4 <append_ascii_stats+0xfb>
    180037c5:	8b 45 e8             	mov    -0x18(%rbp),%eax
    180037c8:	48 63 f0             	movslq %eax,%rsi
    180037cb:	48 8b 4d c8          	mov    -0x38(%rbp),%rcx
    180037cf:	48 8b 55 d8          	mov    -0x28(%rbp),%rdx
    180037d3:	48 8b 45 f0          	mov    -0x10(%rbp),%rax
    180037d7:	49 89 c8             	mov    %rcx,%r8
    180037da:	48 89 d1             	mov    %rdx,%rcx
    180037dd:	48 8d 15 c2 cd 3f 00 	lea    0x3fcdc2(%rip),%rdx        # 184005a6 <data_start+0x5a6>
    180037e4:	48 89 c7             	mov    %rax,%rdi
    180037e7:	b8 00 00 00 00       	mov    $0x0,%eax
    180037ec:	e8 d5 fd 01 00       	callq  180235c6 <snprintf>
    180037f1:	89 45 fc             	mov    %eax,-0x4(%rbp)
    180037f4:	48 8b 45 c0          	mov    -0x40(%rbp),%rax
    180037f8:	48 8b 90 b8 01 00 00 	mov    0x1b8(%rax),%rdx
    180037ff:	8b 45 fc             	mov    -0x4(%rbp),%eax
    18003802:	48 01 c2             	add    %rax,%rdx
    18003805:	48 8b 45 c0          	mov    -0x40(%rbp),%rax
    18003809:	48 89 90 b8 01 00 00 	mov    %rdx,0x1b8(%rax)
    18003810:	90                   	nop
    18003811:	c9                   	leaveq 
    18003812:	c3                   	retq   

0000000018003813 <grow_stats_buf>:
    18003813:	55                   	push   %rbp
    18003814:	48 89 e5             	mov    %rsp,%rbp
    18003817:	48 83 ec 30          	sub    $0x30,%rsp
    1800381b:	48 89 7d d8          	mov    %rdi,-0x28(%rbp)
    1800381f:	48 89 75 d0          	mov    %rsi,-0x30(%rbp)
    18003823:	48 8b 45 d8          	mov    -0x28(%rbp),%rax
    18003827:	48 8b 80 b0 01 00 00 	mov    0x1b0(%rax),%rax
    1800382e:	48 89 45 f8          	mov    %rax,-0x8(%rbp)
    18003832:	48 8b 45 d8          	mov    -0x28(%rbp),%rax
    18003836:	48 8b 80 b8 01 00 00 	mov    0x1b8(%rax),%rax
    1800383d:	48 8b 55 f8          	mov    -0x8(%rbp),%rdx
    18003841:	48 29 c2             	sub    %rax,%rdx
    18003844:	48 89 d0             	mov    %rdx,%rax
    18003847:	48 89 45 f0          	mov    %rax,-0x10(%rbp)
    1800384b:	c6 45 ef 01          	movb   $0x1,-0x11(%rbp)
    1800384f:	48 8b 45 d8          	mov    -0x28(%rbp),%rax
    18003853:	48 8b 80 a8 01 00 00 	mov    0x1a8(%rax),%rax
    1800385a:	48 85 c0             	test   %rax,%rax
    1800385d:	75 5b                	jne    180038ba <grow_stats_buf+0xa7>
    1800385f:	48 c7 45 f8 00 04 00 	movq   $0x400,-0x8(%rbp)
    18003866:	00 
    18003867:	48 8b 45 d8          	mov    -0x28(%rbp),%rax
    1800386b:	48 c7 80 b8 01 00 00 	movq   $0x0,0x1b8(%rax)
    18003872:	00 00 00 00 
    18003876:	48 8b 45 d8          	mov    -0x28(%rbp),%rax
    1800387a:	48 8b 90 b8 01 00 00 	mov    0x1b8(%rax),%rdx
    18003881:	48 8b 45 d8          	mov    -0x28(%rbp),%rax
    18003885:	48 89 90 b0 01 00 00 	mov    %rdx,0x1b0(%rax)
    1800388c:	48 8b 45 d8          	mov    -0x28(%rbp),%rax
    18003890:	48 8b 80 b0 01 00 00 	mov    0x1b0(%rax),%rax
    18003897:	48 89 45 f0          	mov    %rax,-0x10(%rbp)
    1800389b:	eb 1d                	jmp    180038ba <grow_stats_buf+0xa7>
    1800389d:	48 d1 65 f8          	shlq   -0x8(%rbp)
    180038a1:	48 8b 45 d8          	mov    -0x28(%rbp),%rax
    180038a5:	48 8b 80 b8 01 00 00 	mov    0x1b8(%rax),%rax
    180038ac:	48 8b 55 f8          	mov    -0x8(%rbp),%rdx
    180038b0:	48 29 c2             	sub    %rax,%rdx
    180038b3:	48 89 d0             	mov    %rdx,%rax
    180038b6:	48 89 45 f0          	mov    %rax,-0x10(%rbp)
    180038ba:	48 8b 45 d0          	mov    -0x30(%rbp),%rax
    180038be:	48 3b 45 f0          	cmp    -0x10(%rbp),%rax
    180038c2:	77 d9                	ja     1800389d <grow_stats_buf+0x8a>
    180038c4:	48 8b 45 d8          	mov    -0x28(%rbp),%rax
    180038c8:	48 8b 80 b0 01 00 00 	mov    0x1b0(%rax),%rax
    180038cf:	48 3b 45 f8          	cmp    -0x8(%rbp),%rax
    180038d3:	74 6d                	je     18003942 <grow_stats_buf+0x12f>
    180038d5:	48 8b 45 d8          	mov    -0x28(%rbp),%rax
    180038d9:	48 8b 80 a8 01 00 00 	mov    0x1a8(%rax),%rax
    180038e0:	48 8b 55 f8          	mov    -0x8(%rbp),%rdx
    180038e4:	48 89 d6             	mov    %rdx,%rsi
    180038e7:	48 89 c7             	mov    %rax,%rdi
    180038ea:	e8 01 b9 01 00       	callq  1801f1f0 <realloc>
    180038ef:	48 89 45 e0          	mov    %rax,-0x20(%rbp)
    180038f3:	48 83 7d e0 00       	cmpq   $0x0,-0x20(%rbp)
    180038f8:	74 20                	je     1800391a <grow_stats_buf+0x107>
    180038fa:	48 8b 45 d8          	mov    -0x28(%rbp),%rax
    180038fe:	48 8b 55 e0          	mov    -0x20(%rbp),%rdx
    18003902:	48 89 90 a8 01 00 00 	mov    %rdx,0x1a8(%rax)
    18003909:	48 8b 45 d8          	mov    -0x28(%rbp),%rax
    1800390d:	48 8b 55 f8          	mov    -0x8(%rbp),%rdx
    18003911:	48 89 90 b0 01 00 00 	mov    %rdx,0x1b0(%rax)
    18003918:	eb 28                	jmp    18003942 <grow_stats_buf+0x12f>
    1800391a:	e8 58 2e 01 00       	callq  18016777 <STATS_LOCK>
    1800391f:	48 8d 05 9a 1e 41 00 	lea    0x411e9a(%rip),%rax        # 184157c0 <stats>
    18003926:	48 8b 40 48          	mov    0x48(%rax),%rax
    1800392a:	48 8d 50 01          	lea    0x1(%rax),%rdx
    1800392e:	48 8d 05 8b 1e 41 00 	lea    0x411e8b(%rip),%rax        # 184157c0 <stats>
    18003935:	48 89 50 48          	mov    %rdx,0x48(%rax)
    18003939:	e8 4c 2e 01 00       	callq  1801678a <STATS_UNLOCK>
    1800393e:	c6 45 ef 00          	movb   $0x0,-0x11(%rbp)
    18003942:	0f b6 45 ef          	movzbl -0x11(%rbp),%eax
    18003946:	c9                   	leaveq 
    18003947:	c3                   	retq   

0000000018003948 <append_stats>:
    18003948:	55                   	push   %rbp
    18003949:	48 89 e5             	mov    %rsp,%rbp
    1800394c:	48 83 ec 40          	sub    $0x40,%rsp
    18003950:	48 89 7d d8          	mov    %rdi,-0x28(%rbp)
    18003954:	89 f0                	mov    %esi,%eax
    18003956:	48 89 55 c8          	mov    %rdx,-0x38(%rbp)
    1800395a:	89 4d d0             	mov    %ecx,-0x30(%rbp)
    1800395d:	4c 89 45 c0          	mov    %r8,-0x40(%rbp)
    18003961:	66 89 45 d4          	mov    %ax,-0x2c(%rbp)
    18003965:	66 83 7d d4 00       	cmpw   $0x0,-0x2c(%rbp)
    1800396a:	75 0a                	jne    18003976 <append_stats+0x2e>
    1800396c:	83 7d d0 00          	cmpl   $0x0,-0x30(%rbp)
    18003970:	0f 85 b0 00 00 00    	jne    18003a26 <append_stats+0xde>
    18003976:	48 8b 45 c0          	mov    -0x40(%rbp),%rax
    1800397a:	48 89 45 f8          	mov    %rax,-0x8(%rbp)
    1800397e:	48 8b 45 f8          	mov    -0x8(%rbp),%rax
    18003982:	8b 80 6c 01 00 00    	mov    0x16c(%rax),%eax
    18003988:	83 f8 04             	cmp    $0x4,%eax
    1800398b:	75 4d                	jne    180039da <append_stats+0x92>
    1800398d:	0f b7 55 d4          	movzwl -0x2c(%rbp),%edx
    18003991:	8b 45 d0             	mov    -0x30(%rbp),%eax
    18003994:	01 d0                	add    %edx,%eax
    18003996:	89 c0                	mov    %eax,%eax
    18003998:	48 83 c0 18          	add    $0x18,%rax
    1800399c:	48 89 45 f0          	mov    %rax,-0x10(%rbp)
    180039a0:	48 8b 55 f0          	mov    -0x10(%rbp),%rdx
    180039a4:	48 8b 45 f8          	mov    -0x8(%rbp),%rax
    180039a8:	48 89 d6             	mov    %rdx,%rsi
    180039ab:	48 89 c7             	mov    %rax,%rdi
    180039ae:	e8 60 fe ff ff       	callq  18003813 <grow_stats_buf>
    180039b3:	83 f0 01             	xor    $0x1,%eax
    180039b6:	84 c0                	test   %al,%al
    180039b8:	75 6f                	jne    18003a29 <append_stats+0xe1>
    180039ba:	0f b7 75 d4          	movzwl -0x2c(%rbp),%esi
    180039be:	48 8b 7d f8          	mov    -0x8(%rbp),%rdi
    180039c2:	8b 4d d0             	mov    -0x30(%rbp),%ecx
    180039c5:	48 8b 55 c8          	mov    -0x38(%rbp),%rdx
    180039c9:	48 8b 45 d8          	mov    -0x28(%rbp),%rax
    180039cd:	49 89 f8             	mov    %rdi,%r8
    180039d0:	48 89 c7             	mov    %rax,%rdi
    180039d3:	e8 0d fc ff ff       	callq  180035e5 <append_bin_stats>
    180039d8:	eb 53                	jmp    18003a2d <append_stats+0xe5>
    180039da:	0f b7 55 d4          	movzwl -0x2c(%rbp),%edx
    180039de:	8b 45 d0             	mov    -0x30(%rbp),%eax
    180039e1:	01 d0                	add    %edx,%eax
    180039e3:	83 c0 0a             	add    $0xa,%eax
    180039e6:	89 c0                	mov    %eax,%eax
    180039e8:	48 89 45 e8          	mov    %rax,-0x18(%rbp)
    180039ec:	48 8b 55 e8          	mov    -0x18(%rbp),%rdx
    180039f0:	48 8b 45 f8          	mov    -0x8(%rbp),%rax
    180039f4:	48 89 d6             	mov    %rdx,%rsi
    180039f7:	48 89 c7             	mov    %rax,%rdi
    180039fa:	e8 14 fe ff ff       	callq  18003813 <grow_stats_buf>
    180039ff:	83 f0 01             	xor    $0x1,%eax
    18003a02:	84 c0                	test   %al,%al
    18003a04:	75 26                	jne    18003a2c <append_stats+0xe4>
    18003a06:	0f b7 75 d4          	movzwl -0x2c(%rbp),%esi
    18003a0a:	48 8b 7d f8          	mov    -0x8(%rbp),%rdi
    18003a0e:	8b 4d d0             	mov    -0x30(%rbp),%ecx
    18003a11:	48 8b 55 c8          	mov    -0x38(%rbp),%rdx
    18003a15:	48 8b 45 d8          	mov    -0x28(%rbp),%rax
    18003a19:	49 89 f8             	mov    %rdi,%r8
    18003a1c:	48 89 c7             	mov    %rax,%rdi
    18003a1f:	e8 d5 fc ff ff       	callq  180036f9 <append_ascii_stats>
    18003a24:	eb 07                	jmp    18003a2d <append_stats+0xe5>
    18003a26:	90                   	nop
    18003a27:	eb 04                	jmp    18003a2d <append_stats+0xe5>
    18003a29:	90                   	nop
    18003a2a:	eb 01                	jmp    18003a2d <append_stats+0xe5>
    18003a2c:	90                   	nop
    18003a2d:	c9                   	leaveq 
    18003a2e:	c3                   	retq   

0000000018003a2f <process_bin_stat>:
    18003a2f:	55                   	push   %rbp
    18003a30:	48 89 e5             	mov    %rsp,%rbp
    18003a33:	48 83 ec 40          	sub    $0x40,%rsp
    18003a37:	48 89 7d c8          	mov    %rdi,-0x38(%rbp)
    18003a3b:	48 8b 45 c8          	mov    -0x38(%rbp),%rax
    18003a3f:	48 89 c7             	mov    %rax,%rdi
    18003a42:	e8 85 e8 ff ff       	callq  180022cc <binary_get_key>
    18003a47:	48 89 45 f0          	mov    %rax,-0x10(%rbp)
    18003a4b:	48 8b 45 c8          	mov    -0x38(%rbp),%rax
    18003a4f:	0f b7 80 c2 01 00 00 	movzwl 0x1c2(%rax),%eax
    18003a56:	0f b7 c0             	movzwl %ax,%eax
    18003a59:	48 89 45 e8          	mov    %rax,-0x18(%rbp)
    18003a5d:	48 8d 05 9c 1c 41 00 	lea    0x411c9c(%rip),%rax        # 18415700 <settings>
    18003a64:	8b 40 20             	mov    0x20(%rax),%eax
    18003a67:	83 f8 01             	cmp    $0x1,%eax
    18003a6a:	7e 7a                	jle    18003ae6 <process_bin_stat+0xb7>
    18003a6c:	48 8b 45 c8          	mov    -0x38(%rbp),%rax
    18003a70:	8b 10                	mov    (%rax),%edx
    18003a72:	48 8d 05 17 23 40 00 	lea    0x402317(%rip),%rax        # 18405d90 <stderr>
    18003a79:	48 8b 00             	mov    (%rax),%rax
    18003a7c:	48 8d 35 30 cb 3f 00 	lea    0x3fcb30(%rip),%rsi        # 184005b3 <data_start+0x5b3>
    18003a83:	48 89 c7             	mov    %rax,%rdi
    18003a86:	b8 00 00 00 00       	mov    $0x0,%eax
    18003a8b:	e8 ee f3 01 00       	callq  18022e7e <fprintf>
    18003a90:	c7 45 fc 00 00 00 00 	movl   $0x0,-0x4(%rbp)
    18003a97:	eb 2b                	jmp    18003ac4 <process_bin_stat+0x95>
    18003a99:	8b 45 fc             	mov    -0x4(%rbp),%eax
    18003a9c:	48 63 d0             	movslq %eax,%rdx
    18003a9f:	48 8b 45 f0          	mov    -0x10(%rbp),%rax
    18003aa3:	48 01 d0             	add    %rdx,%rax
    18003aa6:	0f b6 00             	movzbl (%rax),%eax
    18003aa9:	0f be c0             	movsbl %al,%eax
    18003aac:	48 8d 15 dd 22 40 00 	lea    0x4022dd(%rip),%rdx        # 18405d90 <stderr>
    18003ab3:	48 8b 12             	mov    (%rdx),%rdx
    18003ab6:	48 89 d6             	mov    %rdx,%rsi
    18003ab9:	89 c7                	mov    %eax,%edi
    18003abb:	e8 4d f4 01 00       	callq  18022f0d <fputc>
    18003ac0:	83 45 fc 01          	addl   $0x1,-0x4(%rbp)
    18003ac4:	8b 45 fc             	mov    -0x4(%rbp),%eax
    18003ac7:	48 98                	cltq   
    18003ac9:	48 3b 45 e8          	cmp    -0x18(%rbp),%rax
    18003acd:	72 ca                	jb     18003a99 <process_bin_stat+0x6a>
    18003acf:	48 8d 05 ba 22 40 00 	lea    0x4022ba(%rip),%rax        # 18405d90 <stderr>
    18003ad6:	48 8b 00             	mov    (%rax),%rax
    18003ad9:	48 89 c6             	mov    %rax,%rsi
    18003adc:	bf 0a 00 00 00       	mov    $0xa,%edi
    18003ae1:	e8 27 f4 01 00       	callq  18022f0d <fputc>
    18003ae6:	48 83 7d e8 00       	cmpq   $0x0,-0x18(%rbp)
    18003aeb:	75 35                	jne    18003b22 <process_bin_stat+0xf3>
    18003aed:	48 8b 45 c8          	mov    -0x38(%rbp),%rax
    18003af1:	48 89 c6             	mov    %rax,%rsi
    18003af4:	48 8d 3d 4d fe ff ff 	lea    -0x1b3(%rip),%rdi        # 18003948 <append_stats>
    18003afb:	e8 e3 2a 00 00       	callq  180065e3 <server_stats>
    18003b00:	48 8b 45 c8          	mov    -0x38(%rbp),%rax
    18003b04:	48 89 c1             	mov    %rax,%rcx
    18003b07:	48 8d 15 3a fe ff ff 	lea    -0x1c6(%rip),%rdx        # 18003948 <append_stats>
    18003b0e:	be 00 00 00 00       	mov    $0x0,%esi
    18003b13:	bf 00 00 00 00       	mov    $0x0,%edi
    18003b18:	e8 a2 c3 00 00       	callq  1800febf <get_stats>
    18003b1d:	e9 2f 02 00 00       	jmpq   18003d51 <process_bin_stat+0x322>
    18003b22:	48 8b 45 f0          	mov    -0x10(%rbp),%rax
    18003b26:	ba 05 00 00 00       	mov    $0x5,%edx
    18003b2b:	48 8d 35 8c ca 3f 00 	lea    0x3fca8c(%rip),%rsi        # 184005be <data_start+0x5be>
    18003b32:	48 89 c7             	mov    %rax,%rdi
    18003b35:	e8 66 23 02 00       	callq  18025ea0 <strncmp>
    18003b3a:	85 c0                	test   %eax,%eax
    18003b3c:	75 0a                	jne    18003b48 <process_bin_stat+0x119>
    18003b3e:	e8 36 ca ff ff       	callq  18000579 <stats_reset>
    18003b43:	e9 09 02 00 00       	jmpq   18003d51 <process_bin_stat+0x322>
    18003b48:	48 8b 45 f0          	mov    -0x10(%rbp),%rax
    18003b4c:	ba 08 00 00 00       	mov    $0x8,%edx
    18003b51:	48 8d 35 6c ca 3f 00 	lea    0x3fca6c(%rip),%rsi        # 184005c4 <data_start+0x5c4>
    18003b58:	48 89 c7             	mov    %rax,%rdi
    18003b5b:	e8 40 23 02 00       	callq  18025ea0 <strncmp>
    18003b60:	85 c0                	test   %eax,%eax
    18003b62:	75 18                	jne    18003b7c <process_bin_stat+0x14d>
    18003b64:	48 8b 45 c8          	mov    -0x38(%rbp),%rax
    18003b68:	48 89 c6             	mov    %rax,%rsi
    18003b6b:	48 8d 3d d6 fd ff ff 	lea    -0x22a(%rip),%rdi        # 18003948 <append_stats>
    18003b72:	e8 af 34 00 00       	callq  18007026 <process_stat_settings>
    18003b77:	e9 d5 01 00 00       	jmpq   18003d51 <process_bin_stat+0x322>
    18003b7c:	48 8b 45 f0          	mov    -0x10(%rbp),%rax
    18003b80:	ba 06 00 00 00       	mov    $0x6,%edx
    18003b85:	48 8d 35 41 ca 3f 00 	lea    0x3fca41(%rip),%rsi        # 184005cd <data_start+0x5cd>
    18003b8c:	48 89 c7             	mov    %rax,%rdi
    18003b8f:	e8 0c 23 02 00       	callq  18025ea0 <strncmp>
    18003b94:	85 c0                	test   %eax,%eax
    18003b96:	0f 85 11 01 00 00    	jne    18003cad <process_bin_stat+0x27e>
    18003b9c:	48 8b 45 f0          	mov    -0x10(%rbp),%rax
    18003ba0:	48 83 c0 06          	add    $0x6,%rax
    18003ba4:	48 89 45 e0          	mov    %rax,-0x20(%rbp)
    18003ba8:	48 8b 45 e0          	mov    -0x20(%rbp),%rax
    18003bac:	ba 05 00 00 00       	mov    $0x5,%edx
    18003bb1:	48 8d 35 1c ca 3f 00 	lea    0x3fca1c(%rip),%rsi        # 184005d4 <data_start+0x5d4>
    18003bb8:	48 89 c7             	mov    %rax,%rdi
    18003bbb:	e8 e0 22 02 00       	callq  18025ea0 <strncmp>
    18003bc0:	85 c0                	test   %eax,%eax
    18003bc2:	75 6b                	jne    18003c2f <process_bin_stat+0x200>
    18003bc4:	48 8d 45 d4          	lea    -0x2c(%rbp),%rax
    18003bc8:	48 89 c7             	mov    %rax,%rdi
    18003bcb:	e8 72 40 01 00       	callq  18017c42 <stats_prefix_dump>
    18003bd0:	48 89 45 d8          	mov    %rax,-0x28(%rbp)
    18003bd4:	48 83 7d d8 00       	cmpq   $0x0,-0x28(%rbp)
    18003bd9:	74 07                	je     18003be2 <process_bin_stat+0x1b3>
    18003bdb:	8b 45 d4             	mov    -0x2c(%rbp),%eax
    18003bde:	85 c0                	test   %eax,%eax
    18003be0:	7f 18                	jg     18003bfa <process_bin_stat+0x1cb>
    18003be2:	48 8b 45 c8          	mov    -0x38(%rbp),%rax
    18003be6:	48 8d 35 f3 c9 3f 00 	lea    0x3fc9f3(%rip),%rsi        # 184005e0 <data_start+0x5e0>
    18003bed:	48 89 c7             	mov    %rax,%rdi
    18003bf0:	e8 2e e4 ff ff       	callq  18002023 <out_of_memory>
    18003bf5:	e9 d2 01 00 00       	jmpq   18003dcc <process_bin_stat+0x39d>
    18003bfa:	8b 45 d4             	mov    -0x2c(%rbp),%eax
    18003bfd:	89 c1                	mov    %eax,%ecx
    18003bff:	48 8b 55 c8          	mov    -0x38(%rbp),%rdx
    18003c03:	48 8b 45 d8          	mov    -0x28(%rbp),%rax
    18003c07:	49 89 d0             	mov    %rdx,%r8
    18003c0a:	48 89 c2             	mov    %rax,%rdx
    18003c0d:	be 08 00 00 00       	mov    $0x8,%esi
    18003c12:	48 8d 3d f3 c9 3f 00 	lea    0x3fc9f3(%rip),%rdi        # 1840060c <data_start+0x60c>
    18003c19:	e8 2a fd ff ff       	callq  18003948 <append_stats>
    18003c1e:	48 8b 45 d8          	mov    -0x28(%rbp),%rax
    18003c22:	48 89 c7             	mov    %rax,%rdi
    18003c25:	e8 26 aa 01 00       	callq  1801e650 <free>
    18003c2a:	e9 22 01 00 00       	jmpq   18003d51 <process_bin_stat+0x322>
    18003c2f:	48 8b 45 e0          	mov    -0x20(%rbp),%rax
    18003c33:	ba 03 00 00 00       	mov    $0x3,%edx
    18003c38:	48 8d 35 d6 c9 3f 00 	lea    0x3fc9d6(%rip),%rsi        # 18400615 <data_start+0x615>
    18003c3f:	48 89 c7             	mov    %rax,%rdi
    18003c42:	e8 59 22 02 00       	callq  18025ea0 <strncmp>
    18003c47:	85 c0                	test   %eax,%eax
    18003c49:	75 13                	jne    18003c5e <process_bin_stat+0x22f>
    18003c4b:	48 8d 05 ae 1a 41 00 	lea    0x411aae(%rip),%rax        # 18415700 <settings>
    18003c52:	c7 40 58 01 00 00 00 	movl   $0x1,0x58(%rax)
    18003c59:	e9 f3 00 00 00       	jmpq   18003d51 <process_bin_stat+0x322>
    18003c5e:	48 8b 45 e0          	mov    -0x20(%rbp),%rax
    18003c62:	ba 04 00 00 00       	mov    $0x4,%edx
    18003c67:	48 8d 35 ab c9 3f 00 	lea    0x3fc9ab(%rip),%rsi        # 18400619 <data_start+0x619>
    18003c6e:	48 89 c7             	mov    %rax,%rdi
    18003c71:	e8 2a 22 02 00       	callq  18025ea0 <strncmp>
    18003c76:	85 c0                	test   %eax,%eax
    18003c78:	75 13                	jne    18003c8d <process_bin_stat+0x25e>
    18003c7a:	48 8d 05 7f 1a 41 00 	lea    0x411a7f(%rip),%rax        # 18415700 <settings>
    18003c81:	c7 40 58 00 00 00 00 	movl   $0x0,0x58(%rax)
    18003c88:	e9 c4 00 00 00       	jmpq   18003d51 <process_bin_stat+0x322>
    18003c8d:	48 8b 45 c8          	mov    -0x38(%rbp),%rax
    18003c91:	b9 00 00 00 00       	mov    $0x0,%ecx
    18003c96:	ba 00 00 00 00       	mov    $0x0,%edx
    18003c9b:	be 01 00 00 00       	mov    $0x1,%esi
    18003ca0:	48 89 c7             	mov    %rax,%rdi
    18003ca3:	e8 45 e8 ff ff       	callq  180024ed <write_bin_error>
    18003ca8:	e9 1f 01 00 00       	jmpq   18003dcc <process_bin_stat+0x39d>
    18003cad:	48 8b 45 e8          	mov    -0x18(%rbp),%rax
    18003cb1:	89 c6                	mov    %eax,%esi
    18003cb3:	48 8b 55 c8          	mov    -0x38(%rbp),%rdx
    18003cb7:	48 8b 45 f0          	mov    -0x10(%rbp),%rax
    18003cbb:	48 89 d1             	mov    %rdx,%rcx
    18003cbe:	48 8d 15 83 fc ff ff 	lea    -0x37d(%rip),%rdx        # 18003948 <append_stats>
    18003cc5:	48 89 c7             	mov    %rax,%rdi
    18003cc8:	e8 f2 c1 00 00       	callq  1800febf <get_stats>
    18003ccd:	84 c0                	test   %al,%al
    18003ccf:	74 63                	je     18003d34 <process_bin_stat+0x305>
    18003cd1:	48 8b 45 c8          	mov    -0x38(%rbp),%rax
    18003cd5:	48 8b 80 a8 01 00 00 	mov    0x1a8(%rax),%rax
    18003cdc:	48 85 c0             	test   %rax,%rax
    18003cdf:	75 18                	jne    18003cf9 <process_bin_stat+0x2ca>
    18003ce1:	48 8b 45 c8          	mov    -0x38(%rbp),%rax
    18003ce5:	48 8d 35 f4 c8 3f 00 	lea    0x3fc8f4(%rip),%rsi        # 184005e0 <data_start+0x5e0>
    18003cec:	48 89 c7             	mov    %rax,%rdi
    18003cef:	e8 2f e3 ff ff       	callq  18002023 <out_of_memory>
    18003cf4:	e9 d3 00 00 00       	jmpq   18003dcc <process_bin_stat+0x39d>
    18003cf9:	48 8b 45 c8          	mov    -0x38(%rbp),%rax
    18003cfd:	48 8b 80 b8 01 00 00 	mov    0x1b8(%rax),%rax
    18003d04:	89 c2                	mov    %eax,%edx
    18003d06:	48 8b 45 c8          	mov    -0x38(%rbp),%rax
    18003d0a:	48 8b 88 a8 01 00 00 	mov    0x1a8(%rax),%rcx
    18003d11:	48 8b 45 c8          	mov    -0x38(%rbp),%rax
    18003d15:	48 89 ce             	mov    %rcx,%rsi
    18003d18:	48 89 c7             	mov    %rax,%rdi
    18003d1b:	e8 f9 25 00 00       	callq  18006319 <write_and_free>
    18003d20:	48 8b 45 c8          	mov    -0x38(%rbp),%rax
    18003d24:	48 c7 80 a8 01 00 00 	movq   $0x0,0x1a8(%rax)
    18003d2b:	00 00 00 00 
    18003d2f:	e9 98 00 00 00       	jmpq   18003dcc <process_bin_stat+0x39d>
    18003d34:	48 8b 45 c8          	mov    -0x38(%rbp),%rax
    18003d38:	b9 00 00 00 00       	mov    $0x0,%ecx
    18003d3d:	ba 00 00 00 00       	mov    $0x0,%edx
    18003d42:	be 01 00 00 00       	mov    $0x1,%esi
    18003d47:	48 89 c7             	mov    %rax,%rdi
    18003d4a:	e8 9e e7 ff ff       	callq  180024ed <write_bin_error>
    18003d4f:	eb 7b                	jmp    18003dcc <process_bin_stat+0x39d>
    18003d51:	48 8b 45 c8          	mov    -0x38(%rbp),%rax
    18003d55:	49 89 c0             	mov    %rax,%r8
    18003d58:	b9 00 00 00 00       	mov    $0x0,%ecx
    18003d5d:	ba 00 00 00 00       	mov    $0x0,%edx
    18003d62:	be 00 00 00 00       	mov    $0x0,%esi
    18003d67:	bf 00 00 00 00       	mov    $0x0,%edi
    18003d6c:	e8 d7 fb ff ff       	callq  18003948 <append_stats>
    18003d71:	48 8b 45 c8          	mov    -0x38(%rbp),%rax
    18003d75:	48 8b 80 a8 01 00 00 	mov    0x1a8(%rax),%rax
    18003d7c:	48 85 c0             	test   %rax,%rax
    18003d7f:	75 15                	jne    18003d96 <process_bin_stat+0x367>
    18003d81:	48 8b 45 c8          	mov    -0x38(%rbp),%rax
    18003d85:	48 8d 35 94 c8 3f 00 	lea    0x3fc894(%rip),%rsi        # 18400620 <data_start+0x620>
    18003d8c:	48 89 c7             	mov    %rax,%rdi
    18003d8f:	e8 8f e2 ff ff       	callq  18002023 <out_of_memory>
    18003d94:	eb 36                	jmp    18003dcc <process_bin_stat+0x39d>
    18003d96:	48 8b 45 c8          	mov    -0x38(%rbp),%rax
    18003d9a:	48 8b 80 b8 01 00 00 	mov    0x1b8(%rax),%rax
    18003da1:	89 c2                	mov    %eax,%edx
    18003da3:	48 8b 45 c8          	mov    -0x38(%rbp),%rax
    18003da7:	48 8b 88 a8 01 00 00 	mov    0x1a8(%rax),%rcx
    18003dae:	48 8b 45 c8          	mov    -0x38(%rbp),%rax
    18003db2:	48 89 ce             	mov    %rcx,%rsi
    18003db5:	48 89 c7             	mov    %rax,%rdi
    18003db8:	e8 5c 25 00 00       	callq  18006319 <write_and_free>
    18003dbd:	48 8b 45 c8          	mov    -0x38(%rbp),%rax
    18003dc1:	48 c7 80 a8 01 00 00 	movq   $0x0,0x1a8(%rax)
    18003dc8:	00 00 00 00 
    18003dcc:	c9                   	leaveq 
    18003dcd:	c3                   	retq   

0000000018003dce <bin_read_key>:
    18003dce:	55                   	push   %rbp
    18003dcf:	48 89 e5             	mov    %rsp,%rbp
    18003dd2:	48 83 ec 30          	sub    $0x30,%rsp
    18003dd6:	48 89 7d d8          	mov    %rdi,-0x28(%rbp)
    18003dda:	89 75 d4             	mov    %esi,-0x2c(%rbp)
    18003ddd:	89 55 d0             	mov    %edx,-0x30(%rbp)
    18003de0:	48 8b 45 d8          	mov    -0x28(%rbp),%rax
    18003de4:	8b 55 d4             	mov    -0x2c(%rbp),%edx
    18003de7:	89 50 18             	mov    %edx,0x18(%rax)
    18003dea:	48 8b 45 d8          	mov    -0x28(%rbp),%rax
    18003dee:	8b 90 e8 01 00 00    	mov    0x1e8(%rax),%edx
    18003df4:	8b 45 d0             	mov    -0x30(%rbp),%eax
    18003df7:	01 c2                	add    %eax,%edx
    18003df9:	48 8b 45 d8          	mov    -0x28(%rbp),%rax
    18003dfd:	89 90 f0 00 00 00    	mov    %edx,0xf0(%rax)
    18003e03:	48 8b 45 d8          	mov    -0x28(%rbp),%rax
    18003e07:	48 8b 80 b0 00 00 00 	mov    0xb0(%rax),%rax
    18003e0e:	48 83 c0 18          	add    $0x18,%rax
    18003e12:	48 89 c2             	mov    %rax,%rdx
    18003e15:	48 8b 45 d8          	mov    -0x28(%rbp),%rax
    18003e19:	48 8b 80 a8 00 00 00 	mov    0xa8(%rax),%rax
    18003e20:	48 29 c2             	sub    %rax,%rdx
    18003e23:	48 89 d0             	mov    %rdx,%rax
    18003e26:	48 89 45 f0          	mov    %rax,-0x10(%rbp)
    18003e2a:	48 8b 45 d8          	mov    -0x28(%rbp),%rax
    18003e2e:	8b 80 f0 00 00 00    	mov    0xf0(%rax),%eax
    18003e34:	48 63 d0             	movslq %eax,%rdx
    18003e37:	48 8b 45 d8          	mov    -0x28(%rbp),%rax
    18003e3b:	8b 80 b8 00 00 00    	mov    0xb8(%rax),%eax
    18003e41:	48 98                	cltq   
    18003e43:	48 2b 45 f0          	sub    -0x10(%rbp),%rax
    18003e47:	48 39 c2             	cmp    %rax,%rdx
    18003e4a:	0f 8e f4 01 00 00    	jle    18004044 <bin_read_key+0x276>
    18003e50:	48 8b 45 d8          	mov    -0x28(%rbp),%rax
    18003e54:	8b 80 b8 00 00 00    	mov    0xb8(%rax),%eax
    18003e5a:	48 98                	cltq   
    18003e5c:	48 89 45 f8          	mov    %rax,-0x8(%rbp)
    18003e60:	48 8b 45 d8          	mov    -0x28(%rbp),%rax
    18003e64:	8b 80 f0 00 00 00    	mov    0xf0(%rax),%eax
    18003e6a:	48 98                	cltq   
    18003e6c:	48 83 c0 18          	add    $0x18,%rax
    18003e70:	48 89 45 e8          	mov    %rax,-0x18(%rbp)
    18003e74:	eb 04                	jmp    18003e7a <bin_read_key+0xac>
    18003e76:	48 d1 65 f8          	shlq   -0x8(%rbp)
    18003e7a:	48 8b 45 e8          	mov    -0x18(%rbp),%rax
    18003e7e:	48 3b 45 f8          	cmp    -0x8(%rbp),%rax
    18003e82:	77 f2                	ja     18003e76 <bin_read_key+0xa8>
    18003e84:	48 8b 45 d8          	mov    -0x28(%rbp),%rax
    18003e88:	8b 80 b8 00 00 00    	mov    0xb8(%rax),%eax
    18003e8e:	48 98                	cltq   
    18003e90:	48 3b 45 f8          	cmp    -0x8(%rbp),%rax
    18003e94:	0f 84 18 01 00 00    	je     18003fb2 <bin_read_key+0x1e4>
    18003e9a:	48 8d 05 5f 18 41 00 	lea    0x41185f(%rip),%rax        # 18415700 <settings>
    18003ea1:	8b 40 20             	mov    0x20(%rax),%eax
    18003ea4:	83 f8 01             	cmp    $0x1,%eax
    18003ea7:	7e 38                	jle    18003ee1 <bin_read_key+0x113>
    18003ea9:	48 8b 45 d8          	mov    -0x28(%rbp),%rax
    18003ead:	8b 80 b8 00 00 00    	mov    0xb8(%rax),%eax
    18003eb3:	48 63 c8             	movslq %eax,%rcx
    18003eb6:	48 8b 45 d8          	mov    -0x28(%rbp),%rax
    18003eba:	8b 10                	mov    (%rax),%edx
    18003ebc:	48 8d 05 cd 1e 40 00 	lea    0x401ecd(%rip),%rax        # 18405d90 <stderr>
    18003ec3:	48 8b 00             	mov    (%rax),%rax
    18003ec6:	48 8b 75 f8          	mov    -0x8(%rbp),%rsi
    18003eca:	49 89 f0             	mov    %rsi,%r8
    18003ecd:	48 8d 35 84 c7 3f 00 	lea    0x3fc784(%rip),%rsi        # 18400658 <data_start+0x658>
    18003ed4:	48 89 c7             	mov    %rax,%rdi
    18003ed7:	b8 00 00 00 00       	mov    $0x0,%eax
    18003edc:	e8 9d ef 01 00       	callq  18022e7e <fprintf>
    18003ee1:	48 8b 45 d8          	mov    -0x28(%rbp),%rax
    18003ee5:	48 8b 80 a8 00 00 00 	mov    0xa8(%rax),%rax
    18003eec:	48 8b 55 f8          	mov    -0x8(%rbp),%rdx
    18003ef0:	48 89 d6             	mov    %rdx,%rsi
    18003ef3:	48 89 c7             	mov    %rax,%rdi
    18003ef6:	e8 f5 b2 01 00       	callq  1801f1f0 <realloc>
    18003efb:	48 89 45 e0          	mov    %rax,-0x20(%rbp)
    18003eff:	48 83 7d e0 00       	cmpq   $0x0,-0x20(%rbp)
    18003f04:	75 6c                	jne    18003f72 <bin_read_key+0x1a4>
    18003f06:	e8 6c 28 01 00       	callq  18016777 <STATS_LOCK>
    18003f0b:	48 8d 05 ae 18 41 00 	lea    0x4118ae(%rip),%rax        # 184157c0 <stats>
    18003f12:	48 8b 40 48          	mov    0x48(%rax),%rax
    18003f16:	48 8d 50 01          	lea    0x1(%rax),%rdx
    18003f1a:	48 8d 05 9f 18 41 00 	lea    0x41189f(%rip),%rax        # 184157c0 <stats>
    18003f21:	48 89 50 48          	mov    %rdx,0x48(%rax)
    18003f25:	e8 60 28 01 00       	callq  1801678a <STATS_UNLOCK>
    18003f2a:	48 8d 05 cf 17 41 00 	lea    0x4117cf(%rip),%rax        # 18415700 <settings>
    18003f31:	8b 40 20             	mov    0x20(%rax),%eax
    18003f34:	85 c0                	test   %eax,%eax
    18003f36:	74 24                	je     18003f5c <bin_read_key+0x18e>
    18003f38:	48 8b 45 d8          	mov    -0x28(%rbp),%rax
    18003f3c:	8b 10                	mov    (%rax),%edx
    18003f3e:	48 8d 05 4b 1e 40 00 	lea    0x401e4b(%rip),%rax        # 18405d90 <stderr>
    18003f45:	48 8b 00             	mov    (%rax),%rax
    18003f48:	48 8d 35 39 c7 3f 00 	lea    0x3fc739(%rip),%rsi        # 18400688 <data_start+0x688>
    18003f4f:	48 89 c7             	mov    %rax,%rdi
    18003f52:	b8 00 00 00 00       	mov    $0x0,%eax
    18003f57:	e8 22 ef 01 00       	callq  18022e7e <fprintf>
    18003f5c:	48 8b 45 d8          	mov    -0x28(%rbp),%rax
    18003f60:	be 08 00 00 00       	mov    $0x8,%esi
    18003f65:	48 89 c7             	mov    %rax,%rdi
    18003f68:	e8 be d8 ff ff       	callq  1800182b <conn_set_state>
    18003f6d:	e9 fd 00 00 00       	jmpq   1800406f <bin_read_key+0x2a1>
    18003f72:	48 8b 45 d8          	mov    -0x28(%rbp),%rax
    18003f76:	48 8b 55 e0          	mov    -0x20(%rbp),%rdx
    18003f7a:	48 89 90 a8 00 00 00 	mov    %rdx,0xa8(%rax)
    18003f81:	48 8b 45 d8          	mov    -0x28(%rbp),%rax
    18003f85:	48 8b 80 a8 00 00 00 	mov    0xa8(%rax),%rax
    18003f8c:	48 8b 55 f0          	mov    -0x10(%rbp),%rdx
    18003f90:	48 83 ea 18          	sub    $0x18,%rdx
    18003f94:	48 01 c2             	add    %rax,%rdx
    18003f97:	48 8b 45 d8          	mov    -0x28(%rbp),%rax
    18003f9b:	48 89 90 b0 00 00 00 	mov    %rdx,0xb0(%rax)
    18003fa2:	48 8b 45 f8          	mov    -0x8(%rbp),%rax
    18003fa6:	89 c2                	mov    %eax,%edx
    18003fa8:	48 8b 45 d8          	mov    -0x28(%rbp),%rax
    18003fac:	89 90 b8 00 00 00    	mov    %edx,0xb8(%rax)
    18003fb2:	48 8b 45 d8          	mov    -0x28(%rbp),%rax
    18003fb6:	48 8b 90 a8 00 00 00 	mov    0xa8(%rax),%rdx
    18003fbd:	48 8b 45 d8          	mov    -0x28(%rbp),%rax
    18003fc1:	48 8b 80 b0 00 00 00 	mov    0xb0(%rax),%rax
    18003fc8:	48 39 c2             	cmp    %rax,%rdx
    18003fcb:	74 77                	je     18004044 <bin_read_key+0x276>
    18003fcd:	48 8b 45 d8          	mov    -0x28(%rbp),%rax
    18003fd1:	8b 80 bc 00 00 00    	mov    0xbc(%rax),%eax
    18003fd7:	48 63 d0             	movslq %eax,%rdx
    18003fda:	48 8b 45 d8          	mov    -0x28(%rbp),%rax
    18003fde:	48 8b 88 b0 00 00 00 	mov    0xb0(%rax),%rcx
    18003fe5:	48 8b 45 d8          	mov    -0x28(%rbp),%rax
    18003fe9:	48 8b 80 a8 00 00 00 	mov    0xa8(%rax),%rax
    18003ff0:	48 89 ce             	mov    %rcx,%rsi
    18003ff3:	48 89 c7             	mov    %rax,%rdi
    18003ff6:	e8 4e 26 02 00       	callq  18026649 <memmove>
    18003ffb:	48 8b 45 d8          	mov    -0x28(%rbp),%rax
    18003fff:	48 8b 90 a8 00 00 00 	mov    0xa8(%rax),%rdx
    18004006:	48 8b 45 d8          	mov    -0x28(%rbp),%rax
    1800400a:	48 89 90 b0 00 00 00 	mov    %rdx,0xb0(%rax)
    18004011:	48 8d 05 e8 16 41 00 	lea    0x4116e8(%rip),%rax        # 18415700 <settings>
    18004018:	8b 40 20             	mov    0x20(%rax),%eax
    1800401b:	83 f8 01             	cmp    $0x1,%eax
    1800401e:	7e 24                	jle    18004044 <bin_read_key+0x276>
    18004020:	48 8b 45 d8          	mov    -0x28(%rbp),%rax
    18004024:	8b 10                	mov    (%rax),%edx
    18004026:	48 8d 05 63 1d 40 00 	lea    0x401d63(%rip),%rax        # 18405d90 <stderr>
    1800402d:	48 8b 00             	mov    (%rax),%rax
    18004030:	48 8d 35 81 c6 3f 00 	lea    0x3fc681(%rip),%rsi        # 184006b8 <data_start+0x6b8>
    18004037:	48 89 c7             	mov    %rax,%rdi
    1800403a:	b8 00 00 00 00       	mov    $0x0,%eax
    1800403f:	e8 3a ee 01 00       	callq  18022e7e <fprintf>
    18004044:	48 8b 45 d8          	mov    -0x28(%rbp),%rax
    18004048:	48 8b 80 b0 00 00 00 	mov    0xb0(%rax),%rax
    1800404f:	48 8d 50 18          	lea    0x18(%rax),%rdx
    18004053:	48 8b 45 d8          	mov    -0x28(%rbp),%rax
    18004057:	48 89 90 e8 00 00 00 	mov    %rdx,0xe8(%rax)
    1800405e:	48 8b 45 d8          	mov    -0x28(%rbp),%rax
    18004062:	be 06 00 00 00       	mov    $0x6,%esi
    18004067:	48 89 c7             	mov    %rax,%rdi
    1800406a:	e8 bc d7 ff ff       	callq  1800182b <conn_set_state>
    1800406f:	c9                   	leaveq 
    18004070:	c3                   	retq   

0000000018004071 <handle_binary_protocol_error>:
    18004071:	55                   	push   %rbp
    18004072:	48 89 e5             	mov    %rsp,%rbp
    18004075:	48 83 ec 10          	sub    $0x10,%rsp
    18004079:	48 89 7d f8          	mov    %rdi,-0x8(%rbp)
    1800407d:	48 8b 45 f8          	mov    -0x8(%rbp),%rax
    18004081:	b9 00 00 00 00       	mov    $0x0,%ecx
    18004086:	ba 00 00 00 00       	mov    $0x0,%edx
    1800408b:	be 04 00 00 00       	mov    $0x4,%esi
    18004090:	48 89 c7             	mov    %rax,%rdi
    18004093:	e8 55 e4 ff ff       	callq  180024ed <write_bin_error>
    18004098:	48 8d 05 61 16 41 00 	lea    0x411661(%rip),%rax        # 18415700 <settings>
    1800409f:	8b 40 20             	mov    0x20(%rax),%eax
    180040a2:	85 c0                	test   %eax,%eax
    180040a4:	74 32                	je     180040d8 <handle_binary_protocol_error+0x67>
    180040a6:	48 8b 45 f8          	mov    -0x8(%rbp),%rax
    180040aa:	8b 08                	mov    (%rax),%ecx
    180040ac:	48 8b 45 f8          	mov    -0x8(%rbp),%rax
    180040b0:	0f b6 80 c1 01 00 00 	movzbl 0x1c1(%rax),%eax
    180040b7:	0f b6 d0             	movzbl %al,%edx
    180040ba:	48 8d 05 cf 1c 40 00 	lea    0x401ccf(%rip),%rax        # 18405d90 <stderr>
    180040c1:	48 8b 00             	mov    (%rax),%rax
    180040c4:	48 8d 35 0d c6 3f 00 	lea    0x3fc60d(%rip),%rsi        # 184006d8 <data_start+0x6d8>
    180040cb:	48 89 c7             	mov    %rax,%rdi
    180040ce:	b8 00 00 00 00       	mov    $0x0,%eax
    180040d3:	e8 a6 ed 01 00       	callq  18022e7e <fprintf>
    180040d8:	48 8b 45 f8          	mov    -0x8(%rbp),%rax
    180040dc:	c7 80 d8 00 00 00 08 	movl   $0x8,0xd8(%rax)
    180040e3:	00 00 00 
    180040e6:	90                   	nop
    180040e7:	c9                   	leaveq 
    180040e8:	c3                   	retq   

00000000180040e9 <init_sasl_conn>:
    180040e9:	55                   	push   %rbp
    180040ea:	48 89 e5             	mov    %rsp,%rbp
    180040ed:	48 83 ec 20          	sub    $0x20,%rsp
    180040f1:	48 89 7d e8          	mov    %rdi,-0x18(%rbp)
    180040f5:	48 8d 05 04 16 41 00 	lea    0x411604(%rip),%rax        # 18415700 <settings>
    180040fc:	0f b6 40 70          	movzbl 0x70(%rax),%eax
    18004100:	83 f0 01             	xor    $0x1,%eax
    18004103:	84 c0                	test   %al,%al
    18004105:	75 61                	jne    18004168 <init_sasl_conn+0x7f>
    18004107:	48 8b 45 e8          	mov    -0x18(%rbp),%rax
    1800410b:	c6 40 10 00          	movb   $0x0,0x10(%rax)
    1800410f:	48 8b 45 e8          	mov    -0x18(%rbp),%rax
    18004113:	48 8b 40 08          	mov    0x8(%rax),%rax
    18004117:	48 85 c0             	test   %rax,%rax
    1800411a:	75 4d                	jne    18004169 <init_sasl_conn+0x80>
    1800411c:	c7 45 fc 01 00 00 00 	movl   $0x1,-0x4(%rbp)
    18004123:	83 7d fc 00          	cmpl   $0x0,-0x4(%rbp)
    18004127:	74 40                	je     18004169 <init_sasl_conn+0x80>
    18004129:	48 8d 05 d0 15 41 00 	lea    0x4115d0(%rip),%rax        # 18415700 <settings>
    18004130:	8b 40 20             	mov    0x20(%rax),%eax
    18004133:	85 c0                	test   %eax,%eax
    18004135:	74 23                	je     1800415a <init_sasl_conn+0x71>
    18004137:	48 8d 05 52 1c 40 00 	lea    0x401c52(%rip),%rax        # 18405d90 <stderr>
    1800413e:	48 8b 00             	mov    (%rax),%rax
    18004141:	48 89 c1             	mov    %rax,%rcx
    18004144:	ba 20 00 00 00       	mov    $0x20,%edx
    18004149:	be 01 00 00 00       	mov    $0x1,%esi
    1800414e:	48 8d 3d bb c5 3f 00 	lea    0x3fc5bb(%rip),%rdi        # 18400710 <data_start+0x710>
    18004155:	e8 80 f0 01 00       	callq  180231da <fwrite>
    1800415a:	48 8b 45 e8          	mov    -0x18(%rbp),%rax
    1800415e:	48 c7 40 08 00 00 00 	movq   $0x0,0x8(%rax)
    18004165:	00 
    18004166:	eb 01                	jmp    18004169 <init_sasl_conn+0x80>
    18004168:	90                   	nop
    18004169:	c9                   	leaveq 
    1800416a:	c3                   	retq   

000000001800416b <bin_list_sasl_mechs>:
    1800416b:	55                   	push   %rbp
    1800416c:	48 89 e5             	mov    %rsp,%rbp
    1800416f:	48 83 ec 20          	sub    $0x20,%rsp
